
test:     file format elf64-littleriscv


Disassembly of section .rodata:

0000000000010158 <errid-0xaf>:
   10158:	6f4e                	.2byte	0x6f4e
   1015a:	6564                	.2byte	0x6564
   1015c:	616e                	.2byte	0x616e
   1015e:	656d                	.2byte	0x656d
   10160:	2020                	.2byte	0x2020
   10162:	2020                	.2byte	0x2020
   10164:	202d                	.2byte	0x202d
   10166:	7325                	.2byte	0x7325
   10168:	0a20                	.2byte	0xa20
   1016a:	2800                	.2byte	0x2800
   1016c:	756e                	.2byte	0x756e
   1016e:	6c6c                	.2byte	0x6c6c
   10170:	0029                	.2byte	0x29
   10172:	6552                	.2byte	0x6552
   10174:	656c                	.2byte	0x656c
   10176:	7361                	.2byte	0x7361
   10178:	2065                	.2byte	0x2065
   1017a:	2020                	.2byte	0x2020
   1017c:	2020                	.2byte	0x2020
   1017e:	202d                	.2byte	0x202d
   10180:	7325                	.2byte	0x7325
   10182:	0a20                	.2byte	0xa20
   10184:	6e00                	.2byte	0x6e00
   10186:	6e61                	.2byte	0x6e61
   10188:	0000                	.2byte	0x0
   1018a:	6e69                	.2byte	0x6e69
   1018c:	0066                	.2byte	0x66
   1018e:	614d                	.2byte	0x614d
   10190:	6e696863          	bltu	s2,t1,10880 <errmsg+0x2f8>
   10194:	2065                	.2byte	0x2065
   10196:	2020                	.2byte	0x2020
   10198:	2020                	.2byte	0x2020
   1019a:	202d                	.2byte	0x202d
   1019c:	7325                	.2byte	0x7325
   1019e:	0a20                	.2byte	0xa20
   101a0:	5600                	.2byte	0x5600
   101a2:	7265                	.2byte	0x7265
   101a4:	6e6f6973          	csrrsi	s2,0x6e6,30
   101a8:	2020                	.2byte	0x2020
   101aa:	2020                	.2byte	0x2020
   101ac:	2d20                	.2byte	0x2d20
   101ae:	2520                	.2byte	0x2520
   101b0:	000a2073          	csrs	0x0,s4
   101b4:	6f44                	.2byte	0x6f44
   101b6:	616d                	.2byte	0x616d
   101b8:	6e69                	.2byte	0x6e69
   101ba:	6e20                	.2byte	0x6e20
   101bc:	6d61                	.2byte	0x6d61
   101be:	2065                	.2byte	0x2065
   101c0:	202d                	.2byte	0x202d
   101c2:	7325                	.2byte	0x7325
   101c4:	0a20                	.2byte	0xa20
   101c6:	5300                	.2byte	0x5300
   101c8:	7379                	.2byte	0x7379
   101ca:	6574                	.2byte	0x6574
   101cc:	206d                	.2byte	0x206d
   101ce:	616e                	.2byte	0x616e
   101d0:	656d                	.2byte	0x656d
   101d2:	2d20                	.2byte	0x2d20
   101d4:	2520                	.2byte	0x2520
   101d6:	000a2073          	csrs	0x0,s4
   101da:	2b2d                	.2byte	0x2b2d
   101dc:	2020                	.2byte	0x2020
   101de:	3020                	.2byte	0x3020
   101e0:	3058                	.2byte	0x3058
   101e2:	0078                	.2byte	0x78
   101e4:	302d                	.2byte	0x302d
   101e6:	2b58                	.2byte	0x2b58
   101e8:	5830                	.2byte	0x5830
   101ea:	3020                	.2byte	0x3020
   101ec:	2d58                	.2byte	0x2d58
   101ee:	7830                	.2byte	0x7830
   101f0:	2078302b          	.4byte	0x2078302b
   101f4:	7830                	.2byte	0x7830
   101f6:	2e00                	.2byte	0x2e00
   101f8:	2f00                	.2byte	0x2f00
   101fa:	6564                	.2byte	0x6564
   101fc:	2f76                	.2byte	0x2f76
   101fe:	756e                	.2byte	0x756e
   10200:	6c6c                	.2byte	0x6c6c
   10202:	4e00                	.2byte	0x4e00
   10204:	4e41                	.2byte	0x4e41
	...

0000000000010207 <errid>:
   10207:	2154                	.2byte	0x2154
   10209:	1922                	.2byte	0x1922
   1020b:	010d                	.2byte	0x10d
   1020d:	0302                	.2byte	0x302
   1020f:	4b11                	.2byte	0x4b11
   10211:	0c1c                	.2byte	0xc1c
   10213:	0410                	.2byte	0x410
   10215:	1e121d0b          	.4byte	0x1e121d0b
   10219:	6f6e6827          	.4byte	0x6f6e6827
   1021d:	7170                	.2byte	0x7170
   1021f:	2062                	.2byte	0x2062
   10221:	0605                	.2byte	0x605
   10223:	1514130f          	.4byte	0x1514130f
   10227:	081a                	.2byte	0x81a
   10229:	0716                	.2byte	0x716
   1022b:	2428                	.2byte	0x2428
   1022d:	0a091817          	auipc	a6,0xa091
   10231:	1b0e                	.2byte	0x1b0e
   10233:	251f 8323 7d82      	.byte	0x1f, 0x25, 0x23, 0x83, 0x82, 0x7d
   10239:	2a26                	.2byte	0x2a26
   1023b:	3e3d3c2b          	.4byte	0x3e3d3c2b
   1023f:	4a47433f 5a59584d 	.8byte	0x5a59584d4a47433f
   10247:	5e5d5c5b          	.4byte	0x5e5d5c5b
   1024b:	605f 6361 6564      	.byte	0x5f, 0x60, 0x61, 0x63, 0x64, 0x65
   10251:	6766                	.2byte	0x6766
   10253:	6a69                	.2byte	0x6a69
   10255:	73726c6b          	.4byte	0x73726c6b
   10259:	7974                	.2byte	0x7974
   1025b:	7b7a                	.2byte	0x7b7a
   1025d:	487c                	.2byte	0x487c
   1025f:	4900                	.2byte	0x4900
   10261:	464e                	.2byte	0x464e
	...
   1026b:	0100                	.2byte	0x100
   1026d:	0000                	.2byte	0x0
   1026f:	0000                	.2byte	0x0
   10271:	0000                	.2byte	0x0
   10273:	0200                	.2byte	0x200
	...

0000000000010280 <stdout>:
   10280:	a6f0                	.2byte	0xa6f0
   10282:	0001                	.2byte	0x1
   10284:	0000                	.2byte	0x0
	...

0000000000010288 <.LJTI1_0>:
   10288:	3568                	.2byte	0x3568
   1028a:	0001                	.2byte	0x1
   1028c:	3808                	.2byte	0x3808
   1028e:	0001                	.2byte	0x1
   10290:	3808                	.2byte	0x3808
   10292:	0001                	.2byte	0x1
   10294:	3808                	.2byte	0x3808
   10296:	0001                	.2byte	0x1
   10298:	3808                	.2byte	0x3808
   1029a:	0001                	.2byte	0x1
   1029c:	3720                	.2byte	0x3720
   1029e:	0001                	.2byte	0x1
   102a0:	3808                	.2byte	0x3808
   102a2:	0001                	.2byte	0x1
   102a4:	3808                	.2byte	0x3808
   102a6:	0001                	.2byte	0x1
   102a8:	3808                	.2byte	0x3808
   102aa:	0001                	.2byte	0x1
   102ac:	3808                	.2byte	0x3808
   102ae:	0001                	.2byte	0x1
   102b0:	3808                	.2byte	0x3808
   102b2:	0001                	.2byte	0x1
   102b4:	3808                	.2byte	0x3808
   102b6:	0001                	.2byte	0x1
   102b8:	3808                	.2byte	0x3808
   102ba:	0001                	.2byte	0x1
   102bc:	3808                	.2byte	0x3808
   102be:	0001                	.2byte	0x1
   102c0:	34d0                	.2byte	0x34d0
   102c2:	0001                	.2byte	0x1
   102c4:	3808                	.2byte	0x3808
   102c6:	0001                	.2byte	0x1
   102c8:	3628                	.2byte	0x3628
   102ca:	0001                	.2byte	0x1
   102cc:	3468                	.2byte	0x3468
   102ce:	0001                	.2byte	0x1
   102d0:	34d0                	.2byte	0x34d0
   102d2:	0001                	.2byte	0x1
   102d4:	34d0                	.2byte	0x34d0
   102d6:	0001                	.2byte	0x1
   102d8:	34d0                	.2byte	0x34d0
   102da:	0001                	.2byte	0x1
   102dc:	3808                	.2byte	0x3808
   102de:	0001                	.2byte	0x1
   102e0:	3468                	.2byte	0x3468
   102e2:	0001                	.2byte	0x1
   102e4:	3808                	.2byte	0x3808
   102e6:	0001                	.2byte	0x1
   102e8:	3808                	.2byte	0x3808
   102ea:	0001                	.2byte	0x1
   102ec:	3808                	.2byte	0x3808
   102ee:	0001                	.2byte	0x1
   102f0:	3650                	.2byte	0x3650
   102f2:	0001                	.2byte	0x1
   102f4:	3660                	.2byte	0x3660
   102f6:	0001                	.2byte	0x1
   102f8:	3694                	.2byte	0x3694
   102fa:	0001                	.2byte	0x1
   102fc:	3700                	.2byte	0x3700
   102fe:	0001                	.2byte	0x1
   10300:	3808                	.2byte	0x3808
   10302:	0001                	.2byte	0x1
   10304:	3808                	.2byte	0x3808
   10306:	0001                	.2byte	0x1
   10308:	3798                	.2byte	0x3798
   1030a:	0001                	.2byte	0x1
   1030c:	3808                	.2byte	0x3808
   1030e:	0001                	.2byte	0x1
   10310:	37ec                	.2byte	0x37ec
   10312:	0001                	.2byte	0x1
   10314:	3808                	.2byte	0x3808
   10316:	0001                	.2byte	0x1
   10318:	3808                	.2byte	0x3808
   1031a:	0001                	.2byte	0x1
   1031c:	3720                	.2byte	0x3720
   1031e:	0001                	.2byte	0x1

0000000000010320 <.LJTI1_1>:
   10320:	4584                	.2byte	0x4584
   10322:	0001                	.2byte	0x1
   10324:	3684                	.2byte	0x3684
   10326:	0001                	.2byte	0x1
   10328:	3684                	.2byte	0x3684
   1032a:	0001                	.2byte	0x1
   1032c:	4594                	.2byte	0x4594
   1032e:	0001                	.2byte	0x1
   10330:	45a4                	.2byte	0x45a4
   10332:	0001                	.2byte	0x1
   10334:	2f98                	.2byte	0x2f98
   10336:	0001                	.2byte	0x1
   10338:	3684                	.2byte	0x3684
   1033a:	0001                	.2byte	0x1
   1033c:	3684                	.2byte	0x3684
   1033e:	0001                	.2byte	0x1

0000000000010340 <.LJTI2_0>:
   10340:	4d1c                	.2byte	0x4d1c
   10342:	0001                	.2byte	0x1
   10344:	4d40                	.2byte	0x4d40
   10346:	0001                	.2byte	0x1
   10348:	4d54                	.2byte	0x4d54
   1034a:	0001                	.2byte	0x1
   1034c:	4d1c                	.2byte	0x4d1c
   1034e:	0001                	.2byte	0x1
   10350:	4d1c                	.2byte	0x4d1c
   10352:	0001                	.2byte	0x1
   10354:	4d1c                	.2byte	0x4d1c
   10356:	0001                	.2byte	0x1
   10358:	4d68                	.2byte	0x4d68
   1035a:	0001                	.2byte	0x1
   1035c:	4d7c                	.2byte	0x4d7c
   1035e:	0001                	.2byte	0x1
   10360:	4d90                	.2byte	0x4d90
   10362:	0001                	.2byte	0x1
   10364:	4da4                	.2byte	0x4da4
   10366:	0001                	.2byte	0x1
   10368:	4d1c                	.2byte	0x4d1c
   1036a:	0001                	.2byte	0x1
   1036c:	4d1c                	.2byte	0x4d1c
   1036e:	0001                	.2byte	0x1
   10370:	4d1c                	.2byte	0x4d1c
   10372:	0001                	.2byte	0x1
   10374:	4d1c                	.2byte	0x4d1c
   10376:	0001                	.2byte	0x1
   10378:	4d1c                	.2byte	0x4d1c
   1037a:	0001                	.2byte	0x1
   1037c:	4d1c                	.2byte	0x4d1c
   1037e:	0001                	.2byte	0x1
   10380:	4db8                	.2byte	0x4db8
   10382:	0001                	.2byte	0x1
   10384:	4dd4                	.2byte	0x4dd4
   10386:	0001                	.2byte	0x1

0000000000010388 <states>:
   10388:	0019                	.2byte	0x19
   1038a:	000a                	.2byte	0xa
   1038c:	1919                	.2byte	0x1919
   1038e:	0019                	.2byte	0x19
   10390:	0000                	.2byte	0x0
   10392:	0500                	.2byte	0x500
   10394:	0000                	.2byte	0x0
   10396:	0000                	.2byte	0x0
   10398:	0000                	.2byte	0x0
   1039a:	0009                	.2byte	0x9
   1039c:	0000                	.2byte	0x0
   1039e:	0b00                	.2byte	0xb00
	...
   103a8:	0019                	.2byte	0x19
   103aa:	0a11                	.2byte	0xa11
   103ac:	1919                	.2byte	0x1919
   103ae:	0319                	.2byte	0x319
   103b0:	070a                	.2byte	0x70a
   103b2:	0100                	.2byte	0x100
   103b4:	180b091b          	addiw	s2,s6,384
   103b8:	0000                	.2byte	0x0
   103ba:	0609                	.2byte	0x609
   103bc:	0b00000b          	.4byte	0xb00000b
   103c0:	0600                	.2byte	0x600
   103c2:	0019                	.2byte	0x19
   103c4:	0000                	.2byte	0x0
   103c6:	1919                	.2byte	0x1919
   103c8:	0019                	.2byte	0x19
	...
   103d6:	0000                	.2byte	0x0
   103d8:	0e00                	.2byte	0xe00
	...
   103e2:	0019                	.2byte	0x19
   103e4:	0d0a                	.2byte	0xd0a
   103e6:	1919                	.2byte	0x1919
   103e8:	0019                	.2byte	0x19
   103ea:	000d                	.2byte	0xd
   103ec:	0200                	.2byte	0x200
   103ee:	0900                	.2byte	0x900
   103f0:	000e                	.2byte	0xe
   103f2:	0000                	.2byte	0x0
   103f4:	0009                	.2byte	0x9
   103f6:	000e                	.2byte	0xe
   103f8:	0e00                	.2byte	0xe00
	...
   10412:	0c00                	.2byte	0xc00
	...
   1041c:	0000                	.2byte	0x0
   1041e:	1300                	.2byte	0x1300
   10420:	0000                	.2byte	0x0
   10422:	0000                	.2byte	0x0
   10424:	00000013          	nop
   10428:	0900                	.2byte	0x900
   1042a:	000c                	.2byte	0xc
   1042c:	0000                	.2byte	0x0
   1042e:	0000                	.2byte	0x0
   10430:	000c                	.2byte	0xc
   10432:	0c00                	.2byte	0xc00
	...
   1044c:	1000                	.2byte	0x1000
	...
   10456:	0000                	.2byte	0x0
   10458:	0f00                	.2byte	0xf00
   1045a:	0000                	.2byte	0x0
   1045c:	0400                	.2byte	0x400
   1045e:	0000000f          	fence	unknown,unknown
   10462:	0900                	.2byte	0x900
   10464:	0010                	.2byte	0x10
   10466:	0000                	.2byte	0x0
   10468:	0000                	.2byte	0x0
   1046a:	0010                	.2byte	0x10
   1046c:	1000                	.2byte	0x1000
	...
   10486:	1200                	.2byte	0x1200
	...
   10490:	0000                	.2byte	0x0
   10492:	1100                	.2byte	0x1100
   10494:	0000                	.2byte	0x0
   10496:	0000                	.2byte	0x0
   10498:	0011                	.2byte	0x11
   1049a:	0000                	.2byte	0x0
   1049c:	0900                	.2byte	0x900
   1049e:	0012                	.2byte	0x12
   104a0:	0000                	.2byte	0x0
   104a2:	0000                	.2byte	0x0
   104a4:	0012                	.2byte	0x12
   104a6:	1200                	.2byte	0x1200
   104a8:	0000                	.2byte	0x0
   104aa:	001a                	.2byte	0x1a
   104ac:	0000                	.2byte	0x0
   104ae:	1a1a                	.2byte	0x1a1a
   104b0:	001a                	.2byte	0x1a
	...
   104ca:	001a                	.2byte	0x1a
   104cc:	0000                	.2byte	0x0
   104ce:	1a1a                	.2byte	0x1a1a
   104d0:	001a                	.2byte	0x1a
   104d2:	0000                	.2byte	0x0
   104d4:	0000                	.2byte	0x0
   104d6:	0900                	.2byte	0x900
	...
   104f8:	0000                	.2byte	0x0
   104fa:	1400                	.2byte	0x1400
	...
   10504:	0000                	.2byte	0x0
   10506:	1700                	.2byte	0x1700
   10508:	0000                	.2byte	0x0
   1050a:	0000                	.2byte	0x0
   1050c:	00000017          	auipc	zero,0x0
   10510:	0900                	.2byte	0x900
   10512:	0014                	.2byte	0x14
   10514:	0000                	.2byte	0x0
   10516:	0000                	.2byte	0x0
   10518:	0014                	.2byte	0x14
   1051a:	1400                	.2byte	0x1400
	...
   10534:	1600                	.2byte	0x1600
	...
   1053e:	0000                	.2byte	0x0
   10540:	1500                	.2byte	0x1500
   10542:	0000                	.2byte	0x0
   10544:	0000                	.2byte	0x0
   10546:	0015                	.2byte	0x15
   10548:	0000                	.2byte	0x0
   1054a:	0900                	.2byte	0x900
   1054c:	0016                	.2byte	0x16
   1054e:	0000                	.2byte	0x0
   10550:	0000                	.2byte	0x0
   10552:	0016                	.2byte	0x16
   10554:	1600                	.2byte	0x1600
	...

0000000000010558 <xdigits>:
   10558:	3130                	.2byte	0x3130
   1055a:	3332                	.2byte	0x3332
   1055c:	3534                	.2byte	0x3534
   1055e:	3736                	.2byte	0x3736
   10560:	3938                	.2byte	0x3938
   10562:	4241                	.2byte	0x4241
   10564:	46454443          	.4byte	0x46454443
   10568:	0100                	.2byte	0x100
   1056a:	021c                	.2byte	0x21c
   1056c:	0e1d                	.2byte	0xe1d
   1056e:	0318                	.2byte	0x318
   10570:	161e                	.2byte	0x161e
   10572:	0f14                	.2byte	0xf14
   10574:	1119                	.2byte	0x1119
   10576:	0804                	.2byte	0x804
   10578:	1b1f 170d 1315      	.byte	0x1f, 0x1b, 0x0d, 0x17, 0x15, 0x13
   1057e:	0710                	.2byte	0x710
   10580:	0c1a                	.2byte	0xc1a
   10582:	0612                	.2byte	0x612
   10584:	090a050b          	.4byte	0x90a050b

0000000000010588 <errmsg>:
   10588:	6c49                	.2byte	0x6c49
   1058a:	656c                	.2byte	0x656c
   1058c:	206c6167          	.4byte	0x206c6167
   10590:	7962                	.2byte	0x7962
   10592:	6574                	.2byte	0x6574
   10594:	7320                	.2byte	0x7320
   10596:	7165                	.2byte	0x7165
   10598:	6575                	.2byte	0x6575
   1059a:	636e                	.2byte	0x636e
   1059c:	0065                	.2byte	0x65
   1059e:	6f44                	.2byte	0x6f44
   105a0:	616d                	.2byte	0x616d
   105a2:	6e69                	.2byte	0x6e69
   105a4:	6520                	.2byte	0x6520
   105a6:	7272                	.2byte	0x7272
   105a8:	5200726f          	jal	tp,17ac8 <.LBB1_3+0x24>
   105ac:	7365                	.2byte	0x7365
   105ae:	6c75                	.2byte	0x6c75
   105b0:	2074                	.2byte	0x2074
   105b2:	6f6e                	.2byte	0x6f6e
   105b4:	2074                	.2byte	0x2074
   105b6:	6572                	.2byte	0x6572
   105b8:	7270                	.2byte	0x7270
   105ba:	7365                	.2byte	0x7365
   105bc:	6e65                	.2byte	0x6e65
   105be:	6174                	.2byte	0x6174
   105c0:	6c62                	.2byte	0x6c62
   105c2:	0065                	.2byte	0x65
   105c4:	6f4e                	.2byte	0x6f4e
   105c6:	2074                	.2byte	0x2074
   105c8:	2061                	.2byte	0x2061
   105ca:	7474                	.2byte	0x7474
   105cc:	0079                	.2byte	0x79
   105ce:	6550                	.2byte	0x6550
   105d0:	6d72                	.2byte	0x6d72
   105d2:	7369                	.2byte	0x7369
   105d4:	6e6f6973          	csrrsi	s2,0x6e6,30
   105d8:	6420                	.2byte	0x6420
   105da:	6e65                	.2byte	0x6e65
   105dc:	6569                	.2byte	0x6569
   105de:	0064                	.2byte	0x64
   105e0:	7265704f          	.4byte	0x7265704f
   105e4:	7461                	.2byte	0x7461
   105e6:	6f69                	.2byte	0x6f69
   105e8:	206e                	.2byte	0x206e
   105ea:	6f6e                	.2byte	0x6f6e
   105ec:	2074                	.2byte	0x2074
   105ee:	6570                	.2byte	0x6570
   105f0:	6d72                	.2byte	0x6d72
   105f2:	7469                	.2byte	0x7469
   105f4:	6574                	.2byte	0x6574
   105f6:	0064                	.2byte	0x64
   105f8:	6f4e                	.2byte	0x6f4e
   105fa:	7320                	.2byte	0x7320
   105fc:	6375                	.2byte	0x6375
   105fe:	2068                	.2byte	0x2068
   10600:	6966                	.2byte	0x6966
   10602:	656c                	.2byte	0x656c
   10604:	6f20                	.2byte	0x6f20
   10606:	2072                	.2byte	0x2072
   10608:	6964                	.2byte	0x6964
   1060a:	6572                	.2byte	0x6572
   1060c:	726f7463          	bgeu	t5,t1,10d34 <errmsg+0x7ac>
   10610:	0079                	.2byte	0x79
   10612:	6f4e                	.2byte	0x6f4e
   10614:	7320                	.2byte	0x7320
   10616:	6375                	.2byte	0x6375
   10618:	2068                	.2byte	0x2068
   1061a:	7270                	.2byte	0x7270
   1061c:	7365636f          	jal	t1,66d52 <__global_pointer$+0x4be8a>
   10620:	69460073          	.4byte	0x69460073
   10624:	656c                	.2byte	0x656c
   10626:	6520                	.2byte	0x6520
   10628:	6978                	.2byte	0x6978
   1062a:	00737473          	csrrci	s0,0x7,6
   1062e:	6156                	.2byte	0x6156
   10630:	756c                	.2byte	0x756c
   10632:	2065                	.2byte	0x2065
   10634:	6f74                	.2byte	0x6f74
   10636:	616c206f          	j	d2c4c <__global_pointer$+0xb7d84>
   1063a:	6772                	.2byte	0x6772
   1063c:	2065                	.2byte	0x2065
   1063e:	6f66                	.2byte	0x6f66
   10640:	2072                	.2byte	0x2072
   10642:	6164                	.2byte	0x6164
   10644:	6174                	.2byte	0x6174
   10646:	7420                	.2byte	0x7420
   10648:	7079                	.2byte	0x7079
   1064a:	0065                	.2byte	0x65
   1064c:	6f4e                	.2byte	0x6f4e
   1064e:	7320                	.2byte	0x7320
   10650:	6170                	.2byte	0x6170
   10652:	6c206563          	bltu	zero,sp,10d1c <errmsg+0x794>
   10656:	6665                	.2byte	0x6665
   10658:	2074                	.2byte	0x2074
   1065a:	64206e6f          	jal	t3,16c9c <.LBB1_27+0x3c>
   1065e:	7665                	.2byte	0x7665
   10660:	6369                	.2byte	0x6369
   10662:	0065                	.2byte	0x65
   10664:	2074754f          	.4byte	0x2074754f
   10668:	6d20666f          	jal	a2,16d3a <.LBB1_31+0x22>
   1066c:	6d65                	.2byte	0x6d65
   1066e:	0079726f          	jal	tp,a7e74 <__global_pointer$+0x8cfac>
   10672:	6552                	.2byte	0x6552
   10674:	72756f73          	csrrsi	t5,mhpmevent7h,10
   10678:	62206563          	bltu	zero,sp,10ca2 <errmsg+0x71a>
   1067c:	7375                	.2byte	0x7375
   1067e:	0079                	.2byte	0x79
   10680:	6e49                	.2byte	0x6e49
   10682:	6574                	.2byte	0x6574
   10684:	7272                	.2byte	0x7272
   10686:	7075                	.2byte	0x7075
   10688:	6574                	.2byte	0x6574
   1068a:	2064                	.2byte	0x2064
   1068c:	74737973          	csrrci	s2,mseccfg,6
   10690:	6d65                	.2byte	0x6d65
   10692:	6320                	.2byte	0x6320
   10694:	6c61                	.2byte	0x6c61
   10696:	006c                	.2byte	0x6c
   10698:	6552                	.2byte	0x6552
   1069a:	72756f73          	csrrsi	t5,mhpmevent7h,10
   1069e:	74206563          	bltu	zero,sp,10de8 <errmsg+0x860>
   106a2:	6d65                	.2byte	0x6d65
   106a4:	6f70                	.2byte	0x6f70
   106a6:	6172                	.2byte	0x6172
   106a8:	6972                	.2byte	0x6972
   106aa:	796c                	.2byte	0x796c
   106ac:	7520                	.2byte	0x7520
   106ae:	616e                	.2byte	0x616e
   106b0:	6176                	.2byte	0x6176
   106b2:	6c69                	.2byte	0x6c69
   106b4:	6261                	.2byte	0x6261
   106b6:	656c                	.2byte	0x656c
   106b8:	4900                	.2byte	0x4900
   106ba:	766e                	.2byte	0x766e
   106bc:	6c61                	.2byte	0x6c61
   106be:	6469                	.2byte	0x6469
   106c0:	7320                	.2byte	0x7320
   106c2:	6565                	.2byte	0x6565
   106c4:	7243006b          	.4byte	0x7243006b
   106c8:	2d73736f          	jal	t1,4819e <__global_pointer$+0x2d2d6>
   106cc:	6564                	.2byte	0x6564
   106ce:	6976                	.2byte	0x6976
   106d0:	6c206563          	bltu	zero,sp,10d9a <errmsg+0x812>
   106d4:	6e69                	.2byte	0x6e69
   106d6:	6552006b          	.4byte	0x6552006b
   106da:	6461                	.2byte	0x6461
   106dc:	6f2d                	.2byte	0x6f2d
   106de:	6c6e                	.2byte	0x6c6e
   106e0:	2079                	.2byte	0x2079
   106e2:	6966                	.2byte	0x6966
   106e4:	656c                	.2byte	0x656c
   106e6:	7320                	.2byte	0x7320
   106e8:	7379                	.2byte	0x7379
   106ea:	6574                	.2byte	0x6574
   106ec:	006d                	.2byte	0x6d
   106ee:	6944                	.2byte	0x6944
   106f0:	6572                	.2byte	0x6572
   106f2:	726f7463          	bgeu	t5,t1,10e1a <errmsg+0x892>
   106f6:	2079                	.2byte	0x2079
   106f8:	6f6e                	.2byte	0x6f6e
   106fa:	2074                	.2byte	0x2074
   106fc:	6d65                	.2byte	0x6d65
   106fe:	7470                	.2byte	0x7470
   10700:	0079                	.2byte	0x79
   10702:	6e6e6f43          	.4byte	0x6e6e6f43
   10706:	6365                	.2byte	0x6365
   10708:	6974                	.2byte	0x6974
   1070a:	72206e6f          	jal	t3,16e2c <.LBB1_40+0x8>
   1070e:	7365                	.2byte	0x7365
   10710:	7465                	.2byte	0x7465
   10712:	6220                	.2byte	0x6220
   10714:	2079                	.2byte	0x2079
   10716:	6570                	.2byte	0x6570
   10718:	7265                	.2byte	0x7265
   1071a:	4f00                	.2byte	0x4f00
   1071c:	6570                	.2byte	0x6570
   1071e:	6172                	.2byte	0x6172
   10720:	6974                	.2byte	0x6974
   10722:	74206e6f          	jal	t3,16e64 <.LBB1_42>
   10726:	6d69                	.2byte	0x6d69
   10728:	6465                	.2byte	0x6465
   1072a:	6f20                	.2byte	0x6f20
   1072c:	7475                	.2byte	0x7475
   1072e:	4300                	.2byte	0x4300
   10730:	656e6e6f          	jal	t3,f6d86 <__global_pointer$+0xdbebe>
   10734:	6f697463          	bgeu	s2,s6,10e1c <errmsg+0x894>
   10738:	206e                	.2byte	0x206e
   1073a:	6572                	.2byte	0x6572
   1073c:	7566                	.2byte	0x7566
   1073e:	00646573          	csrrsi	a0,0x6,8
   10742:	6f48                	.2byte	0x6f48
   10744:	69207473          	csrrci	s0,0x692,0
   10748:	6f642073          	csrs	0x6f6,s0
   1074c:	48006e77          	.4byte	0x48006e77
   10750:	2074736f          	jal	t1,58156 <__global_pointer$+0x3d28e>
   10754:	7369                	.2byte	0x7369
   10756:	7520                	.2byte	0x7520
   10758:	726e                	.2byte	0x726e
   1075a:	6165                	.2byte	0x6165
   1075c:	62616863          	bltu	sp,t1,10d8c <errmsg+0x804>
   10760:	656c                	.2byte	0x656c
   10762:	4100                	.2byte	0x4100
   10764:	6464                	.2byte	0x6464
   10766:	6572                	.2byte	0x6572
   10768:	69207373          	csrrci	t1,0x692,0
   1076c:	206e                	.2byte	0x206e
   1076e:	7375                	.2byte	0x7375
   10770:	0065                	.2byte	0x65
   10772:	7242                	.2byte	0x7242
   10774:	6e656b6f          	jal	s6,66e5a <__global_pointer$+0x4bf92>
   10778:	7020                	.2byte	0x7020
   1077a:	7069                	.2byte	0x7069
   1077c:	0065                	.2byte	0x65
   1077e:	2f49                	.2byte	0x2f49
   10780:	7265204f          	.4byte	0x7265204f
   10784:	6f72                	.2byte	0x6f72
   10786:	0072                	.2byte	0x72
   10788:	6f4e                	.2byte	0x6f4e
   1078a:	7320                	.2byte	0x7320
   1078c:	6375                	.2byte	0x6375
   1078e:	2068                	.2byte	0x2068
   10790:	6564                	.2byte	0x6564
   10792:	6976                	.2byte	0x6976
   10794:	6f206563          	bltu	zero,s2,10e7e <errmsg+0x8f6>
   10798:	2072                	.2byte	0x2072
   1079a:	6461                	.2byte	0x6461
   1079c:	7264                	.2byte	0x7264
   1079e:	7365                	.2byte	0x7365
   107a0:	6c420073          	.4byte	0x6c420073
   107a4:	206b636f          	jal	t1,c69aa <__global_pointer$+0xabae2>
   107a8:	6564                	.2byte	0x6564
   107aa:	6976                	.2byte	0x6976
   107ac:	72206563          	bltu	zero,sp,10ed6 <errmsg+0x94e>
   107b0:	7165                	.2byte	0x7165
   107b2:	6975                	.2byte	0x6975
   107b4:	6572                	.2byte	0x6572
   107b6:	0064                	.2byte	0x64
   107b8:	6f4e                	.2byte	0x6f4e
   107ba:	7320                	.2byte	0x7320
   107bc:	6375                	.2byte	0x6375
   107be:	2068                	.2byte	0x2068
   107c0:	6564                	.2byte	0x6564
   107c2:	6976                	.2byte	0x6976
   107c4:	4e006563          	bltu	zero,zero,10cae <errmsg+0x726>
   107c8:	6120746f          	jal	s0,17dda <.LBB1_31+0x32>
   107cc:	6420                	.2byte	0x6420
   107ce:	7269                	.2byte	0x7269
   107d0:	6365                	.2byte	0x6365
   107d2:	6f74                	.2byte	0x6f74
   107d4:	7972                	.2byte	0x7972
   107d6:	4900                	.2byte	0x4900
   107d8:	20612073          	csrs	0x206,sp
   107dc:	6964                	.2byte	0x6964
   107de:	6572                	.2byte	0x6572
   107e0:	726f7463          	bgeu	t5,t1,10f08 <errmsg+0x980>
   107e4:	0079                	.2byte	0x79
   107e6:	6554                	.2byte	0x6554
   107e8:	7478                	.2byte	0x7478
   107ea:	6620                	.2byte	0x6620
   107ec:	6c69                	.2byte	0x6c69
   107ee:	2065                	.2byte	0x2065
   107f0:	7562                	.2byte	0x7562
   107f2:	45007973          	csrrci	s2,0x450,0
   107f6:	6578                	.2byte	0x6578
   107f8:	6f662063          	.4byte	0x6f662063
   107fc:	6d72                	.2byte	0x6d72
   107fe:	7461                	.2byte	0x7461
   10800:	6520                	.2byte	0x6520
   10802:	7272                	.2byte	0x7272
   10804:	4900726f          	jal	tp,17c94 <.LBB1_20+0x10>
   10808:	766e                	.2byte	0x766e
   1080a:	6c61                	.2byte	0x6c61
   1080c:	6469                	.2byte	0x6469
   1080e:	6120                	.2byte	0x6120
   10810:	6772                	.2byte	0x6772
   10812:	6d75                	.2byte	0x6d75
   10814:	6e65                	.2byte	0x6e65
   10816:	0074                	.2byte	0x74
   10818:	7241                	.2byte	0x7241
   1081a:	656d7567          	.4byte	0x656d7567
   1081e:	746e                	.2byte	0x746e
   10820:	6c20                	.2byte	0x6c20
   10822:	7369                	.2byte	0x7369
   10824:	2074                	.2byte	0x2074
   10826:	6f74                	.2byte	0x6f74
   10828:	6f6c206f          	j	d2f1e <__global_pointer$+0xb8056>
   1082c:	676e                	.2byte	0x676e
   1082e:	5300                	.2byte	0x5300
   10830:	6d79                	.2byte	0x6d79
   10832:	6f62                	.2byte	0x6f62
   10834:	696c                	.2byte	0x696c
   10836:	696c2063          	.4byte	0x696c2063
   1083a:	6b6e                	.2byte	0x6b6e
   1083c:	6c20                	.2byte	0x6c20
   1083e:	00706f6f          	jal	t5,17044 <wideMultiply+0x30>
   10842:	6946                	.2byte	0x6946
   10844:	656c                	.2byte	0x656c
   10846:	616e                	.2byte	0x616e
   10848:	656d                	.2byte	0x656d
   1084a:	7420                	.2byte	0x7420
   1084c:	6c206f6f          	jal	t5,16f0e <fromRep+0x16>
   10850:	00676e6f          	jal	t3,86856 <__global_pointer$+0x6b98e>
   10854:	6f54                	.2byte	0x6f54
   10856:	616d206f          	j	e2e6c <__global_pointer$+0xc7fa4>
   1085a:	796e                	.2byte	0x796e
   1085c:	6f20                	.2byte	0x6f20
   1085e:	6570                	.2byte	0x6570
   10860:	206e                	.2byte	0x206e
   10862:	6966                	.2byte	0x6966
   10864:	656c                	.2byte	0x656c
   10866:	6e692073          	csrs	0x6e6,s2
   1086a:	7320                	.2byte	0x7320
   1086c:	7379                	.2byte	0x7379
   1086e:	6574                	.2byte	0x6574
   10870:	006d                	.2byte	0x6d
   10872:	6f4e                	.2byte	0x6f4e
   10874:	6620                	.2byte	0x6620
   10876:	6c69                	.2byte	0x6c69
   10878:	2065                	.2byte	0x2065
   1087a:	6564                	.2byte	0x6564
   1087c:	69726373          	csrrsi	t1,0x697,4
   10880:	7470                	.2byte	0x7470
   10882:	2073726f          	jal	tp,48288 <__global_pointer$+0x2d3c0>
   10886:	7661                	.2byte	0x7661
   10888:	6961                	.2byte	0x6961
   1088a:	616c                	.2byte	0x616c
   1088c:	6c62                	.2byte	0x6c62
   1088e:	0065                	.2byte	0x65
   10890:	6142                	.2byte	0x6142
   10892:	2064                	.2byte	0x2064
   10894:	6966                	.2byte	0x6966
   10896:	656c                	.2byte	0x656c
   10898:	6420                	.2byte	0x6420
   1089a:	7365                	.2byte	0x7365
   1089c:	70697263          	bgeu	s2,t1,10fa0 <errmsg+0xa18>
   108a0:	6f74                	.2byte	0x6f74
   108a2:	0072                	.2byte	0x72
   108a4:	6f4e                	.2byte	0x6f4e
   108a6:	6320                	.2byte	0x6320
   108a8:	6968                	.2byte	0x6968
   108aa:	646c                	.2byte	0x646c
   108ac:	7020                	.2byte	0x7020
   108ae:	6f72                	.2byte	0x6f72
   108b0:	73736563          	bltu	t1,s7,10fda <errmsg+0xa52>
   108b4:	4200                	.2byte	0x4200
   108b6:	6461                	.2byte	0x6461
   108b8:	6120                	.2byte	0x6120
   108ba:	6464                	.2byte	0x6464
   108bc:	6572                	.2byte	0x6572
   108be:	46007373          	csrrci	t1,0x460,0
   108c2:	6c69                	.2byte	0x6c69
   108c4:	2065                	.2byte	0x2065
   108c6:	6f74                	.2byte	0x6f74
   108c8:	616c206f          	j	d2ede <__global_pointer$+0xb8016>
   108cc:	6772                	.2byte	0x6772
   108ce:	0065                	.2byte	0x65
   108d0:	6f54                	.2byte	0x6f54
   108d2:	616d206f          	j	e2ee8 <__global_pointer$+0xc8020>
   108d6:	796e                	.2byte	0x796e
   108d8:	6c20                	.2byte	0x6c20
   108da:	6e69                	.2byte	0x6e69
   108dc:	4e00736b          	.4byte	0x4e00736b
   108e0:	6f6c206f          	j	d2fd6 <__global_pointer$+0xb810e>
   108e4:	20736b63          	bltu	t1,t2,10afa <errmsg+0x572>
   108e8:	7661                	.2byte	0x7661
   108ea:	6961                	.2byte	0x6961
   108ec:	616c                	.2byte	0x616c
   108ee:	6c62                	.2byte	0x6c62
   108f0:	0065                	.2byte	0x65
   108f2:	6552                	.2byte	0x6552
   108f4:	72756f73          	csrrsi	t5,mhpmevent7h,10
   108f8:	64206563          	bltu	zero,sp,10f42 <errmsg+0x9ba>
   108fc:	6165                	.2byte	0x6165
   108fe:	6c64                	.2byte	0x6c64
   10900:	206b636f          	jal	t1,c6b06 <__global_pointer$+0xabc3e>
   10904:	6c756f77          	.4byte	0x6c756f77
   10908:	2064                	.2byte	0x2064
   1090a:	7563636f          	jal	t1,47060 <__global_pointer$+0x2c198>
   1090e:	0072                	.2byte	0x72
   10910:	74617453          	.4byte	0x74617453
   10914:	2065                	.2byte	0x2065
   10916:	6f6e                	.2byte	0x6f6e
   10918:	2074                	.2byte	0x2074
   1091a:	6572                	.2byte	0x6572
   1091c:	65766f63          	bltu	a2,s7,10f7a <errmsg+0x9f2>
   10920:	6172                	.2byte	0x6172
   10922:	6c62                	.2byte	0x6c62
   10924:	0065                	.2byte	0x65
   10926:	7250                	.2byte	0x7250
   10928:	7665                	.2byte	0x7665
   1092a:	6f69                	.2byte	0x6f69
   1092c:	7375                	.2byte	0x7375
   1092e:	6f20                	.2byte	0x6f20
   10930:	72656e77          	.4byte	0x72656e77
   10934:	6420                	.2byte	0x6420
   10936:	6569                	.2byte	0x6569
   10938:	0064                	.2byte	0x64
   1093a:	7265704f          	.4byte	0x7265704f
   1093e:	7461                	.2byte	0x7461
   10940:	6f69                	.2byte	0x6f69
   10942:	206e                	.2byte	0x206e
   10944:	636e6163          	bltu	t3,s6,10f66 <errmsg+0x9de>
   10948:	6c65                	.2byte	0x6c65
   1094a:	6465                	.2byte	0x6465
   1094c:	4600                	.2byte	0x4600
   1094e:	6e75                	.2byte	0x6e75
   10950:	6f697463          	bgeu	s2,s6,11038 <errmsg+0xab0>
   10954:	206e                	.2byte	0x206e
   10956:	6f6e                	.2byte	0x6f6e
   10958:	2074                	.2byte	0x2074
   1095a:	6d69                	.2byte	0x6d69
   1095c:	6c70                	.2byte	0x6c70
   1095e:	6d65                	.2byte	0x6d65
   10960:	6e65                	.2byte	0x6e65
   10962:	6574                	.2byte	0x6574
   10964:	0064                	.2byte	0x64
   10966:	6f4e                	.2byte	0x6f4e
   10968:	6d20                	.2byte	0x6d20
   1096a:	7365                	.2byte	0x7365
   1096c:	65676173          	csrrsi	sp,0x656,14
   10970:	6f20                	.2byte	0x6f20
   10972:	2066                	.2byte	0x2066
   10974:	6564                	.2byte	0x6564
   10976:	65726973          	csrrsi	s2,0x657,4
   1097a:	2064                	.2byte	0x2064
   1097c:	7974                	.2byte	0x7974
   1097e:	6570                	.2byte	0x6570
   10980:	4900                	.2byte	0x4900
   10982:	6564                	.2byte	0x6564
   10984:	746e                	.2byte	0x746e
   10986:	6669                	.2byte	0x6669
   10988:	6569                	.2byte	0x6569
   1098a:	2072                	.2byte	0x2072
   1098c:	6572                	.2byte	0x6572
   1098e:	6f6d                	.2byte	0x6f6d
   10990:	6576                	.2byte	0x6576
   10992:	0064                	.2byte	0x64
   10994:	6544                	.2byte	0x6544
   10996:	6976                	.2byte	0x6976
   10998:	6e206563          	bltu	zero,sp,11082 <errmsg+0xafa>
   1099c:	6120746f          	jal	s0,17fae <.LBB1_41+0x12>
   109a0:	7320                	.2byte	0x7320
   109a2:	7274                	.2byte	0x7274
   109a4:	6165                	.2byte	0x6165
   109a6:	006d                	.2byte	0x6d
   109a8:	6f4e                	.2byte	0x6f4e
   109aa:	6420                	.2byte	0x6420
   109ac:	7461                	.2byte	0x7461
   109ae:	2061                	.2byte	0x2061
   109b0:	7661                	.2byte	0x7661
   109b2:	6961                	.2byte	0x6961
   109b4:	616c                	.2byte	0x616c
   109b6:	6c62                	.2byte	0x6c62
   109b8:	0065                	.2byte	0x65
   109ba:	6544                	.2byte	0x6544
   109bc:	6976                	.2byte	0x6976
   109be:	74206563          	bltu	zero,sp,11108 <errmsg+0xb80>
   109c2:	6d69                	.2byte	0x6d69
   109c4:	6f65                	.2byte	0x6f65
   109c6:	7475                	.2byte	0x7475
   109c8:	4f00                	.2byte	0x4f00
   109ca:	7475                	.2byte	0x7475
   109cc:	6f20                	.2byte	0x6f20
   109ce:	2066                	.2byte	0x2066
   109d0:	65727473          	csrrci	s0,0x657,4
   109d4:	6d61                	.2byte	0x6d61
   109d6:	65722073          	csrs	0x657,tp
   109da:	72756f73          	csrrsi	t5,mhpmevent7h,10
   109de:	00736563          	bltu	t1,t2,109e8 <errmsg+0x460>
   109e2:	694c                	.2byte	0x694c
   109e4:	6b6e                	.2byte	0x6b6e
   109e6:	6820                	.2byte	0x6820
   109e8:	7361                	.2byte	0x7361
   109ea:	6220                	.2byte	0x6220
   109ec:	6565                	.2byte	0x6565
   109ee:	206e                	.2byte	0x206e
   109f0:	65766573          	csrrsi	a0,0x657,12
   109f4:	6572                	.2byte	0x6572
   109f6:	0064                	.2byte	0x64
   109f8:	7250                	.2byte	0x7250
   109fa:	636f746f          	jal	s0,108030 <__global_pointer$+0xed168>
   109fe:	65206c6f          	jal	s8,17050 <wideMultiply+0x3c>
   10a02:	7272                	.2byte	0x7272
   10a04:	4200726f          	jal	tp,17e24 <.LBB1_34+0x4>
   10a08:	6461                	.2byte	0x6461
   10a0a:	6d20                	.2byte	0x6d20
   10a0c:	7365                	.2byte	0x7365
   10a0e:	65676173          	csrrsi	sp,0x656,14
   10a12:	4600                	.2byte	0x4600
   10a14:	6c69                	.2byte	0x6c69
   10a16:	2065                	.2byte	0x2065
   10a18:	6564                	.2byte	0x6564
   10a1a:	69726373          	csrrsi	t1,0x697,4
   10a1e:	7470                	.2byte	0x7470
   10a20:	6920726f          	jal	tp,180b2 <.LBB1_48+0x6a>
   10a24:	206e                	.2byte	0x206e
   10a26:	6162                	.2byte	0x6162
   10a28:	2064                	.2byte	0x2064
   10a2a:	74617473          	csrrci	s0,0x746,2
   10a2e:	0065                	.2byte	0x65
   10a30:	6f4e                	.2byte	0x6f4e
   10a32:	2074                	.2byte	0x2074
   10a34:	2061                	.2byte	0x2061
   10a36:	6b636f73          	csrrsi	t5,0x6b6,6
   10a3a:	7465                	.2byte	0x7465
   10a3c:	4400                	.2byte	0x4400
   10a3e:	7365                	.2byte	0x7365
   10a40:	6974                	.2byte	0x6974
   10a42:	616e                	.2byte	0x616e
   10a44:	6974                	.2byte	0x6974
   10a46:	61206e6f          	jal	t3,17058 <wideMultiply+0x44>
   10a4a:	6464                	.2byte	0x6464
   10a4c:	6572                	.2byte	0x6572
   10a4e:	72207373          	csrrci	t1,0x722,0
   10a52:	7165                	.2byte	0x7165
   10a54:	6975                	.2byte	0x6975
   10a56:	6572                	.2byte	0x6572
   10a58:	0064                	.2byte	0x64
   10a5a:	654d                	.2byte	0x654d
   10a5c:	67617373          	csrrci	t1,0x676,2
   10a60:	2065                	.2byte	0x2065
   10a62:	6f74                	.2byte	0x6f74
   10a64:	616c206f          	j	d307a <__global_pointer$+0xb81b2>
   10a68:	6772                	.2byte	0x6772
   10a6a:	0065                	.2byte	0x65
   10a6c:	7250                	.2byte	0x7250
   10a6e:	636f746f          	jal	s0,1080a4 <__global_pointer$+0xed1dc>
   10a72:	77206c6f          	jal	s8,171e4 <wideMultiply+0x1d0>
   10a76:	6f72                	.2byte	0x6f72
   10a78:	676e                	.2byte	0x676e
   10a7a:	7420                	.2byte	0x7420
   10a7c:	7079                	.2byte	0x7079
   10a7e:	2065                	.2byte	0x2065
   10a80:	6f66                	.2byte	0x6f66
   10a82:	2072                	.2byte	0x2072
   10a84:	6b636f73          	csrrsi	t5,0x6b6,6
   10a88:	7465                	.2byte	0x7465
   10a8a:	5000                	.2byte	0x5000
   10a8c:	6f72                	.2byte	0x6f72
   10a8e:	6f74                	.2byte	0x6f74
   10a90:	206c6f63          	bltu	s8,t1,10cae <errmsg+0x726>
   10a94:	6f6e                	.2byte	0x6f6e
   10a96:	2074                	.2byte	0x2074
   10a98:	7661                	.2byte	0x7661
   10a9a:	6961                	.2byte	0x6961
   10a9c:	616c                	.2byte	0x616c
   10a9e:	6c62                	.2byte	0x6c62
   10aa0:	0065                	.2byte	0x65
   10aa2:	7250                	.2byte	0x7250
   10aa4:	636f746f          	jal	s0,1080da <__global_pointer$+0xed212>
   10aa8:	6e206c6f          	jal	s8,1718a <wideMultiply+0x176>
   10aac:	7320746f          	jal	s0,181de <.LBB1_58+0x1e>
   10ab0:	7075                	.2byte	0x7075
   10ab2:	6f70                	.2byte	0x6f70
   10ab4:	7472                	.2byte	0x7472
   10ab6:	6465                	.2byte	0x6465
   10ab8:	5300                	.2byte	0x5300
   10aba:	656b636f          	jal	t1,c7110 <__global_pointer$+0xac248>
   10abe:	2074                	.2byte	0x2074
   10ac0:	7974                	.2byte	0x7974
   10ac2:	6570                	.2byte	0x6570
   10ac4:	6e20                	.2byte	0x6e20
   10ac6:	7320746f          	jal	s0,181f8 <.LBB1_58+0x38>
   10aca:	7075                	.2byte	0x7075
   10acc:	6f70                	.2byte	0x6f70
   10ace:	7472                	.2byte	0x7472
   10ad0:	6465                	.2byte	0x6465
   10ad2:	4e00                	.2byte	0x4e00
   10ad4:	7320746f          	jal	s0,18206 <.LBB1_58+0x46>
   10ad8:	7075                	.2byte	0x7075
   10ada:	6f70                	.2byte	0x6f70
   10adc:	7472                	.2byte	0x7472
   10ade:	6465                	.2byte	0x6465
   10ae0:	5000                	.2byte	0x5000
   10ae2:	6f72                	.2byte	0x6f72
   10ae4:	6f74                	.2byte	0x6f74
   10ae6:	206c6f63          	bltu	s8,t1,10d04 <errmsg+0x77c>
   10aea:	6166                	.2byte	0x6166
   10aec:	696d                	.2byte	0x696d
   10aee:	796c                	.2byte	0x796c
   10af0:	6e20                	.2byte	0x6e20
   10af2:	7320746f          	jal	s0,18224 <.LBB1_60+0x4>
   10af6:	7075                	.2byte	0x7075
   10af8:	6f70                	.2byte	0x6f70
   10afa:	7472                	.2byte	0x7472
   10afc:	6465                	.2byte	0x6465
   10afe:	4100                	.2byte	0x4100
   10b00:	6464                	.2byte	0x6464
   10b02:	6572                	.2byte	0x6572
   10b04:	66207373          	csrrci	t1,0x662,0
   10b08:	6d61                	.2byte	0x6d61
   10b0a:	6c69                	.2byte	0x6c69
   10b0c:	2079                	.2byte	0x2079
   10b0e:	6f6e                	.2byte	0x6f6e
   10b10:	2074                	.2byte	0x2074
   10b12:	70707573          	csrrci	a0,0x707,0
   10b16:	6574726f          	jal	tp,5896c <__global_pointer$+0x3daa4>
   10b1a:	2064                	.2byte	0x2064
   10b1c:	7962                	.2byte	0x7962
   10b1e:	7020                	.2byte	0x7020
   10b20:	6f72                	.2byte	0x6f72
   10b22:	6f74                	.2byte	0x6f74
   10b24:	006c6f63          	bltu	s8,t1,10b42 <errmsg+0x5ba>
   10b28:	6441                	.2byte	0x6441
   10b2a:	7264                	.2byte	0x7264
   10b2c:	7365                	.2byte	0x7365
   10b2e:	6f6e2073          	csrs	0x6f6,t3
   10b32:	2074                	.2byte	0x2074
   10b34:	7661                	.2byte	0x7661
   10b36:	6961                	.2byte	0x6961
   10b38:	616c                	.2byte	0x616c
   10b3a:	6c62                	.2byte	0x6c62
   10b3c:	0065                	.2byte	0x65
   10b3e:	654e                	.2byte	0x654e
   10b40:	7774                	.2byte	0x7774
   10b42:	206b726f          	jal	tp,c7d48 <__global_pointer$+0xace80>
   10b46:	7369                	.2byte	0x7369
   10b48:	6420                	.2byte	0x6420
   10b4a:	006e776f          	jal	a4,f7b50 <__global_pointer$+0xdcc88>
   10b4e:	654e                	.2byte	0x654e
   10b50:	7774                	.2byte	0x7774
   10b52:	206b726f          	jal	tp,c7d58 <__global_pointer$+0xace90>
   10b56:	6e75                	.2byte	0x6e75
   10b58:	6572                	.2byte	0x6572
   10b5a:	6361                	.2byte	0x6361
   10b5c:	6168                	.2byte	0x6168
   10b5e:	6c62                	.2byte	0x6c62
   10b60:	0065                	.2byte	0x65
   10b62:	6e6e6f43          	.4byte	0x6e6e6f43
   10b66:	6365                	.2byte	0x6365
   10b68:	6974                	.2byte	0x6974
   10b6a:	72206e6f          	jal	t3,1728c <wideMultiply+0x278>
   10b6e:	7365                	.2byte	0x7365
   10b70:	7465                	.2byte	0x7465
   10b72:	6220                	.2byte	0x6220
   10b74:	2079                	.2byte	0x2079
   10b76:	656e                	.2byte	0x656e
   10b78:	7774                	.2byte	0x7774
   10b7a:	006b726f          	jal	tp,c7b80 <__global_pointer$+0xaccb8>
   10b7e:	6e6e6f43          	.4byte	0x6e6e6f43
   10b82:	6365                	.2byte	0x6365
   10b84:	6974                	.2byte	0x6974
   10b86:	61206e6f          	jal	t3,17198 <wideMultiply+0x184>
   10b8a:	6f62                	.2byte	0x6f62
   10b8c:	7472                	.2byte	0x7472
   10b8e:	6465                	.2byte	0x6465
   10b90:	4e00                	.2byte	0x4e00
   10b92:	7562206f          	j	332e8 <__global_pointer$+0x18420>
   10b96:	6666                	.2byte	0x6666
   10b98:	7265                	.2byte	0x7265
   10b9a:	7320                	.2byte	0x7320
   10b9c:	6170                	.2byte	0x6170
   10b9e:	61206563          	bltu	zero,s2,111a8 <errmsg+0xc20>
   10ba2:	6176                	.2byte	0x6176
   10ba4:	6c69                	.2byte	0x6c69
   10ba6:	6261                	.2byte	0x6261
   10ba8:	656c                	.2byte	0x656c
   10baa:	5300                	.2byte	0x5300
   10bac:	656b636f          	jal	t1,c7202 <__global_pointer$+0xac33a>
   10bb0:	2074                	.2byte	0x2074
   10bb2:	7369                	.2byte	0x7369
   10bb4:	6320                	.2byte	0x6320
   10bb6:	656e6e6f          	jal	t3,f720c <__global_pointer$+0xdc344>
   10bba:	64657463          	bgeu	a0,t1,11202 <errmsg+0xc7a>
   10bbe:	5300                	.2byte	0x5300
   10bc0:	656b636f          	jal	t1,c7216 <__global_pointer$+0xac34e>
   10bc4:	2074                	.2byte	0x2074
   10bc6:	6f6e                	.2byte	0x6f6e
   10bc8:	2074                	.2byte	0x2074
   10bca:	6e6e6f63          	bltu	t3,t1,112c8 <errmsg+0xd40>
   10bce:	6365                	.2byte	0x6365
   10bd0:	6574                	.2byte	0x6574
   10bd2:	0064                	.2byte	0x64
   10bd4:	6e6e6143          	.4byte	0x6e6e6143
   10bd8:	7320746f          	jal	s0,1830a <.LBB1_63+0x4a>
   10bdc:	6e65                	.2byte	0x6e65
   10bde:	2064                	.2byte	0x2064
   10be0:	6661                	.2byte	0x6661
   10be2:	6574                	.2byte	0x6574
   10be4:	2072                	.2byte	0x2072
   10be6:	6b636f73          	csrrsi	t5,0x6b6,6
   10bea:	7465                	.2byte	0x7465
   10bec:	7320                	.2byte	0x7320
   10bee:	7568                	.2byte	0x7568
   10bf0:	6474                	.2byte	0x6474
   10bf2:	006e776f          	jal	a4,f7bf8 <__global_pointer$+0xdcd30>
   10bf6:	7265704f          	.4byte	0x7265704f
   10bfa:	7461                	.2byte	0x7461
   10bfc:	6f69                	.2byte	0x6f69
   10bfe:	206e                	.2byte	0x206e
   10c00:	6c61                	.2byte	0x6c61
   10c02:	6572                	.2byte	0x6572
   10c04:	6461                	.2byte	0x6461
   10c06:	2079                	.2byte	0x2079
   10c08:	6e69                	.2byte	0x6e69
   10c0a:	7020                	.2byte	0x7020
   10c0c:	6f72                	.2byte	0x6f72
   10c0e:	73657267          	.4byte	0x73657267
   10c12:	704f0073          	.4byte	0x704f0073
   10c16:	7265                	.2byte	0x7265
   10c18:	7461                	.2byte	0x7461
   10c1a:	6f69                	.2byte	0x6f69
   10c1c:	206e                	.2byte	0x206e
   10c1e:	6e69                	.2byte	0x6e69
   10c20:	7020                	.2byte	0x7020
   10c22:	6f72                	.2byte	0x6f72
   10c24:	73657267          	.4byte	0x73657267
   10c28:	74530073          	.4byte	0x74530073
   10c2c:	6c61                	.2byte	0x6c61
   10c2e:	2065                	.2byte	0x2065
   10c30:	6966                	.2byte	0x6966
   10c32:	656c                	.2byte	0x656c
   10c34:	6820                	.2byte	0x6820
   10c36:	6e61                	.2byte	0x6e61
   10c38:	6c64                	.2byte	0x6c64
   10c3a:	0065                	.2byte	0x65
   10c3c:	6552                	.2byte	0x6552
   10c3e:	6f6d                	.2byte	0x6f6d
   10c40:	6574                	.2byte	0x6574
   10c42:	4920                	.2byte	0x4920
   10c44:	65204f2f          	.4byte	0x65204f2f
   10c48:	7272                	.2byte	0x7272
   10c4a:	5100726f          	jal	tp,1815a <.LBB1_53+0x2e>
   10c4e:	6f75                	.2byte	0x6f75
   10c50:	6174                	.2byte	0x6174
   10c52:	6520                	.2byte	0x6520
   10c54:	6378                	.2byte	0x6378
   10c56:	6565                	.2byte	0x6565
   10c58:	6564                	.2byte	0x6564
   10c5a:	0064                	.2byte	0x64
   10c5c:	6f4e                	.2byte	0x6f4e
   10c5e:	6d20                	.2byte	0x6d20
   10c60:	6465                	.2byte	0x6465
   10c62:	7569                	.2byte	0x7569
   10c64:	206d                	.2byte	0x206d
   10c66:	6f66                	.2byte	0x6f66
   10c68:	6e75                	.2byte	0x6e75
   10c6a:	0064                	.2byte	0x64
   10c6c:	6e6f7257          	.4byte	0x6e6f7257
   10c70:	656d2067          	.4byte	0x656d2067
   10c74:	6964                	.2byte	0x6964
   10c76:	6d75                	.2byte	0x6d75
   10c78:	7420                	.2byte	0x7420
   10c7a:	7079                	.2byte	0x7079
   10c7c:	0065                	.2byte	0x65
   10c7e:	754d                	.2byte	0x754d
   10c80:	746c                	.2byte	0x746c
   10c82:	6869                	.2byte	0x6869
   10c84:	6120706f          	j	18296 <.LBB1_60+0x76>
   10c88:	7474                	.2byte	0x7474
   10c8a:	6d65                	.2byte	0x6d65
   10c8c:	7470                	.2byte	0x7470
   10c8e:	6465                	.2byte	0x6465
   10c90:	4e00                	.2byte	0x4e00
   10c92:	7265206f          	j	633b8 <__global_pointer$+0x484f0>
   10c96:	6f72                	.2byte	0x6f72
   10c98:	2072                	.2byte	0x2072
   10c9a:	6e69                	.2byte	0x6e69
   10c9c:	6f66                	.2byte	0x6f66
   10c9e:	6d72                	.2byte	0x6d72
   10ca0:	7461                	.2byte	0x7461
   10ca2:	6f69                	.2byte	0x6f69
   10ca4:	006e                	.2byte	0x6e
   10ca6:	0000                	.2byte	0x0
   10ca8:	33333333          	.4byte	0x33333333
   10cac:	33333333          	.4byte	0x33333333
   10cb0:	0f0f0f0f          	.4byte	0xf0f0f0f
   10cb4:	0f0f0f0f          	.4byte	0xf0f0f0f
   10cb8:	0101                	.2byte	0x101
   10cba:	0101                	.2byte	0x101
   10cbc:	0101                	.2byte	0x101
   10cbe:	0101                	.2byte	0x101
   10cc0:	5555                	.2byte	0x5555
   10cc2:	5555                	.2byte	0x5555
   10cc4:	5555                	.2byte	0x5555
   10cc6:	5555                	.2byte	0x5555

Disassembly of section .text:

0000000000011cc8 <_start>:
   11cc8:	00009197          	auipc	gp,0x9
   11ccc:	20018193          	addi	gp,gp,512 # 1aec8 <__global_pointer$>
   11cd0:	00010513          	mv	a0,sp

0000000000011cd4 <.Lpcrel_hi1>:
   11cd4:	fffee597          	auipc	a1,0xfffee
   11cd8:	32c58593          	addi	a1,a1,812 # 0 <.Lline_table_start0>
   11cdc:	ff017113          	andi	sp,sp,-16
   11ce0:	0040006f          	j	11ce4 <_start_c>

0000000000011ce4 <_start_c>:
   11ce4:	00052583          	lw	a1,0(a0)
   11ce8:	00850613          	addi	a2,a0,8
   11cec:	00013537          	lui	a0,0x13
   11cf0:	8f850513          	addi	a0,a0,-1800 # 128f8 <main>
   11cf4:	000126b7          	lui	a3,0x12
   11cf8:	d0c68693          	addi	a3,a3,-756 # 11d0c <_init>
   11cfc:	00012737          	lui	a4,0x12
   11d00:	2f870713          	addi	a4,a4,760 # 122f8 <_fini>
   11d04:	00000793          	li	a5,0
   11d08:	2280006f          	j	11f30 <__libc_start_main>

0000000000011d0c <_init>:
   11d0c:	00008067          	ret

0000000000011d10 <__init_ssp>:
   11d10:	00008067          	ret

0000000000011d14 <__init_libc>:
   11d14:	e9010113          	addi	sp,sp,-368
   11d18:	16113423          	sd	ra,360(sp)
   11d1c:	16813023          	sd	s0,352(sp)
   11d20:	14913c23          	sd	s1,344(sp)
   11d24:	00058413          	mv	s0,a1
   11d28:	00050493          	mv	s1,a0
   11d2c:	02810513          	addi	a0,sp,40
   11d30:	13000613          	li	a2,304
   11d34:	00000593          	li	a1,0
   11d38:	265000ef          	jal	ra,1279c <memset>
   11d3c:	0001a537          	lui	a0,0x1a
   11d40:	7c953c23          	sd	s1,2008(a0) # 1a7d8 <__environ>

0000000000011d44 <.LBB2_1>:
   11d44:	0004b503          	ld	a0,0(s1)
   11d48:	00848493          	addi	s1,s1,8
   11d4c:	fe051ce3          	bnez	a0,11d44 <.LBB2_1>
   11d50:	0001b537          	lui	a0,0x1b
   11d54:	9c953423          	sd	s1,-1592(a0) # 1a9c8 <__libc+0x10>
   11d58:	0004b583          	ld	a1,0(s1)
   11d5c:	04058863          	beqz	a1,11dac <.LBB2_9>
   11d60:	01048493          	addi	s1,s1,16
   11d64:	02500513          	li	a0,37
   11d68:	02810613          	addi	a2,sp,40

0000000000011d6c <.LBB2_4>:
   11d6c:	00b56a63          	bltu	a0,a1,11d80 <.LBB2_6>
   11d70:	ff84b683          	ld	a3,-8(s1)
   11d74:	00359593          	slli	a1,a1,0x3
   11d78:	00b605b3          	add	a1,a2,a1
   11d7c:	00d5b023          	sd	a3,0(a1)

0000000000011d80 <.LBB2_6>:
   11d80:	0004b583          	ld	a1,0(s1)
   11d84:	01048493          	addi	s1,s1,16
   11d88:	fe0592e3          	bnez	a1,11d6c <.LBB2_4>
   11d8c:	0a813583          	ld	a1,168(sp)
   11d90:	12813503          	ld	a0,296(sp)
   11d94:	0001b637          	lui	a2,0x1b
   11d98:	80b63023          	sd	a1,-2048(a2) # 1a800 <__hwcap>
   11d9c:	00050c63          	beqz	a0,11db4 <.LBB2_10>
   11da0:	0001a5b7          	lui	a1,0x1a
   11da4:	7ea5b423          	sd	a0,2024(a1) # 1a7e8 <__sysinfo>
   11da8:	00c0006f          	j	11db4 <.LBB2_10>

0000000000011dac <.LBB2_9>:
   11dac:	0001b537          	lui	a0,0x1b
   11db0:	80053023          	sd	zero,-2048(a0) # 1a800 <__hwcap>

0000000000011db4 <.LBB2_10>:
   11db4:	05813503          	ld	a0,88(sp)
   11db8:	0001b5b7          	lui	a1,0x1b
   11dbc:	9ea5b823          	sd	a0,-1552(a1) # 1a9f0 <__libc+0x38>
   11dc0:	00041463          	bnez	s0,11dc8 <.LBB2_12>
   11dc4:	12013403          	ld	s0,288(sp)

0000000000011dc8 <.LBB2_12>:
   11dc8:	00041663          	bnez	s0,11dd4 <.LBB2_14>
   11dcc:	00010537          	lui	a0,0x10
   11dd0:	18950413          	addi	s0,a0,393 # 10189 <.Lline_table_start0+0x10189>

0000000000011dd4 <.LBB2_14>:
   11dd4:	0001a537          	lui	a0,0x1a
   11dd8:	7e853c23          	sd	s0,2040(a0) # 1a7f8 <__progname_full>
   11ddc:	0001a537          	lui	a0,0x1a
   11de0:	7e853823          	sd	s0,2032(a0) # 1a7f0 <__progname>
   11de4:	00140413          	addi	s0,s0,1
   11de8:	02f00593          	li	a1,47

0000000000011dec <.LBB2_15>:
   11dec:	fff44603          	lbu	a2,-1(s0)
   11df0:	00b60663          	beq	a2,a1,11dfc <.LBB2_17>
   11df4:	00061663          	bnez	a2,11e00 <.LBB2_18>
   11df8:	0100006f          	j	11e08 <.LBB2_19>

0000000000011dfc <.LBB2_17>:
   11dfc:	7e853823          	sd	s0,2032(a0)

0000000000011e00 <.LBB2_18>:
   11e00:	00140413          	addi	s0,s0,1
   11e04:	fe9ff06f          	j	11dec <.LBB2_15>

0000000000011e08 <.LBB2_19>:
   11e08:	02810513          	addi	a0,sp,40
   11e0c:	334000ef          	jal	ra,12140 <__init_tls>
   11e10:	0f013503          	ld	a0,240(sp)
   11e14:	efdff0ef          	jal	ra,11d10 <__init_ssp>
   11e18:	08013503          	ld	a0,128(sp)
   11e1c:	08813583          	ld	a1,136(sp)
   11e20:	00b51e63          	bne	a0,a1,11e3c <.LBB2_21>
   11e24:	09013503          	ld	a0,144(sp)
   11e28:	09813583          	ld	a1,152(sp)
   11e2c:	0e013603          	ld	a2,224(sp)
   11e30:	00b54533          	xor	a0,a0,a1
   11e34:	00c56533          	or	a0,a0,a2
   11e38:	08050c63          	beqz	a0,11ed0 <.LBB2_29>

0000000000011e3c <.LBB2_21>:
   11e3c:	00200513          	li	a0,2
   11e40:	02a13023          	sd	a0,32(sp)
   11e44:	00100513          	li	a0,1
   11e48:	00a13c23          	sd	a0,24(sp)
   11e4c:	00013823          	sd	zero,16(sp)
   11e50:	00013023          	sd	zero,0(sp)
   11e54:	00013423          	sd	zero,8(sp)
   11e58:	04900893          	li	a7,73
   11e5c:	01010513          	addi	a0,sp,16
   11e60:	00300593          	li	a1,3
   11e64:	00010613          	mv	a2,sp
   11e68:	00800713          	li	a4,8
   11e6c:	00000693          	li	a3,0
   11e70:	00000073          	ecall
   11e74:	02051513          	slli	a0,a0,0x20
   11e78:	00300693          	li	a3,3
   11e7c:	00055463          	bgez	a0,11e84 <.LBB2_23>
   11e80:	00000023          	sb	zero,0(zero) # 0 <.Lline_table_start0>

0000000000011e84 <.LBB2_23>:
   11e84:	01610713          	addi	a4,sp,22
   11e88:	00010537          	lui	a0,0x10
   11e8c:	1f950593          	addi	a1,a0,505 # 101f9 <.Lline_table_start0+0x101f9>
   11e90:	00008637          	lui	a2,0x8
   11e94:	0026061b          	addiw	a2,a2,2 # 8002 <.Lline_table_start0+0x8002>
   11e98:	03800893          	li	a7,56

0000000000011e9c <.LBB2_24>:
   11e9c:	00074503          	lbu	a0,0(a4)
   11ea0:	02057513          	andi	a0,a0,32
   11ea4:	00050a63          	beqz	a0,11eb8 <.LBB2_27>
   11ea8:	f9c00513          	li	a0,-100
   11eac:	00000073          	ecall
   11eb0:	00055463          	bgez	a0,11eb8 <.LBB2_27>
   11eb4:	00000023          	sb	zero,0(zero) # 0 <.Lline_table_start0>

0000000000011eb8 <.LBB2_27>:
   11eb8:	fff68693          	addi	a3,a3,-1
   11ebc:	00870713          	addi	a4,a4,8
   11ec0:	fc069ee3          	bnez	a3,11e9c <.LBB2_24>
   11ec4:	0001b537          	lui	a0,0x1b
   11ec8:	00100593          	li	a1,1
   11ecc:	9cb52023          	sw	a1,-1600(a0) # 1a9c0 <__libc+0x8>

0000000000011ed0 <.LBB2_29>:
   11ed0:	16813083          	ld	ra,360(sp)
   11ed4:	16013403          	ld	s0,352(sp)
   11ed8:	15813483          	ld	s1,344(sp)
   11edc:	17010113          	addi	sp,sp,368
   11ee0:	00008067          	ret

0000000000011ee4 <__libc_start_init>:
   11ee4:	fe010113          	addi	sp,sp,-32
   11ee8:	00113c23          	sd	ra,24(sp)
   11eec:	00813823          	sd	s0,16(sp)
   11ef0:	00913423          	sd	s1,8(sp)
   11ef4:	e19ff0ef          	jal	ra,11d0c <_init>
   11ef8:	00012537          	lui	a0,0x12
   11efc:	cc850413          	addi	s0,a0,-824 # 11cc8 <_start>
   11f00:	00012537          	lui	a0,0x12
   11f04:	cc850493          	addi	s1,a0,-824 # 11cc8 <_start>
   11f08:	0084fa63          	bgeu	s1,s0,11f1c <.LBB3_2>

0000000000011f0c <.LBB3_1>:
   11f0c:	0004b503          	ld	a0,0(s1)
   11f10:	000500e7          	jalr	a0
   11f14:	00848493          	addi	s1,s1,8
   11f18:	fe84eae3          	bltu	s1,s0,11f0c <.LBB3_1>

0000000000011f1c <.LBB3_2>:
   11f1c:	01813083          	ld	ra,24(sp)
   11f20:	01013403          	ld	s0,16(sp)
   11f24:	00813483          	ld	s1,8(sp)
   11f28:	02010113          	addi	sp,sp,32
   11f2c:	00008067          	ret

0000000000011f30 <__libc_start_main>:
   11f30:	fe010113          	addi	sp,sp,-32
   11f34:	00113c23          	sd	ra,24(sp)
   11f38:	00813823          	sd	s0,16(sp)
   11f3c:	00913423          	sd	s1,8(sp)
   11f40:	01213023          	sd	s2,0(sp)
   11f44:	00060413          	mv	s0,a2
   11f48:	00058493          	mv	s1,a1
   11f4c:	00050913          	mv	s2,a0
   11f50:	00063583          	ld	a1,0(a2)
   11f54:	00349513          	slli	a0,s1,0x3
   11f58:	00a60533          	add	a0,a2,a0
   11f5c:	00850513          	addi	a0,a0,8
   11f60:	db5ff0ef          	jal	ra,11d14 <__init_libc>
   11f64:	00012537          	lui	a0,0x12
   11f68:	f9050313          	addi	t1,a0,-112 # 11f90 <libc_start_main_stage2>
   11f6c:	00090513          	mv	a0,s2
   11f70:	00048593          	mv	a1,s1
   11f74:	00040613          	mv	a2,s0
   11f78:	01813083          	ld	ra,24(sp)
   11f7c:	01013403          	ld	s0,16(sp)
   11f80:	00813483          	ld	s1,8(sp)
   11f84:	00013903          	ld	s2,0(sp)
   11f88:	02010113          	addi	sp,sp,32
   11f8c:	00030067          	jr	t1

0000000000011f90 <libc_start_main_stage2>:
   11f90:	fd010113          	addi	sp,sp,-48
   11f94:	02113423          	sd	ra,40(sp)
   11f98:	02813023          	sd	s0,32(sp)
   11f9c:	00913c23          	sd	s1,24(sp)
   11fa0:	01213823          	sd	s2,16(sp)
   11fa4:	01313423          	sd	s3,8(sp)
   11fa8:	00060413          	mv	s0,a2
   11fac:	00058493          	mv	s1,a1
   11fb0:	00050913          	mv	s2,a0
   11fb4:	00359513          	slli	a0,a1,0x3
   11fb8:	00a60533          	add	a0,a2,a0
   11fbc:	00850993          	addi	s3,a0,8
   11fc0:	f25ff0ef          	jal	ra,11ee4 <__libc_start_init>
   11fc4:	00048513          	mv	a0,s1
   11fc8:	00040593          	mv	a1,s0
   11fcc:	00098613          	mv	a2,s3
   11fd0:	000900e7          	jalr	s2
   11fd4:	374000ef          	jal	ra,12348 <exit>

0000000000011fd8 <__init_tp>:
   11fd8:	ff010113          	addi	sp,sp,-16
   11fdc:	00113423          	sd	ra,8(sp)
   11fe0:	00813023          	sd	s0,0(sp)
   11fe4:	00050413          	mv	s0,a0
   11fe8:	00a53023          	sd	a0,0(a0)
   11fec:	0e050513          	addi	a0,a0,224
   11ff0:	0d9000ef          	jal	ra,128c8 <__set_thread_area>
   11ff4:	06054063          	bltz	a0,12054 <.LBB0_4>
   11ff8:	00051863          	bnez	a0,12008 <.LBB0_3>
   11ffc:	0001b537          	lui	a0,0x1b
   12000:	00100593          	li	a1,1
   12004:	9ab52c23          	sw	a1,-1608(a0) # 1a9b8 <__libc>

0000000000012008 <.LBB0_3>:
   12008:	00100513          	li	a0,1
   1200c:	04a42023          	sw	a0,64(s0)
   12010:	0001a537          	lui	a0,0x1a
   12014:	7e050513          	addi	a0,a0,2016 # 1a7e0 <__thread_list_lock>
   12018:	06000893          	li	a7,96
   1201c:	00000073          	ecall
   12020:	02a42c23          	sw	a0,56(s0)
   12024:	0001b537          	lui	a0,0x1b
   12028:	9f850513          	addi	a0,a0,-1544 # 1a9f8 <__libc+0x40>
   1202c:	0aa43823          	sd	a0,176(s0)
   12030:	09040513          	addi	a0,s0,144
   12034:	08a43823          	sd	a0,144(s0)
   12038:	0001a537          	lui	a0,0x1a
   1203c:	7e853583          	ld	a1,2024(a0) # 1a7e8 <__sysinfo>
   12040:	00000513          	li	a0,0
   12044:	02b43023          	sd	a1,32(s0)
   12048:	00843823          	sd	s0,16(s0)
   1204c:	00843c23          	sd	s0,24(s0)
   12050:	0080006f          	j	12058 <.LBB0_5>

0000000000012054 <.LBB0_4>:
   12054:	fff00513          	li	a0,-1

0000000000012058 <.LBB0_5>:
   12058:	00813083          	ld	ra,8(sp)
   1205c:	00013403          	ld	s0,0(sp)
   12060:	01010113          	addi	sp,sp,16
   12064:	00008067          	ret

0000000000012068 <__copy_tls>:
   12068:	fd010113          	addi	sp,sp,-48
   1206c:	02113423          	sd	ra,40(sp)
   12070:	02813023          	sd	s0,32(sp)
   12074:	00913c23          	sd	s1,24(sp)
   12078:	01213823          	sd	s2,16(sp)
   1207c:	01313423          	sd	s3,8(sp)
   12080:	01413023          	sd	s4,0(sp)
   12084:	0001b5b7          	lui	a1,0x1b
   12088:	9b858693          	addi	a3,a1,-1608 # 1a9b8 <__libc>
   1208c:	0206b603          	ld	a2,32(a3)
   12090:	0306b583          	ld	a1,48(a3)
   12094:	00c504b3          	add	s1,a0,a2
   12098:	fff5c713          	not	a4,a1
   1209c:	00371713          	slli	a4,a4,0x3
   120a0:	00e484b3          	add	s1,s1,a4
   120a4:	0286b703          	ld	a4,40(a3)
   120a8:	f2000793          	li	a5,-224
   120ac:	0186b903          	ld	s2,24(a3)
   120b0:	40a787b3          	sub	a5,a5,a0
   120b4:	fff70713          	addi	a4,a4,-1
   120b8:	00f77733          	and	a4,a4,a5
   120bc:	00e50433          	add	s0,a0,a4
   120c0:	04090863          	beqz	s2,12110 <.LBB1_4>
   120c4:	0e040993          	addi	s3,s0,224
   120c8:	00359593          	slli	a1,a1,0x3
   120cc:	00c50533          	add	a0,a0,a2
   120d0:	40b50a33          	sub	s4,a0,a1

00000000000120d4 <.LBB1_2>:
   120d4:	02893503          	ld	a0,40(s2)
   120d8:	00a98533          	add	a0,s3,a0
   120dc:	7ff50513          	addi	a0,a0,2047
   120e0:	00150513          	addi	a0,a0,1
   120e4:	00aa3023          	sd	a0,0(s4)
   120e8:	02893503          	ld	a0,40(s2)
   120ec:	00893583          	ld	a1,8(s2)
   120f0:	01093603          	ld	a2,16(s2)
   120f4:	00a98533          	add	a0,s3,a0
   120f8:	290000ef          	jal	ra,12388 <memcpy>
   120fc:	00093903          	ld	s2,0(s2)
   12100:	008a0a13          	addi	s4,s4,8
   12104:	fc0918e3          	bnez	s2,120d4 <.LBB1_2>
   12108:	0001b537          	lui	a0,0x1b
   1210c:	9e853583          	ld	a1,-1560(a0) # 1a9e8 <__libc+0x30>

0000000000012110 <.LBB1_4>:
   12110:	00b4b023          	sd	a1,0(s1)
   12114:	0c943c23          	sd	s1,216(s0)
   12118:	00943423          	sd	s1,8(s0)
   1211c:	00040513          	mv	a0,s0
   12120:	02813083          	ld	ra,40(sp)
   12124:	02013403          	ld	s0,32(sp)
   12128:	01813483          	ld	s1,24(sp)
   1212c:	01013903          	ld	s2,16(sp)
   12130:	00813983          	ld	s3,8(sp)
   12134:	00013a03          	ld	s4,0(sp)
   12138:	03010113          	addi	sp,sp,48
   1213c:	00008067          	ret

0000000000012140 <__init_tls>:
   12140:	ff010113          	addi	sp,sp,-16
   12144:	00113423          	sd	ra,8(sp)
   12148:	02853583          	ld	a1,40(a0)
   1214c:	0e058a63          	beqz	a1,12240 <.LBB2_17>
   12150:	00000613          	li	a2,0
   12154:	00000e93          	li	t4,0
   12158:	01853683          	ld	a3,24(a0)
   1215c:	0001a737          	lui	a4,0x1a
   12160:	6c872e03          	lw	t3,1736(a4) # 1a6c8 <__default_stacksize>
   12164:	02053503          	ld	a0,32(a0)
   12168:	00600793          	li	a5,6
   1216c:	00000837          	lui	a6,0x0
   12170:	00080813          	mv	a6,a6
   12174:	00183893          	seqz	a7,a6
   12178:	00700293          	li	t0,7
   1217c:	6474e337          	lui	t1,0x6474e
   12180:	5513031b          	addiw	t1,t1,1361 # 6474e551 <__global_pointer$+0x64733689>
   12184:	00068393          	mv	t2,a3

0000000000012188 <.LBB2_2>:
   12188:	0003af83          	lw	t6,0(t2)
   1218c:	00ff9863          	bne	t6,a5,1219c <.LBB2_4>
   12190:	0103b603          	ld	a2,16(t2)
   12194:	40c68633          	sub	a2,a3,a2
   12198:	0580006f          	j	121f0 <.LBB2_14>

000000000001219c <.LBB2_4>:
   1219c:	ffef8f13          	addi	t5,t6,-2
   121a0:	01e03f33          	snez	t5,t5
   121a4:	011f6f33          	or	t5,t5,a7
   121a8:	040f0063          	beqz	t5,121e8 <.LBB2_13>
   121ac:	00038f13          	mv	t5,t2
   121b0:	005f8463          	beq	t6,t0,121b8 <.LBB2_7>
   121b4:	000e8f13          	mv	t5,t4

00000000000121b8 <.LBB2_7>:
   121b8:	026f9463          	bne	t6,t1,121e0 <.LBB2_12>
   121bc:	0283be83          	ld	t4,40(t2)
   121c0:	020e1f93          	slli	t6,t3,0x20
   121c4:	020fdf93          	srli	t6,t6,0x20
   121c8:	01dffc63          	bgeu	t6,t4,121e0 <.LBB2_12>
   121cc:	00800e37          	lui	t3,0x800
   121d0:	01cee463          	bltu	t4,t3,121d8 <.LBB2_11>
   121d4:	00800eb7          	lui	t4,0x800

00000000000121d8 <.LBB2_11>:
   121d8:	6dd72423          	sw	t4,1736(a4)
   121dc:	000e8e13          	mv	t3,t4

00000000000121e0 <.LBB2_12>:
   121e0:	000f0e93          	mv	t4,t5
   121e4:	00c0006f          	j	121f0 <.LBB2_14>

00000000000121e8 <.LBB2_13>:
   121e8:	0103b603          	ld	a2,16(t2)
   121ec:	40c80633          	sub	a2,a6,a2

00000000000121f0 <.LBB2_14>:
   121f0:	fff58593          	addi	a1,a1,-1
   121f4:	00a383b3          	add	t2,t2,a0
   121f8:	f80598e3          	bnez	a1,12188 <.LBB2_2>
   121fc:	040e8263          	beqz	t4,12240 <.LBB2_17>
   12200:	010eb503          	ld	a0,16(t4) # 800010 <__global_pointer$+0x7e5148>
   12204:	00c50633          	add	a2,a0,a2
   12208:	0001b537          	lui	a0,0x1b
   1220c:	82050693          	addi	a3,a0,-2016 # 1a820 <main_tls>
   12210:	00c6b423          	sd	a2,8(a3)
   12214:	020eb503          	ld	a0,32(t4)
   12218:	00a6b823          	sd	a0,16(a3)
   1221c:	030eb503          	ld	a0,48(t4)
   12220:	028eb583          	ld	a1,40(t4)
   12224:	02a6b023          	sd	a0,32(a3)
   12228:	0001b737          	lui	a4,0x1b
   1222c:	9b870713          	addi	a4,a4,-1608 # 1a9b8 <__libc>
   12230:	00100793          	li	a5,1
   12234:	02f73823          	sd	a5,48(a4)
   12238:	00d73c23          	sd	a3,24(a4)
   1223c:	0180006f          	j	12254 <.LBB2_18>

0000000000012240 <.LBB2_17>:
   12240:	0001b537          	lui	a0,0x1b
   12244:	82050613          	addi	a2,a0,-2016 # 1a820 <main_tls>
   12248:	02063503          	ld	a0,32(a2)
   1224c:	01863583          	ld	a1,24(a2)
   12250:	00863603          	ld	a2,8(a2)

0000000000012254 <.LBB2_18>:
   12254:	40c006b3          	neg	a3,a2
   12258:	40b686b3          	sub	a3,a3,a1
   1225c:	fff50713          	addi	a4,a0,-1
   12260:	00d776b3          	and	a3,a4,a3
   12264:	00b685b3          	add	a1,a3,a1
   12268:	0001b6b7          	lui	a3,0x1b
   1226c:	82068693          	addi	a3,a3,-2016 # 1a820 <main_tls>
   12270:	00b6bc23          	sd	a1,24(a3)
   12274:	00c77633          	and	a2,a4,a2
   12278:	00700713          	li	a4,7
   1227c:	02c6b423          	sd	a2,40(a3)
   12280:	00a76663          	bltu	a4,a0,1228c <.LBB2_20>
   12284:	00800513          	li	a0,8
   12288:	02a6b023          	sd	a0,32(a3)

000000000001228c <.LBB2_20>:
   1228c:	0001b6b7          	lui	a3,0x1b
   12290:	9b868693          	addi	a3,a3,-1608 # 1a9b8 <__libc>
   12294:	02a6b423          	sd	a0,40(a3)
   12298:	00b605b3          	add	a1,a2,a1
   1229c:	00a58533          	add	a0,a1,a0
   122a0:	0f750593          	addi	a1,a0,247
   122a4:	ff85f593          	andi	a1,a1,-8
   122a8:	16900513          	li	a0,361
   122ac:	02b6b023          	sd	a1,32(a3)
   122b0:	02a5e263          	bltu	a1,a0,122d4 <.LBB2_22>
   122b4:	0de00893          	li	a7,222
   122b8:	00300613          	li	a2,3
   122bc:	02200693          	li	a3,34
   122c0:	fff00713          	li	a4,-1
   122c4:	00000513          	li	a0,0
   122c8:	00000793          	li	a5,0
   122cc:	00000073          	ecall
   122d0:	00c0006f          	j	122dc <.LBB2_23>

00000000000122d4 <.LBB2_22>:
   122d4:	0001b537          	lui	a0,0x1b
   122d8:	85050513          	addi	a0,a0,-1968 # 1a850 <builtin_tls>

00000000000122dc <.LBB2_23>:
   122dc:	d8dff0ef          	jal	ra,12068 <__copy_tls>
   122e0:	cf9ff0ef          	jal	ra,11fd8 <__init_tp>
   122e4:	00055463          	bgez	a0,122ec <.LBB2_25>
   122e8:	00000023          	sb	zero,0(zero) # 0 <.Lline_table_start0>

00000000000122ec <.LBB2_25>:
   122ec:	00813083          	ld	ra,8(sp)
   122f0:	01010113          	addi	sp,sp,16
   122f4:	00008067          	ret

00000000000122f8 <_fini>:
   122f8:	00008067          	ret

00000000000122fc <__libc_exit_fini>:
   122fc:	fe010113          	addi	sp,sp,-32
   12300:	00113c23          	sd	ra,24(sp)
   12304:	00813823          	sd	s0,16(sp)
   12308:	00913423          	sd	s1,8(sp)
   1230c:	00012537          	lui	a0,0x12
   12310:	cc850513          	addi	a0,a0,-824 # 11cc8 <_start>
   12314:	000125b7          	lui	a1,0x12
   12318:	cc858413          	addi	s0,a1,-824 # 11cc8 <_start>
   1231c:	00a47c63          	bgeu	s0,a0,12334 <.LBB1_2>

0000000000012320 <.LBB1_1>:
   12320:	ff853583          	ld	a1,-8(a0)
   12324:	ff850493          	addi	s1,a0,-8
   12328:	000580e7          	jalr	a1
   1232c:	00048513          	mv	a0,s1
   12330:	fe9468e3          	bltu	s0,s1,12320 <.LBB1_1>

0000000000012334 <.LBB1_2>:
   12334:	01813083          	ld	ra,24(sp)
   12338:	01013403          	ld	s0,16(sp)
   1233c:	00813483          	ld	s1,8(sp)
   12340:	02010113          	addi	sp,sp,32
   12344:	fb5ff06f          	j	122f8 <_fini>

0000000000012348 <exit>:
   12348:	ff010113          	addi	sp,sp,-16
   1234c:	00113423          	sd	ra,8(sp)
   12350:	00813023          	sd	s0,0(sp)
   12354:	00050413          	mv	s0,a0
   12358:	fa1ff0ef          	jal	ra,122f8 <_fini>
   1235c:	fa1ff0ef          	jal	ra,122fc <__libc_exit_fini>
   12360:	4a1020ef          	jal	ra,15000 <__stdio_exit>
   12364:	00040513          	mv	a0,s0
   12368:	004000ef          	jal	ra,1236c <_Exit>

000000000001236c <_Exit>:
   1236c:	00050593          	mv	a1,a0
   12370:	05e00893          	li	a7,94
   12374:	00000073          	ecall
   12378:	05d00893          	li	a7,93

000000000001237c <.LBB0_1>:
   1237c:	00058513          	mv	a0,a1
   12380:	00000073          	ecall
   12384:	ff9ff06f          	j	1237c <.LBB0_1>

0000000000012388 <memcpy>:
   12388:	0035f693          	andi	a3,a1,3
   1238c:	0016b693          	seqz	a3,a3
   12390:	00163713          	seqz	a4,a2
   12394:	00e6e6b3          	or	a3,a3,a4
   12398:	10069063          	bnez	a3,12498 <.LBB0_11>
   1239c:	00158793          	addi	a5,a1,1
   123a0:	00050813          	mv	a6,a0

00000000000123a4 <.LBB0_2>:
   123a4:	00058883          	lb	a7,0(a1)
   123a8:	00158713          	addi	a4,a1,1
   123ac:	00180693          	addi	a3,a6,1 # 1 <.Lline_table_start0+0x1>
   123b0:	01180023          	sb	a7,0(a6)
   123b4:	fff60613          	addi	a2,a2,-1
   123b8:	0037f593          	andi	a1,a5,3
   123bc:	00b035b3          	snez	a1,a1
   123c0:	00c03833          	snez	a6,a2
   123c4:	0105f8b3          	and	a7,a1,a6
   123c8:	00178793          	addi	a5,a5,1
   123cc:	00070593          	mv	a1,a4
   123d0:	00068813          	mv	a6,a3
   123d4:	fc0898e3          	bnez	a7,123a4 <.LBB0_2>
   123d8:	0036f593          	andi	a1,a3,3
   123dc:	0c058663          	beqz	a1,124a8 <.LBB0_12>

00000000000123e0 <.LBB0_4>:
   123e0:	02000793          	li	a5,32
   123e4:	1af66c63          	bltu	a2,a5,1259c <.LBB0_22>
   123e8:	00300793          	li	a5,3
   123ec:	12f58a63          	beq	a1,a5,12520 <.LBB0_19>
   123f0:	00200793          	li	a5,2
   123f4:	22f58863          	beq	a1,a5,12624 <.LBB0_31>
   123f8:	00100793          	li	a5,1
   123fc:	1af59063          	bne	a1,a5,1259c <.LBB0_22>
   12400:	00072783          	lw	a5,0(a4)
   12404:	00f68023          	sb	a5,0(a3)
   12408:	0087d593          	srli	a1,a5,0x8
   1240c:	00b680a3          	sb	a1,1(a3)
   12410:	0107d593          	srli	a1,a5,0x10
   12414:	00b68123          	sb	a1,2(a3)
   12418:	00368693          	addi	a3,a3,3
   1241c:	ffd60613          	addi	a2,a2,-3
   12420:	01070713          	addi	a4,a4,16
   12424:	01000593          	li	a1,16

0000000000012428 <.LBB0_9>:
   12428:	ff472803          	lw	a6,-12(a4)
   1242c:	0187d79b          	srliw	a5,a5,0x18
   12430:	00881893          	slli	a7,a6,0x8
   12434:	ff872283          	lw	t0,-8(a4)
   12438:	00f8e7b3          	or	a5,a7,a5
   1243c:	00f6a023          	sw	a5,0(a3)
   12440:	0188579b          	srliw	a5,a6,0x18
   12444:	00829813          	slli	a6,t0,0x8
   12448:	ffc72883          	lw	a7,-4(a4)
   1244c:	00f867b3          	or	a5,a6,a5
   12450:	00f6a223          	sw	a5,4(a3)
   12454:	0182d81b          	srliw	a6,t0,0x18
   12458:	00889293          	slli	t0,a7,0x8
   1245c:	00072783          	lw	a5,0(a4)
   12460:	0102e833          	or	a6,t0,a6
   12464:	0106a423          	sw	a6,8(a3)
   12468:	0188d81b          	srliw	a6,a7,0x18
   1246c:	00879893          	slli	a7,a5,0x8
   12470:	0108e833          	or	a6,a7,a6
   12474:	0106a623          	sw	a6,12(a3)
   12478:	01068693          	addi	a3,a3,16
   1247c:	ff060613          	addi	a2,a2,-16
   12480:	01070713          	addi	a4,a4,16
   12484:	fac5e2e3          	bltu	a1,a2,12428 <.LBB0_9>
   12488:	ff370713          	addi	a4,a4,-13
   1248c:	01067593          	andi	a1,a2,16
   12490:	10058a63          	beqz	a1,125a4 <.LBB0_23>
   12494:	21c0006f          	j	126b0 <.LBB0_34>

0000000000012498 <.LBB0_11>:
   12498:	00050693          	mv	a3,a0
   1249c:	00058713          	mv	a4,a1
   124a0:	0036f593          	andi	a1,a3,3
   124a4:	f2059ee3          	bnez	a1,123e0 <.LBB0_4>

00000000000124a8 <.LBB0_12>:
   124a8:	01000593          	li	a1,16
   124ac:	02b66c63          	bltu	a2,a1,124e4 <.LBB0_15>
   124b0:	00f00593          	li	a1,15

00000000000124b4 <.LBB0_14>:
   124b4:	00072783          	lw	a5,0(a4)
   124b8:	00472803          	lw	a6,4(a4)
   124bc:	00872883          	lw	a7,8(a4)
   124c0:	00c72283          	lw	t0,12(a4)
   124c4:	00f6a023          	sw	a5,0(a3)
   124c8:	0106a223          	sw	a6,4(a3)
   124cc:	0116a423          	sw	a7,8(a3)
   124d0:	0056a623          	sw	t0,12(a3)
   124d4:	01070713          	addi	a4,a4,16
   124d8:	ff060613          	addi	a2,a2,-16
   124dc:	01068693          	addi	a3,a3,16
   124e0:	fcc5eae3          	bltu	a1,a2,124b4 <.LBB0_14>

00000000000124e4 <.LBB0_15>:
   124e4:	00800593          	li	a1,8
   124e8:	00b66e63          	bltu	a2,a1,12504 <.LBB0_17>
   124ec:	00072583          	lw	a1,0(a4)
   124f0:	00472783          	lw	a5,4(a4)
   124f4:	00b6a023          	sw	a1,0(a3)
   124f8:	00f6a223          	sw	a5,4(a3)
   124fc:	00868693          	addi	a3,a3,8
   12500:	00870713          	addi	a4,a4,8

0000000000012504 <.LBB0_17>:
   12504:	00467593          	andi	a1,a2,4
   12508:	0c058c63          	beqz	a1,125e0 <.LBB0_26>
   1250c:	00072583          	lw	a1,0(a4)
   12510:	00b6a023          	sw	a1,0(a3)
   12514:	00468693          	addi	a3,a3,4
   12518:	00470713          	addi	a4,a4,4
   1251c:	0c40006f          	j	125e0 <.LBB0_26>

0000000000012520 <.LBB0_19>:
   12520:	00072783          	lw	a5,0(a4)
   12524:	00f68023          	sb	a5,0(a3)
   12528:	00168693          	addi	a3,a3,1
   1252c:	fff60613          	addi	a2,a2,-1
   12530:	01070713          	addi	a4,a4,16
   12534:	01200593          	li	a1,18

0000000000012538 <.LBB0_20>:
   12538:	ff472803          	lw	a6,-12(a4)
   1253c:	0087d79b          	srliw	a5,a5,0x8
   12540:	01881893          	slli	a7,a6,0x18
   12544:	ff872283          	lw	t0,-8(a4)
   12548:	00f8e7b3          	or	a5,a7,a5
   1254c:	00f6a023          	sw	a5,0(a3)
   12550:	0088579b          	srliw	a5,a6,0x8
   12554:	01829813          	slli	a6,t0,0x18
   12558:	ffc72883          	lw	a7,-4(a4)
   1255c:	00f867b3          	or	a5,a6,a5
   12560:	00f6a223          	sw	a5,4(a3)
   12564:	0082d81b          	srliw	a6,t0,0x8
   12568:	01889293          	slli	t0,a7,0x18
   1256c:	00072783          	lw	a5,0(a4)
   12570:	0102e833          	or	a6,t0,a6
   12574:	0106a423          	sw	a6,8(a3)
   12578:	0088d81b          	srliw	a6,a7,0x8
   1257c:	01879893          	slli	a7,a5,0x18
   12580:	0108e833          	or	a6,a7,a6
   12584:	0106a623          	sw	a6,12(a3)
   12588:	01068693          	addi	a3,a3,16
   1258c:	ff060613          	addi	a2,a2,-16
   12590:	01070713          	addi	a4,a4,16
   12594:	fac5e2e3          	bltu	a1,a2,12538 <.LBB0_20>
   12598:	ff170713          	addi	a4,a4,-15

000000000001259c <.LBB0_22>:
   1259c:	01067593          	andi	a1,a2,16
   125a0:	10059863          	bnez	a1,126b0 <.LBB0_34>

00000000000125a4 <.LBB0_23>:
   125a4:	00867593          	andi	a1,a2,8
   125a8:	18059e63          	bnez	a1,12744 <.LBB0_35>

00000000000125ac <.LBB0_24>:
   125ac:	00467593          	andi	a1,a2,4
   125b0:	02058863          	beqz	a1,125e0 <.LBB0_26>

00000000000125b4 <.LBB0_25>:
   125b4:	00070583          	lb	a1,0(a4)
   125b8:	00170783          	lb	a5,1(a4)
   125bc:	00270803          	lb	a6,2(a4)
   125c0:	00b68023          	sb	a1,0(a3)
   125c4:	00f680a3          	sb	a5,1(a3)
   125c8:	00370583          	lb	a1,3(a4)
   125cc:	01068123          	sb	a6,2(a3)
   125d0:	00470713          	addi	a4,a4,4
   125d4:	00468793          	addi	a5,a3,4
   125d8:	00b681a3          	sb	a1,3(a3)
   125dc:	00078693          	mv	a3,a5

00000000000125e0 <.LBB0_26>:
   125e0:	00267593          	andi	a1,a2,2
   125e4:	00059863          	bnez	a1,125f4 <.LBB0_29>
   125e8:	00167613          	andi	a2,a2,1
   125ec:	02061663          	bnez	a2,12618 <.LBB0_30>

00000000000125f0 <.LBB0_28>:
   125f0:	00008067          	ret

00000000000125f4 <.LBB0_29>:
   125f4:	00070583          	lb	a1,0(a4)
   125f8:	00170783          	lb	a5,1(a4)
   125fc:	00b68023          	sb	a1,0(a3)
   12600:	00270713          	addi	a4,a4,2
   12604:	00268593          	addi	a1,a3,2
   12608:	00f680a3          	sb	a5,1(a3)
   1260c:	00058693          	mv	a3,a1
   12610:	00167613          	andi	a2,a2,1
   12614:	fc060ee3          	beqz	a2,125f0 <.LBB0_28>

0000000000012618 <.LBB0_30>:
   12618:	00070583          	lb	a1,0(a4)
   1261c:	00b68023          	sb	a1,0(a3)
   12620:	00008067          	ret

0000000000012624 <.LBB0_31>:
   12624:	00072783          	lw	a5,0(a4)
   12628:	00f68023          	sb	a5,0(a3)
   1262c:	0087d593          	srli	a1,a5,0x8
   12630:	00b680a3          	sb	a1,1(a3)
   12634:	00268693          	addi	a3,a3,2
   12638:	ffe60613          	addi	a2,a2,-2
   1263c:	01070713          	addi	a4,a4,16
   12640:	01100593          	li	a1,17

0000000000012644 <.LBB0_32>:
   12644:	ff472803          	lw	a6,-12(a4)
   12648:	0107d79b          	srliw	a5,a5,0x10
   1264c:	01081893          	slli	a7,a6,0x10
   12650:	ff872283          	lw	t0,-8(a4)
   12654:	00f8e7b3          	or	a5,a7,a5
   12658:	00f6a023          	sw	a5,0(a3)
   1265c:	0108579b          	srliw	a5,a6,0x10
   12660:	01029813          	slli	a6,t0,0x10
   12664:	ffc72883          	lw	a7,-4(a4)
   12668:	00f867b3          	or	a5,a6,a5
   1266c:	00f6a223          	sw	a5,4(a3)
   12670:	0102d81b          	srliw	a6,t0,0x10
   12674:	01089293          	slli	t0,a7,0x10
   12678:	00072783          	lw	a5,0(a4)
   1267c:	0102e833          	or	a6,t0,a6
   12680:	0106a423          	sw	a6,8(a3)
   12684:	0108d81b          	srliw	a6,a7,0x10
   12688:	01079893          	slli	a7,a5,0x10
   1268c:	0108e833          	or	a6,a7,a6
   12690:	0106a623          	sw	a6,12(a3)
   12694:	01068693          	addi	a3,a3,16
   12698:	ff060613          	addi	a2,a2,-16
   1269c:	01070713          	addi	a4,a4,16
   126a0:	fac5e2e3          	bltu	a1,a2,12644 <.LBB0_32>
   126a4:	ff270713          	addi	a4,a4,-14
   126a8:	01067593          	andi	a1,a2,16
   126ac:	ee058ce3          	beqz	a1,125a4 <.LBB0_23>

00000000000126b0 <.LBB0_34>:
   126b0:	00070583          	lb	a1,0(a4)
   126b4:	00170783          	lb	a5,1(a4)
   126b8:	00270803          	lb	a6,2(a4)
   126bc:	00b68023          	sb	a1,0(a3)
   126c0:	00f680a3          	sb	a5,1(a3)
   126c4:	00370583          	lb	a1,3(a4)
   126c8:	01068123          	sb	a6,2(a3)
   126cc:	00470783          	lb	a5,4(a4)
   126d0:	00570803          	lb	a6,5(a4)
   126d4:	00b681a3          	sb	a1,3(a3)
   126d8:	00670583          	lb	a1,6(a4)
   126dc:	00f68223          	sb	a5,4(a3)
   126e0:	010682a3          	sb	a6,5(a3)
   126e4:	00770783          	lb	a5,7(a4)
   126e8:	00b68323          	sb	a1,6(a3)
   126ec:	00870583          	lb	a1,8(a4)
   126f0:	00970803          	lb	a6,9(a4)
   126f4:	00f683a3          	sb	a5,7(a3)
   126f8:	00a70783          	lb	a5,10(a4)
   126fc:	00b68423          	sb	a1,8(a3)
   12700:	010684a3          	sb	a6,9(a3)
   12704:	00b70583          	lb	a1,11(a4)
   12708:	00f68523          	sb	a5,10(a3)
   1270c:	00c70783          	lb	a5,12(a4)
   12710:	00d70803          	lb	a6,13(a4)
   12714:	00b685a3          	sb	a1,11(a3)
   12718:	00e70583          	lb	a1,14(a4)
   1271c:	00f68623          	sb	a5,12(a3)
   12720:	010686a3          	sb	a6,13(a3)
   12724:	00f70783          	lb	a5,15(a4)
   12728:	00b68723          	sb	a1,14(a3)
   1272c:	01070713          	addi	a4,a4,16
   12730:	01068593          	addi	a1,a3,16
   12734:	00f687a3          	sb	a5,15(a3)
   12738:	00058693          	mv	a3,a1
   1273c:	00867593          	andi	a1,a2,8
   12740:	e60586e3          	beqz	a1,125ac <.LBB0_24>

0000000000012744 <.LBB0_35>:
   12744:	00070583          	lb	a1,0(a4)
   12748:	00170783          	lb	a5,1(a4)
   1274c:	00270803          	lb	a6,2(a4)
   12750:	00b68023          	sb	a1,0(a3)
   12754:	00f680a3          	sb	a5,1(a3)
   12758:	00370583          	lb	a1,3(a4)
   1275c:	01068123          	sb	a6,2(a3)
   12760:	00470783          	lb	a5,4(a4)
   12764:	00570803          	lb	a6,5(a4)
   12768:	00b681a3          	sb	a1,3(a3)
   1276c:	00670583          	lb	a1,6(a4)
   12770:	00f68223          	sb	a5,4(a3)
   12774:	010682a3          	sb	a6,5(a3)
   12778:	00770783          	lb	a5,7(a4)
   1277c:	00b68323          	sb	a1,6(a3)
   12780:	00870713          	addi	a4,a4,8
   12784:	00868593          	addi	a1,a3,8
   12788:	00f683a3          	sb	a5,7(a3)
   1278c:	00058693          	mv	a3,a1
   12790:	00467593          	andi	a1,a2,4
   12794:	e20590e3          	bnez	a1,125b4 <.LBB0_25>
   12798:	e49ff06f          	j	125e0 <.LBB0_26>

000000000001279c <memset>:
   1279c:	fd010113          	addi	sp,sp,-48
   127a0:	02113423          	sd	ra,40(sp)
   127a4:	02813023          	sd	s0,32(sp)
   127a8:	00913c23          	sd	s1,24(sp)
   127ac:	01213823          	sd	s2,16(sp)
   127b0:	01313423          	sd	s3,8(sp)
   127b4:	00050413          	mv	s0,a0
   127b8:	0e060863          	beqz	a2,128a8 <.LBB0_9>
   127bc:	00b40023          	sb	a1,0(s0)
   127c0:	00860533          	add	a0,a2,s0
   127c4:	00300693          	li	a3,3
   127c8:	feb50fa3          	sb	a1,-1(a0)
   127cc:	0cd66e63          	bltu	a2,a3,128a8 <.LBB0_9>
   127d0:	00b400a3          	sb	a1,1(s0)
   127d4:	00b40123          	sb	a1,2(s0)
   127d8:	feb50f23          	sb	a1,-2(a0)
   127dc:	00700693          	li	a3,7
   127e0:	feb50ea3          	sb	a1,-3(a0)
   127e4:	0cd66263          	bltu	a2,a3,128a8 <.LBB0_9>
   127e8:	00b401a3          	sb	a1,3(s0)
   127ec:	00900993          	li	s3,9
   127f0:	feb50e23          	sb	a1,-4(a0)
   127f4:	0b366a63          	bltu	a2,s3,128a8 <.LBB0_9>
   127f8:	4080053b          	negw	a0,s0
   127fc:	00357513          	andi	a0,a0,3
   12800:	00a404b3          	add	s1,s0,a0
   12804:	40a60633          	sub	a2,a2,a0
   12808:	ffc67913          	andi	s2,a2,-4
   1280c:	0ff5f513          	zext.b	a0,a1
   12810:	010105b7          	lui	a1,0x1010
   12814:	1015859b          	addiw	a1,a1,257 # 1010101 <__global_pointer$+0xff5239>
   12818:	0bc000ef          	jal	ra,128d4 <__muldi3>
   1281c:	00a4a023          	sw	a0,0(s1)
   12820:	012485b3          	add	a1,s1,s2
   12824:	fea5ae23          	sw	a0,-4(a1)
   12828:	09396063          	bltu	s2,s3,128a8 <.LBB0_9>
   1282c:	00a4a223          	sw	a0,4(s1)
   12830:	00a4a423          	sw	a0,8(s1)
   12834:	fea5aa23          	sw	a0,-12(a1)
   12838:	01900613          	li	a2,25
   1283c:	fea5ac23          	sw	a0,-8(a1)
   12840:	06c96463          	bltu	s2,a2,128a8 <.LBB0_9>
   12844:	00a4a623          	sw	a0,12(s1)
   12848:	00a4a823          	sw	a0,16(s1)
   1284c:	00a4aa23          	sw	a0,20(s1)
   12850:	00a4ac23          	sw	a0,24(s1)
   12854:	fea5a223          	sw	a0,-28(a1)
   12858:	fea5a423          	sw	a0,-24(a1)
   1285c:	fea5a623          	sw	a0,-20(a1)
   12860:	0044f693          	andi	a3,s1,4
   12864:	01868693          	addi	a3,a3,24
   12868:	40d90633          	sub	a2,s2,a3
   1286c:	02000713          	li	a4,32
   12870:	fea5a823          	sw	a0,-16(a1)
   12874:	02e66a63          	bltu	a2,a4,128a8 <.LBB0_9>
   12878:	02051513          	slli	a0,a0,0x20
   1287c:	02055593          	srli	a1,a0,0x20
   12880:	00b56533          	or	a0,a0,a1
   12884:	00d484b3          	add	s1,s1,a3
   12888:	01f00593          	li	a1,31

000000000001288c <.LBB0_8>:
   1288c:	00a4b023          	sd	a0,0(s1)
   12890:	00a4b423          	sd	a0,8(s1)
   12894:	00a4b823          	sd	a0,16(s1)
   12898:	00a4bc23          	sd	a0,24(s1)
   1289c:	fe060613          	addi	a2,a2,-32
   128a0:	02048493          	addi	s1,s1,32
   128a4:	fec5e4e3          	bltu	a1,a2,1288c <.LBB0_8>

00000000000128a8 <.LBB0_9>:
   128a8:	00040513          	mv	a0,s0
   128ac:	02813083          	ld	ra,40(sp)
   128b0:	02013403          	ld	s0,32(sp)
   128b4:	01813483          	ld	s1,24(sp)
   128b8:	01013903          	ld	s2,16(sp)
   128bc:	00813983          	ld	s3,8(sp)
   128c0:	03010113          	addi	sp,sp,48
   128c4:	00008067          	ret

00000000000128c8 <__set_thread_area>:
   128c8:	00050213          	mv	tp,a0
   128cc:	00000513          	li	a0,0
   128d0:	00008067          	ret

00000000000128d4 <__muldi3>:
   128d4:	00050613          	mv	a2,a0
   128d8:	00000513          	li	a0,0

00000000000128dc <.L1>:
   128dc:	0015f693          	andi	a3,a1,1
   128e0:	00068463          	beqz	a3,128e8 <.L2>
   128e4:	00c50533          	add	a0,a0,a2

00000000000128e8 <.L2>:
   128e8:	0015d593          	srli	a1,a1,0x1
   128ec:	00161613          	slli	a2,a2,0x1
   128f0:	fe0596e3          	bnez	a1,128dc <.L1>
   128f4:	00008067          	ret

00000000000128f8 <main>:
   128f8:	e7010113          	addi	sp,sp,-400
   128fc:	18113423          	sd	ra,392(sp)
   12900:	00010513          	mv	a0,sp
   12904:	074000ef          	jal	ra,12978 <uname>
   12908:	00010537          	lui	a0,0x10
   1290c:	1c750513          	addi	a0,a0,455 # 101c7 <.Lline_table_start0+0x101c7>
   12910:	00010593          	mv	a1,sp
   12914:	0cc000ef          	jal	ra,129e0 <printf>
   12918:	04110593          	addi	a1,sp,65
   1291c:	00010537          	lui	a0,0x10
   12920:	15850513          	addi	a0,a0,344 # 10158 <.Lline_table_start0+0x10158>
   12924:	0bc000ef          	jal	ra,129e0 <printf>
   12928:	08210593          	addi	a1,sp,130
   1292c:	00010537          	lui	a0,0x10
   12930:	17250513          	addi	a0,a0,370 # 10172 <.Lline_table_start0+0x10172>
   12934:	0ac000ef          	jal	ra,129e0 <printf>
   12938:	0c310593          	addi	a1,sp,195
   1293c:	00010537          	lui	a0,0x10
   12940:	1a150513          	addi	a0,a0,417 # 101a1 <.Lline_table_start0+0x101a1>
   12944:	09c000ef          	jal	ra,129e0 <printf>
   12948:	10410593          	addi	a1,sp,260
   1294c:	00010537          	lui	a0,0x10
   12950:	18e50513          	addi	a0,a0,398 # 1018e <.Lline_table_start0+0x1018e>
   12954:	08c000ef          	jal	ra,129e0 <printf>
   12958:	14510593          	addi	a1,sp,325
   1295c:	00010537          	lui	a0,0x10
   12960:	1b450513          	addi	a0,a0,436 # 101b4 <.Lline_table_start0+0x101b4>
   12964:	07c000ef          	jal	ra,129e0 <printf>
   12968:	00000513          	li	a0,0
   1296c:	18813083          	ld	ra,392(sp)
   12970:	19010113          	addi	sp,sp,400
   12974:	00008067          	ret

0000000000012978 <uname>:
   12978:	ff010113          	addi	sp,sp,-16
   1297c:	00113423          	sd	ra,8(sp)
   12980:	0a000893          	li	a7,160
   12984:	00000073          	ecall
   12988:	014000ef          	jal	ra,1299c <__syscall_ret>
   1298c:	0005051b          	sext.w	a0,a0
   12990:	00813083          	ld	ra,8(sp)
   12994:	01010113          	addi	sp,sp,16
   12998:	00008067          	ret

000000000001299c <__syscall_ret>:
   1299c:	fffff5b7          	lui	a1,0xfffff
   129a0:	0015859b          	addiw	a1,a1,1 # fffffffffffff001 <__global_pointer$+0xfffffffffffe4139>
   129a4:	02b56663          	bltu	a0,a1,129d0 <.LBB0_2>
   129a8:	ff010113          	addi	sp,sp,-16
   129ac:	00113423          	sd	ra,8(sp)
   129b0:	00813023          	sd	s0,0(sp)
   129b4:	40a0043b          	negw	s0,a0
   129b8:	01c000ef          	jal	ra,129d4 <__errno_location>
   129bc:	00852023          	sw	s0,0(a0)
   129c0:	fff00513          	li	a0,-1
   129c4:	00813083          	ld	ra,8(sp)
   129c8:	00013403          	ld	s0,0(sp)
   129cc:	01010113          	addi	sp,sp,16

00000000000129d0 <.LBB0_2>:
   129d0:	00008067          	ret

00000000000129d4 <__errno_location>:
   129d4:	00020513          	mv	a0,tp
   129d8:	f5c50513          	addi	a0,a0,-164
   129dc:	00008067          	ret

00000000000129e0 <printf>:
   129e0:	fb010113          	addi	sp,sp,-80
   129e4:	00113423          	sd	ra,8(sp)
   129e8:	00050293          	mv	t0,a0
   129ec:	05113423          	sd	a7,72(sp)
   129f0:	05013023          	sd	a6,64(sp)
   129f4:	02f13c23          	sd	a5,56(sp)
   129f8:	02e13823          	sd	a4,48(sp)
   129fc:	02d13423          	sd	a3,40(sp)
   12a00:	02c13023          	sd	a2,32(sp)
   12a04:	00b13c23          	sd	a1,24(sp)
   12a08:	01810513          	addi	a0,sp,24
   12a0c:	00a13023          	sd	a0,0(sp)
   12a10:	0001a537          	lui	a0,0x1a
   12a14:	6f050513          	addi	a0,a0,1776 # 1a6f0 <__stdout_FILE>
   12a18:	01810613          	addi	a2,sp,24
   12a1c:	00028593          	mv	a1,t0
   12a20:	210000ef          	jal	ra,12c30 <vfprintf>
   12a24:	00813083          	ld	ra,8(sp)
   12a28:	05010113          	addi	sp,sp,80
   12a2c:	00008067          	ret

0000000000012a30 <__aio_close>:
   12a30:	00008067          	ret

0000000000012a34 <__stdio_close>:
   12a34:	ff010113          	addi	sp,sp,-16
   12a38:	00113423          	sd	ra,8(sp)
   12a3c:	07852503          	lw	a0,120(a0)
   12a40:	ff1ff0ef          	jal	ra,12a30 <__aio_close>
   12a44:	03900893          	li	a7,57
   12a48:	00000073          	ecall
   12a4c:	f51ff0ef          	jal	ra,1299c <__syscall_ret>
   12a50:	0005051b          	sext.w	a0,a0
   12a54:	00813083          	ld	ra,8(sp)
   12a58:	01010113          	addi	sp,sp,16
   12a5c:	00008067          	ret

0000000000012a60 <__stdout_write>:
   12a60:	ff010113          	addi	sp,sp,-16
   12a64:	00113423          	sd	ra,8(sp)
   12a68:	00050693          	mv	a3,a0
   12a6c:	00054503          	lbu	a0,0(a0)
   12a70:	00060713          	mv	a4,a2
   12a74:	00058793          	mv	a5,a1
   12a78:	000135b7          	lui	a1,0x13
   12a7c:	acc58593          	addi	a1,a1,-1332 # 12acc <__stdio_write>
   12a80:	04057513          	andi	a0,a0,64
   12a84:	04b6b423          	sd	a1,72(a3)
   12a88:	02051463          	bnez	a0,12ab0 <.LBB0_3>
   12a8c:	0786a503          	lw	a0,120(a3)
   12a90:	000055b7          	lui	a1,0x5
   12a94:	4135859b          	addiw	a1,a1,1043 # 5413 <.Lline_table_start0+0x5413>
   12a98:	01d00893          	li	a7,29
   12a9c:	00010613          	mv	a2,sp
   12aa0:	00000073          	ecall
   12aa4:	00050663          	beqz	a0,12ab0 <.LBB0_3>
   12aa8:	fff00513          	li	a0,-1
   12aac:	08a6a823          	sw	a0,144(a3)

0000000000012ab0 <.LBB0_3>:
   12ab0:	00068513          	mv	a0,a3
   12ab4:	00078593          	mv	a1,a5
   12ab8:	00070613          	mv	a2,a4
   12abc:	010000ef          	jal	ra,12acc <__stdio_write>
   12ac0:	00813083          	ld	ra,8(sp)
   12ac4:	01010113          	addi	sp,sp,16
   12ac8:	00008067          	ret

0000000000012acc <__stdio_write>:
   12acc:	fa010113          	addi	sp,sp,-96
   12ad0:	04113c23          	sd	ra,88(sp)
   12ad4:	04813823          	sd	s0,80(sp)
   12ad8:	04913423          	sd	s1,72(sp)
   12adc:	05213023          	sd	s2,64(sp)
   12ae0:	03313c23          	sd	s3,56(sp)
   12ae4:	03413823          	sd	s4,48(sp)
   12ae8:	03513423          	sd	s5,40(sp)
   12aec:	00050493          	mv	s1,a0
   12af0:	03853503          	ld	a0,56(a0)
   12af4:	00a13423          	sd	a0,8(sp)
   12af8:	0284b683          	ld	a3,40(s1)
   12afc:	00060413          	mv	s0,a2
   12b00:	40a686b3          	sub	a3,a3,a0
   12b04:	00d13823          	sd	a3,16(sp)
   12b08:	00b13c23          	sd	a1,24(sp)
   12b0c:	02c13023          	sd	a2,32(sp)
   12b10:	00c68a33          	add	s4,a3,a2
   12b14:	0784a503          	lw	a0,120(s1)
   12b18:	00810a93          	addi	s5,sp,8
   12b1c:	00200913          	li	s2,2
   12b20:	04200893          	li	a7,66
   12b24:	00810593          	addi	a1,sp,8
   12b28:	00200613          	li	a2,2
   12b2c:	00000073          	ecall
   12b30:	e6dff0ef          	jal	ra,1299c <__syscall_ret>
   12b34:	06aa0c63          	beq	s4,a0,12bac <.LBB0_5>

0000000000012b38 <.LBB0_1>:
   12b38:	0a054a63          	bltz	a0,12bec <.LBB0_7>
   12b3c:	008ab703          	ld	a4,8(s5)
   12b40:	00a73633          	sltu	a2,a4,a0
   12b44:	00461993          	slli	s3,a2,0x4
   12b48:	013a89b3          	add	s3,s5,s3
   12b4c:	0009b683          	ld	a3,0(s3)
   12b50:	40c005b3          	neg	a1,a2
   12b54:	00e5f5b3          	and	a1,a1,a4
   12b58:	40b505b3          	sub	a1,a0,a1
   12b5c:	00b686b3          	add	a3,a3,a1
   12b60:	00d9b023          	sd	a3,0(s3)
   12b64:	01800693          	li	a3,24
   12b68:	00a76463          	bltu	a4,a0,12b70 <.LBB0_4>
   12b6c:	00800693          	li	a3,8

0000000000012b70 <.LBB0_4>:
   12b70:	00da86b3          	add	a3,s5,a3
   12b74:	0006b703          	ld	a4,0(a3)
   12b78:	40b70733          	sub	a4,a4,a1
   12b7c:	00e6b023          	sd	a4,0(a3)
   12b80:	0784a583          	lw	a1,120(s1)
   12b84:	40aa0a33          	sub	s4,s4,a0
   12b88:	40c9093b          	subw	s2,s2,a2
   12b8c:	04200893          	li	a7,66
   12b90:	00058513          	mv	a0,a1
   12b94:	00098593          	mv	a1,s3
   12b98:	00090613          	mv	a2,s2
   12b9c:	00000073          	ecall
   12ba0:	dfdff0ef          	jal	ra,1299c <__syscall_ret>
   12ba4:	00098a93          	mv	s5,s3
   12ba8:	f8aa18e3          	bne	s4,a0,12b38 <.LBB0_1>

0000000000012bac <.LBB0_5>:
   12bac:	0584b503          	ld	a0,88(s1)
   12bb0:	0604b583          	ld	a1,96(s1)
   12bb4:	00b505b3          	add	a1,a0,a1
   12bb8:	02b4b023          	sd	a1,32(s1)
   12bbc:	02a4bc23          	sd	a0,56(s1)
   12bc0:	02a4b423          	sd	a0,40(s1)
   12bc4:	00040513          	mv	a0,s0

0000000000012bc8 <.LBB0_6>:
   12bc8:	05813083          	ld	ra,88(sp)
   12bcc:	05013403          	ld	s0,80(sp)
   12bd0:	04813483          	ld	s1,72(sp)
   12bd4:	04013903          	ld	s2,64(sp)
   12bd8:	03813983          	ld	s3,56(sp)
   12bdc:	03013a03          	ld	s4,48(sp)
   12be0:	02813a83          	ld	s5,40(sp)
   12be4:	06010113          	addi	sp,sp,96
   12be8:	00008067          	ret

0000000000012bec <.LBB0_7>:
   12bec:	0004a583          	lw	a1,0(s1)
   12bf0:	00000513          	li	a0,0
   12bf4:	0204b023          	sd	zero,32(s1)
   12bf8:	0204bc23          	sd	zero,56(s1)
   12bfc:	0205e593          	ori	a1,a1,32
   12c00:	00b4a023          	sw	a1,0(s1)
   12c04:	00200593          	li	a1,2
   12c08:	0204b423          	sd	zero,40(s1)
   12c0c:	fab90ee3          	beq	s2,a1,12bc8 <.LBB0_6>
   12c10:	008ab503          	ld	a0,8(s5)
   12c14:	40a40533          	sub	a0,s0,a0
   12c18:	fb1ff06f          	j	12bc8 <.LBB0_6>

0000000000012c1c <__stdio_seek>:
   12c1c:	07852503          	lw	a0,120(a0)
   12c20:	0040006f          	j	12c24 <lseek>

0000000000012c24 <lseek>:
   12c24:	03e00893          	li	a7,62
   12c28:	00000073          	ecall
   12c2c:	d71ff06f          	j	1299c <__syscall_ret>

0000000000012c30 <vfprintf>:
   12c30:	ea010113          	addi	sp,sp,-352
   12c34:	14113c23          	sd	ra,344(sp)
   12c38:	14813823          	sd	s0,336(sp)
   12c3c:	14913423          	sd	s1,328(sp)
   12c40:	15213023          	sd	s2,320(sp)
   12c44:	13313c23          	sd	s3,312(sp)
   12c48:	13413823          	sd	s4,304(sp)
   12c4c:	13513423          	sd	s5,296(sp)
   12c50:	00058913          	mv	s2,a1
   12c54:	00050413          	mv	s0,a0
   12c58:	12c13023          	sd	a2,288(sp)
   12c5c:	0f010513          	addi	a0,sp,240
   12c60:	02800613          	li	a2,40
   12c64:	00000593          	li	a1,0
   12c68:	b35ff0ef          	jal	ra,1279c <memset>
   12c6c:	12013503          	ld	a0,288(sp)
   12c70:	10a13c23          	sd	a0,280(sp)
   12c74:	11810613          	addi	a2,sp,280
   12c78:	05010693          	addi	a3,sp,80
   12c7c:	0f010713          	addi	a4,sp,240
   12c80:	00000513          	li	a0,0
   12c84:	00090593          	mv	a1,s2
   12c88:	134000ef          	jal	ra,12dbc <printf_core>
   12c8c:	00054e63          	bltz	a0,12ca8 <.LBB0_3>
   12c90:	08c42503          	lw	a0,140(s0)
   12c94:	00054e63          	bltz	a0,12cb0 <.LBB0_4>
   12c98:	00040513          	mv	a0,s0
   12c9c:	210020ef          	jal	ra,14eac <__lockfile>
   12ca0:	00050493          	mv	s1,a0
   12ca4:	0100006f          	j	12cb4 <.LBB0_5>

0000000000012ca8 <.LBB0_3>:
   12ca8:	fff00913          	li	s2,-1
   12cac:	0e80006f          	j	12d94 <.LBB0_16>

0000000000012cb0 <.LBB0_4>:
   12cb0:	00000493          	li	s1,0

0000000000012cb4 <.LBB0_5>:
   12cb4:	08842503          	lw	a0,136(s0)
   12cb8:	00046a03          	lwu	s4,0(s0)
   12cbc:	00a04663          	bgtz	a0,12cc8 <.LBB0_7>
   12cc0:	fdfa7513          	andi	a0,s4,-33
   12cc4:	00a42023          	sw	a0,0(s0)

0000000000012cc8 <.LBB0_7>:
   12cc8:	06043503          	ld	a0,96(s0)
   12ccc:	00050a63          	beqz	a0,12ce0 <.LBB0_9>
   12cd0:	02043503          	ld	a0,32(s0)
   12cd4:	00000a93          	li	s5,0
   12cd8:	02051c63          	bnez	a0,12d10 <.LBB0_11>
   12cdc:	0240006f          	j	12d00 <.LBB0_10>

0000000000012ce0 <.LBB0_9>:
   12ce0:	05843a83          	ld	s5,88(s0)
   12ce4:	00010513          	mv	a0,sp
   12ce8:	04a43c23          	sd	a0,88(s0)
   12cec:	05000513          	li	a0,80
   12cf0:	06a43023          	sd	a0,96(s0)
   12cf4:	02043023          	sd	zero,32(s0)
   12cf8:	02043c23          	sd	zero,56(s0)
   12cfc:	02043423          	sd	zero,40(s0)

0000000000012d00 <.LBB0_10>:
   12d00:	00040513          	mv	a0,s0
   12d04:	2a0020ef          	jal	ra,14fa4 <__towrite>
   12d08:	fff00993          	li	s3,-1
   12d0c:	02051063          	bnez	a0,12d2c <.LBB0_12>

0000000000012d10 <.LBB0_11>:
   12d10:	11810613          	addi	a2,sp,280
   12d14:	05010693          	addi	a3,sp,80
   12d18:	0f010713          	addi	a4,sp,240
   12d1c:	00040513          	mv	a0,s0
   12d20:	00090593          	mv	a1,s2
   12d24:	098000ef          	jal	ra,12dbc <printf_core>
   12d28:	00050993          	mv	s3,a0

0000000000012d2c <.LBB0_12>:
   12d2c:	020a7a13          	andi	s4,s4,32
   12d30:	020a8e63          	beqz	s5,12d6c <.LBB0_14>
   12d34:	04843683          	ld	a3,72(s0)
   12d38:	00040513          	mv	a0,s0
   12d3c:	00000593          	li	a1,0
   12d40:	00000613          	li	a2,0
   12d44:	000680e7          	jalr	a3
   12d48:	02843503          	ld	a0,40(s0)
   12d4c:	00a03533          	snez	a0,a0
   12d50:	fff50513          	addi	a0,a0,-1
   12d54:	013569b3          	or	s3,a0,s3
   12d58:	05543c23          	sd	s5,88(s0)
   12d5c:	06043023          	sd	zero,96(s0)
   12d60:	02043023          	sd	zero,32(s0)
   12d64:	02043c23          	sd	zero,56(s0)
   12d68:	02043423          	sd	zero,40(s0)

0000000000012d6c <.LBB0_14>:
   12d6c:	00042503          	lw	a0,0(s0)
   12d70:	02057593          	andi	a1,a0,32
   12d74:	0015b593          	seqz	a1,a1
   12d78:	fff58593          	addi	a1,a1,-1
   12d7c:	0135e933          	or	s2,a1,s3
   12d80:	01456533          	or	a0,a0,s4
   12d84:	00a42023          	sw	a0,0(s0)
   12d88:	00048663          	beqz	s1,12d94 <.LBB0_16>
   12d8c:	00040513          	mv	a0,s0
   12d90:	1c4020ef          	jal	ra,14f54 <__unlockfile>

0000000000012d94 <.LBB0_16>:
   12d94:	00090513          	mv	a0,s2
   12d98:	15813083          	ld	ra,344(sp)
   12d9c:	15013403          	ld	s0,336(sp)
   12da0:	14813483          	ld	s1,328(sp)
   12da4:	14013903          	ld	s2,320(sp)
   12da8:	13813983          	ld	s3,312(sp)
   12dac:	13013a03          	ld	s4,304(sp)
   12db0:	12813a83          	ld	s5,296(sp)
   12db4:	16010113          	addi	sp,sp,352
   12db8:	00008067          	ret

0000000000012dbc <printf_core>:
   12dbc:	81010113          	addi	sp,sp,-2032
   12dc0:	7e113423          	sd	ra,2024(sp)
   12dc4:	7e813023          	sd	s0,2016(sp)
   12dc8:	7c913c23          	sd	s1,2008(sp)
   12dcc:	7d213823          	sd	s2,2000(sp)
   12dd0:	7d313423          	sd	s3,1992(sp)
   12dd4:	7d413023          	sd	s4,1984(sp)
   12dd8:	7b513c23          	sd	s5,1976(sp)
   12ddc:	7b613823          	sd	s6,1968(sp)
   12de0:	7b713423          	sd	s7,1960(sp)
   12de4:	7b813023          	sd	s8,1952(sp)
   12de8:	79913c23          	sd	s9,1944(sp)
   12dec:	79a13823          	sd	s10,1936(sp)
   12df0:	79b13423          	sd	s11,1928(sp)
   12df4:	000017b7          	lui	a5,0x1
   12df8:	7707879b          	addiw	a5,a5,1904 # 1770 <.Lline_table_start0+0x1770>
   12dfc:	40f10133          	sub	sp,sp,a5
   12e00:	16e13023          	sd	a4,352(sp)
   12e04:	16d13423          	sd	a3,360(sp)
   12e08:	16c13823          	sd	a2,368(sp)
   12e0c:	00058d93          	mv	s11,a1
   12e10:	00050993          	mv	s3,a0
   12e14:	18013823          	sd	zero,400(sp)
   12e18:	00000a13          	li	s4,0
   12e1c:	00000a93          	li	s5,0
   12e20:	20710593          	addi	a1,sp,519
   12e24:	ffe00513          	li	a0,-2
   12e28:	40b50533          	sub	a0,a0,a1
   12e2c:	0ea13423          	sd	a0,232(sp)
   12e30:	ffff0537          	lui	a0,0xffff0
   12e34:	ffc5051b          	addiw	a0,a0,-4 # fffffffffffefffc <__global_pointer$+0xfffffffffffd5134>
   12e38:	23010593          	addi	a1,sp,560
   12e3c:	00a58533          	add	a0,a1,a0
   12e40:	0aa13023          	sd	a0,160(sp)
   12e44:	00013537          	lui	a0,0x13
   12e48:	8895051b          	addiw	a0,a0,-1911 # 12889 <memset+0xed>
   12e4c:	14a13c23          	sd	a0,344(sp)
   12e50:	0cccd537          	lui	a0,0xcccd
   12e54:	ccc5051b          	addiw	a0,a0,-820 # ccccccc <__global_pointer$+0xccb1e04>
   12e58:	18a13423          	sd	a0,392(sp)
   12e5c:	00010537          	lui	a0,0x10
   12e60:	38850513          	addi	a0,a0,904 # 10388 <states>
   12e64:	16a13c23          	sd	a0,376(sp)
   12e68:	0401b537          	lui	a0,0x401b
   12e6c:	02451513          	slli	a0,a0,0x24
   12e70:	0ca13c23          	sd	a0,216(sp)
   12e74:	00010537          	lui	a0,0x10
   12e78:	55850513          	addi	a0,a0,1368 # 10558 <xdigits>
   12e7c:	14a13823          	sd	a0,336(sp)
   12e80:	04003537          	lui	a0,0x4003
   12e84:	02451513          	slli	a0,a0,0x24
   12e88:	18a13023          	sd	a0,384(sp)
   12e8c:	00402537          	lui	a0,0x402
   12e90:	cdd5051b          	addiw	a0,a0,-803 # 401cdd <__global_pointer$+0x3e6e15>
   12e94:	00c51513          	slli	a0,a0,0xc
   12e98:	d6550513          	addi	a0,a0,-667
   12e9c:	01c51513          	slli	a0,a0,0x1c
   12ea0:	0ea13c23          	sd	a0,248(sp)
   12ea4:	40700513          	li	a0,1031
   12ea8:	03451513          	slli	a0,a0,0x34
   12eac:	0aa13c23          	sd	a0,184(sp)
   12eb0:	07fff537          	lui	a0,0x7fff
   12eb4:	02351513          	slli	a0,a0,0x23
   12eb8:	0aa13823          	sd	a0,176(sp)
   12ebc:	03fff537          	lui	a0,0x3fff
   12ec0:	02451513          	slli	a0,a0,0x24
   12ec4:	0ca13023          	sd	a0,192(sp)
   12ec8:	01fff537          	lui	a0,0x1fff
   12ecc:	02551513          	slli	a0,a0,0x25
   12ed0:	0aa13423          	sd	a0,168(sp)
   12ed4:	ccccd537          	lui	a0,0xccccd
   12ed8:	ccd5051b          	addiw	a0,a0,-819 # ffffffffcccccccd <__global_pointer$+0xffffffffcccb1e05>
   12edc:	08a13c23          	sd	a0,152(sp)
   12ee0:	1999a537          	lui	a0,0x1999a
   12ee4:	9995051b          	addiw	a0,a0,-1639 # 19999999 <__global_pointer$+0x1997ead1>
   12ee8:	08a13823          	sd	a0,144(sp)
   12eec:	00010537          	lui	a0,0x10
   12ef0:	1f750513          	addi	a0,a0,503 # 101f7 <.Lline_table_start0+0x101f7>
   12ef4:	0ea13823          	sd	a0,240(sp)
   12ef8:	00010537          	lui	a0,0x10
   12efc:	18a50513          	addi	a0,a0,394 # 1018a <.Lline_table_start0+0x1018a>
   12f00:	10a13823          	sd	a0,272(sp)
   12f04:	00010537          	lui	a0,0x10
   12f08:	26050513          	addi	a0,a0,608 # 10260 <errid+0x59>
   12f0c:	12a13023          	sd	a0,288(sp)
   12f10:	00010537          	lui	a0,0x10
   12f14:	18550513          	addi	a0,a0,389 # 10185 <.Lline_table_start0+0x10185>
   12f18:	10a13423          	sd	a0,264(sp)
   12f1c:	00010537          	lui	a0,0x10
   12f20:	20350513          	addi	a0,a0,515 # 10203 <.Lline_table_start0+0x10203>
   12f24:	10a13c23          	sd	a0,280(sp)
   12f28:	00010537          	lui	a0,0x10
   12f2c:	28850513          	addi	a0,a0,648 # 10288 <.LJTI1_0>
   12f30:	14a13023          	sd	a0,320(sp)
   12f34:	00010537          	lui	a0,0x10
   12f38:	32050513          	addi	a0,a0,800 # 10320 <.LJTI1_1>
   12f3c:	0ca13423          	sd	a0,200(sp)
   12f40:	00010537          	lui	a0,0x10
   12f44:	16b50513          	addi	a0,a0,363 # 1016b <.Lline_table_start0+0x1016b>
   12f48:	0ca13823          	sd	a0,208(sp)
   12f4c:	80000437          	lui	s0,0x80000
   12f50:	fff4041b          	addiw	s0,s0,-1 # 7fffffff <__global_pointer$+0x7ffe5137>
   12f54:	40b00533          	neg	a0,a1
   12f58:	10a13023          	sd	a0,256(sp)
   12f5c:	00010537          	lui	a0,0x10
   12f60:	1e450513          	addi	a0,a0,484 # 101e4 <.Lline_table_start0+0x101e4>
   12f64:	12a13823          	sd	a0,304(sp)
   12f68:	00350513          	addi	a0,a0,3
   12f6c:	0ea13023          	sd	a0,224(sp)
   12f70:	fff00513          	li	a0,-1
   12f74:	03f51513          	slli	a0,a0,0x3f
   12f78:	12a13c23          	sd	a0,312(sp)
   12f7c:	3b9ad537          	lui	a0,0x3b9ad
   12f80:	a005051b          	addiw	a0,a0,-1536 # 3b9aca00 <__global_pointer$+0x3b991b38>
   12f84:	14a13423          	sd	a0,328(sp)
   12f88:	00010537          	lui	a0,0x10
   12f8c:	1da50513          	addi	a0,a0,474 # 101da <.Lline_table_start0+0x101da>
   12f90:	12a13423          	sd	a0,296(sp)
   12f94:	02500d13          	li	s10,37

0000000000012f98 <.LBB1_1>:
   12f98:	00900c93          	li	s9,9

0000000000012f9c <.LBB1_2>:
   12f9c:	4144053b          	subw	a0,s0,s4
   12fa0:	000a859b          	sext.w	a1,s5
   12fa4:	00b55463          	bge	a0,a1,12fac <.LBB1_3>
   12fa8:	4590106f          	j	14c00 <.LBB1_394>

0000000000012fac <.LBB1_3>:
   12fac:	000d8493          	mv	s1,s11
   12fb0:	000dc503          	lbu	a0,0(s11)
   12fb4:	014a8a3b          	addw	s4,s5,s4
   12fb8:	00051463          	bnez	a0,12fc0 <.LBB1_4>
   12fbc:	4a10106f          	j	14c5c <.LBB1_398>

0000000000012fc0 <.LBB1_4>:
   12fc0:	00048d93          	mv	s11,s1

0000000000012fc4 <.LBB1_5>:
   12fc4:	0ff57513          	zext.b	a0,a0
   12fc8:	00050a63          	beqz	a0,12fdc <.LBB1_8>
   12fcc:	01a50c63          	beq	a0,s10,12fe4 <.LBB1_9>
   12fd0:	001dc503          	lbu	a0,1(s11)
   12fd4:	001d8d93          	addi	s11,s11,1
   12fd8:	fedff06f          	j	12fc4 <.LBB1_5>

0000000000012fdc <.LBB1_8>:
   12fdc:	000d8513          	mv	a0,s11
   12fe0:	0300006f          	j	13010 <.LBB1_13>

0000000000012fe4 <.LBB1_9>:
   12fe4:	000d8513          	mv	a0,s11
   12fe8:	000d8593          	mv	a1,s11

0000000000012fec <.LBB1_10>:
   12fec:	0015c603          	lbu	a2,1(a1)
   12ff0:	01a61e63          	bne	a2,s10,1300c <.LBB1_12>
   12ff4:	0025c603          	lbu	a2,2(a1)
   12ff8:	00258d93          	addi	s11,a1,2
   12ffc:	00150513          	addi	a0,a0,1
   13000:	000d8593          	mv	a1,s11
   13004:	ffa604e3          	beq	a2,s10,12fec <.LBB1_10>
   13008:	0080006f          	j	13010 <.LBB1_13>

000000000001300c <.LBB1_12>:
   1300c:	00058d93          	mv	s11,a1

0000000000013010 <.LBB1_13>:
   13010:	40950ab3          	sub	s5,a0,s1
   13014:	41440bbb          	subw	s7,s0,s4
   13018:	020b9513          	slli	a0,s7,0x20
   1301c:	02055513          	srli	a0,a0,0x20
   13020:	01555463          	bge	a0,s5,13028 <.LBB1_14>
   13024:	3dd0106f          	j	14c00 <.LBB1_394>

0000000000013028 <.LBB1_14>:
   13028:	000a891b          	sext.w	s2,s5
   1302c:	02098063          	beqz	s3,1304c <.LBB1_17>
   13030:	0009c503          	lbu	a0,0(s3)
   13034:	02057513          	andi	a0,a0,32
   13038:	00051a63          	bnez	a0,1304c <.LBB1_17>
   1303c:	00048513          	mv	a0,s1
   13040:	00090593          	mv	a1,s2
   13044:	00098613          	mv	a2,s3
   13048:	1ec020ef          	jal	ra,15234 <__fwritex>

000000000001304c <.LBB1_17>:
   1304c:	f40918e3          	bnez	s2,12f9c <.LBB1_2>
   13050:	001dc503          	lbu	a0,1(s11)
   13054:	001d8b13          	addi	s6,s11,1
   13058:	fd050593          	addi	a1,a0,-48
   1305c:	fff00713          	li	a4,-1
   13060:	02bce263          	bltu	s9,a1,13084 <.LBB1_21>
   13064:	002dc603          	lbu	a2,2(s11)
   13068:	02400693          	li	a3,36
   1306c:	00d61c63          	bne	a2,a3,13084 <.LBB1_21>
   13070:	003dc503          	lbu	a0,3(s11)
   13074:	003d8b13          	addi	s6,s11,3
   13078:	00100613          	li	a2,1
   1307c:	18c13823          	sd	a2,400(sp)
   13080:	00058713          	mv	a4,a1

0000000000013084 <.LBB1_21>:
   13084:	fe050593          	addi	a1,a0,-32
   13088:	01f00613          	li	a2,31
   1308c:	06e13823          	sd	a4,112(sp)
   13090:	04b66a63          	bltu	a2,a1,130e4 <.LBB1_26>
   13094:	00100793          	li	a5,1
   13098:	00b795bb          	sllw	a1,a5,a1
   1309c:	15813703          	ld	a4,344(sp)
   130a0:	00e5f633          	and	a2,a1,a4
   130a4:	18813903          	ld	s2,392(sp)
   130a8:	02000813          	li	a6,32
   130ac:	00a00d93          	li	s11,10
   130b0:	00000a93          	li	s5,0
   130b4:	02060e63          	beqz	a2,130f0 <.LBB1_27>
   130b8:	001b0613          	addi	a2,s6,1

00000000000130bc <.LBB1_24>:
   130bc:	00060b13          	mv	s6,a2
   130c0:	00064503          	lbu	a0,0(a2)
   130c4:	fe050613          	addi	a2,a0,-32
   130c8:	0155eab3          	or	s5,a1,s5
   130cc:	03067263          	bgeu	a2,a6,130f0 <.LBB1_27>
   130d0:	00c795bb          	sllw	a1,a5,a2
   130d4:	00e5f6b3          	and	a3,a1,a4
   130d8:	001b0613          	addi	a2,s6,1
   130dc:	fe0690e3          	bnez	a3,130bc <.LBB1_24>
   130e0:	0100006f          	j	130f0 <.LBB1_27>

00000000000130e4 <.LBB1_26>:
   130e4:	00000a93          	li	s5,0
   130e8:	18813903          	ld	s2,392(sp)
   130ec:	00a00d93          	li	s11,10

00000000000130f0 <.LBB1_27>:
   130f0:	02a00593          	li	a1,42
   130f4:	04b51c63          	bne	a0,a1,1314c <.LBB1_31>
   130f8:	001b4503          	lbu	a0,1(s6)
   130fc:	fd050513          	addi	a0,a0,-48
   13100:	0cace063          	bltu	s9,a0,131c0 <.LBB1_37>
   13104:	002b4583          	lbu	a1,2(s6)
   13108:	02400613          	li	a2,36
   1310c:	0ac59a63          	bne	a1,a2,131c0 <.LBB1_37>
   13110:	02051513          	slli	a0,a0,0x20
   13114:	01e55513          	srli	a0,a0,0x1e
   13118:	16013583          	ld	a1,352(sp)
   1311c:	00a58533          	add	a0,a1,a0
   13120:	01b52023          	sw	s11,0(a0)
   13124:	001b4503          	lbu	a0,1(s6)
   13128:	00451513          	slli	a0,a0,0x4
   1312c:	16813583          	ld	a1,360(sp)
   13130:	00b50533          	add	a0,a0,a1
   13134:	d0052603          	lw	a2,-768(a0)
   13138:	003b0b13          	addi	s6,s6,3
   1313c:	00100513          	li	a0,1
   13140:	18a13823          	sd	a0,400(sp)
   13144:	0c065263          	bgez	a2,13208 <.LBB1_43>
   13148:	0a80006f          	j	131f0 <.LBB1_40>

000000000001314c <.LBB1_31>:
   1314c:	fd050c13          	addi	s8,a0,-48
   13150:	0b8cea63          	bltu	s9,s8,13204 <.LBB1_42>
   13154:	00000613          	li	a2,0
   13158:	000b0c93          	mv	s9,s6

000000000001315c <.LBB1_33>:
   1315c:	0006051b          	sext.w	a0,a2
   13160:	00a97e63          	bgeu	s2,a0,1317c <.LBB1_35>
   13164:	001cc503          	lbu	a0,1(s9)
   13168:	001c8c93          	addi	s9,s9,1
   1316c:	fd050c13          	addi	s8,a0,-48
   13170:	fff00613          	li	a2,-1
   13174:	ffbc64e3          	bltu	s8,s11,1315c <.LBB1_33>
   13178:	2890106f          	j	14c00 <.LBB1_394>

000000000001317c <.LBB1_35>:
   1317c:	00a00593          	li	a1,10
   13180:	00060513          	mv	a0,a2
   13184:	f50ff0ef          	jal	ra,128d4 <__muldi3>
   13188:	40a405bb          	subw	a1,s0,a0
   1318c:	000c061b          	sext.w	a2,s8
   13190:	00c5b5b3          	sltu	a1,a1,a2
   13194:	001cc603          	lbu	a2,1(s9)
   13198:	0185053b          	addw	a0,a0,s8
   1319c:	40b005b3          	neg	a1,a1
   131a0:	001c8b13          	addi	s6,s9,1
   131a4:	fd060c13          	addi	s8,a2,-48
   131a8:	00a5e633          	or	a2,a1,a0
   131ac:	000b0c93          	mv	s9,s6
   131b0:	fbbc66e3          	bltu	s8,s11,1315c <.LBB1_33>
   131b4:	00900c93          	li	s9,9
   131b8:	04065863          	bgez	a2,13208 <.LBB1_43>
   131bc:	2450106f          	j	14c00 <.LBB1_394>

00000000000131c0 <.LBB1_37>:
   131c0:	19013503          	ld	a0,400(sp)
   131c4:	00050463          	beqz	a0,131cc <.LBB1_38>
   131c8:	3190106f          	j	14ce0 <.LBB1_409>

00000000000131cc <.LBB1_38>:
   131cc:	001b0b13          	addi	s6,s6,1
   131d0:	02098863          	beqz	s3,13200 <.LBB1_41>
   131d4:	17013603          	ld	a2,368(sp)
   131d8:	00063503          	ld	a0,0(a2)
   131dc:	00850593          	addi	a1,a0,8
   131e0:	00b63023          	sd	a1,0(a2)
   131e4:	00052603          	lw	a2,0(a0)
   131e8:	18013823          	sd	zero,400(sp)
   131ec:	00065e63          	bgez	a2,13208 <.LBB1_43>

00000000000131f0 <.LBB1_40>:
   131f0:	00002537          	lui	a0,0x2
   131f4:	00aaeab3          	or	s5,s5,a0
   131f8:	40c0063b          	negw	a2,a2
   131fc:	00c0006f          	j	13208 <.LBB1_43>

0000000000013200 <.LBB1_41>:
   13200:	18013823          	sd	zero,400(sp)

0000000000013204 <.LBB1_42>:
   13204:	00000613          	li	a2,0

0000000000013208 <.LBB1_43>:
   13208:	06c13c23          	sd	a2,120(sp)
   1320c:	000b4503          	lbu	a0,0(s6)
   13210:	02e00593          	li	a1,46
   13214:	09513423          	sd	s5,136(sp)
   13218:	04b51c63          	bne	a0,a1,13270 <.LBB1_48>
   1321c:	001b4503          	lbu	a0,1(s6)
   13220:	02a00593          	li	a1,42
   13224:	04b51e63          	bne	a0,a1,13280 <.LBB1_49>
   13228:	002b4503          	lbu	a0,2(s6)
   1322c:	fd050513          	addi	a0,a0,-48 # 1fd0 <.Lline_table_start0+0x1fd0>
   13230:	0aacea63          	bltu	s9,a0,132e4 <.LBB1_55>
   13234:	003b4583          	lbu	a1,3(s6)
   13238:	02400613          	li	a2,36
   1323c:	0ac59463          	bne	a1,a2,132e4 <.LBB1_55>
   13240:	02051513          	slli	a0,a0,0x20
   13244:	01e55513          	srli	a0,a0,0x1e
   13248:	16013583          	ld	a1,352(sp)
   1324c:	00a58533          	add	a0,a1,a0
   13250:	01b52023          	sw	s11,0(a0)
   13254:	002b4503          	lbu	a0,2(s6)
   13258:	00451513          	slli	a0,a0,0x4
   1325c:	16813583          	ld	a1,360(sp)
   13260:	00b50533          	add	a0,a0,a1
   13264:	d0052503          	lw	a0,-768(a0)
   13268:	004b0b13          	addi	s6,s6,4
   1326c:	0b00006f          	j	1331c <.LBB1_60>

0000000000013270 <.LBB1_48>:
   13270:	00000a93          	li	s5,0
   13274:	fff00513          	li	a0,-1
   13278:	08a13023          	sd	a0,128(sp)
   1327c:	0ac0006f          	j	13328 <.LBB1_61>

0000000000013280 <.LBB1_49>:
   13280:	001b0b13          	addi	s6,s6,1
   13284:	fd050c13          	addi	s8,a0,-48
   13288:	00100a93          	li	s5,1
   1328c:	098ce263          	bltu	s9,s8,13310 <.LBB1_58>
   13290:	00000513          	li	a0,0

0000000000013294 <.LBB1_51>:
   13294:	0005059b          	sext.w	a1,a0
   13298:	fff00613          	li	a2,-1
   1329c:	02b96263          	bltu	s2,a1,132c0 <.LBB1_53>
   132a0:	00a00593          	li	a1,10
   132a4:	e30ff0ef          	jal	ra,128d4 <__muldi3>
   132a8:	40a405bb          	subw	a1,s0,a0
   132ac:	000c061b          	sext.w	a2,s8
   132b0:	00c5b5b3          	sltu	a1,a1,a2
   132b4:	0185053b          	addw	a0,a0,s8
   132b8:	40b005b3          	neg	a1,a1
   132bc:	00a5e633          	or	a2,a1,a0

00000000000132c0 <.LBB1_53>:
   132c0:	001b4503          	lbu	a0,1(s6)
   132c4:	001b0593          	addi	a1,s6,1
   132c8:	fd050c13          	addi	s8,a0,-48
   132cc:	00060513          	mv	a0,a2
   132d0:	00058b13          	mv	s6,a1
   132d4:	fdbc60e3          	bltu	s8,s11,13294 <.LBB1_51>
   132d8:	08c13023          	sd	a2,128(sp)
   132dc:	00058b13          	mv	s6,a1
   132e0:	0480006f          	j	13328 <.LBB1_61>

00000000000132e4 <.LBB1_55>:
   132e4:	19013503          	ld	a0,400(sp)
   132e8:	00050463          	beqz	a0,132f0 <.LBB1_56>
   132ec:	1f50106f          	j	14ce0 <.LBB1_409>

00000000000132f0 <.LBB1_56>:
   132f0:	002b0b13          	addi	s6,s6,2
   132f4:	02098263          	beqz	s3,13318 <.LBB1_59>
   132f8:	17013603          	ld	a2,368(sp)
   132fc:	00063503          	ld	a0,0(a2)
   13300:	00850593          	addi	a1,a0,8
   13304:	00b63023          	sd	a1,0(a2)
   13308:	00052503          	lw	a0,0(a0)
   1330c:	0100006f          	j	1331c <.LBB1_60>

0000000000013310 <.LBB1_58>:
   13310:	08013023          	sd	zero,128(sp)
   13314:	0140006f          	j	13328 <.LBB1_61>

0000000000013318 <.LBB1_59>:
   13318:	00000513          	li	a0,0

000000000001331c <.LBB1_60>:
   1331c:	08a13023          	sd	a0,128(sp)
   13320:	00052513          	slti	a0,a0,0
   13324:	00154a93          	xori	s5,a0,1

0000000000013328 <.LBB1_61>:
   13328:	00000593          	li	a1,0
   1332c:	000b0d93          	mv	s11,s6
   13330:	17813b03          	ld	s6,376(sp)

0000000000013334 <.LBB1_62>:
   13334:	000dc903          	lbu	s2,0(s11)
   13338:	00058c13          	mv	s8,a1
   1333c:	f8590513          	addi	a0,s2,-123
   13340:	01600c93          	li	s9,22
   13344:	fc600593          	li	a1,-58
   13348:	00b57463          	bgeu	a0,a1,13350 <.LBB1_63>
   1334c:	0b90106f          	j	14c04 <.LBB1_395>

0000000000013350 <.LBB1_63>:
   13350:	020c1513          	slli	a0,s8,0x20
   13354:	02055513          	srli	a0,a0,0x20
   13358:	001d8d93          	addi	s11,s11,1
   1335c:	03a00593          	li	a1,58
   13360:	d74ff0ef          	jal	ra,128d4 <__muldi3>
   13364:	00ab0533          	add	a0,s6,a0
   13368:	00a90533          	add	a0,s2,a0
   1336c:	fbf54583          	lbu	a1,-65(a0)
   13370:	fff58513          	addi	a0,a1,-1
   13374:	00800613          	li	a2,8
   13378:	fac56ee3          	bltu	a0,a2,13334 <.LBB1_62>
   1337c:	07513423          	sd	s5,104(sp)
   13380:	01b00513          	li	a0,27
   13384:	04a58463          	beq	a1,a0,133cc <.LBB1_68>
   13388:	07013a83          	ld	s5,112(sp)
   1338c:	00059463          	bnez	a1,13394 <.LBB1_66>
   13390:	0750106f          	j	14c04 <.LBB1_395>

0000000000013394 <.LBB1_66>:
   13394:	040aca63          	bltz	s5,133e8 <.LBB1_70>
   13398:	002a9513          	slli	a0,s5,0x2
   1339c:	16013603          	ld	a2,352(sp)
   133a0:	00a60533          	add	a0,a2,a0
   133a4:	07813603          	ld	a2,120(sp)
   133a8:	00b52023          	sw	a1,0(a0)
   133ac:	004a9a93          	slli	s5,s5,0x4
   133b0:	16813503          	ld	a0,360(sp)
   133b4:	01550ab3          	add	s5,a0,s5
   133b8:	008ab503          	ld	a0,8(s5)
   133bc:	1ea13423          	sd	a0,488(sp)
   133c0:	000ab503          	ld	a0,0(s5)
   133c4:	1ea13023          	sd	a0,480(sp)
   133c8:	0140006f          	j	133dc <.LBB1_69>

00000000000133cc <.LBB1_68>:
   133cc:	07813603          	ld	a2,120(sp)
   133d0:	07013503          	ld	a0,112(sp)
   133d4:	00054463          	bltz	a0,133dc <.LBB1_69>
   133d8:	02d0106f          	j	14c04 <.LBB1_395>

00000000000133dc <.LBB1_69>:
   133dc:	00000a93          	li	s5,0
   133e0:	02099063          	bnez	s3,13400 <.LBB1_72>
   133e4:	bb5ff06f          	j	12f98 <.LBB1_1>

00000000000133e8 <.LBB1_70>:
   133e8:	00099463          	bnez	s3,133f0 <.LBB1_71>
   133ec:	0c10106f          	j	14cac <.LBB1_404>

00000000000133f0 <.LBB1_71>:
   133f0:	1e010513          	addi	a0,sp,480
   133f4:	17013603          	ld	a2,368(sp)
   133f8:	0f1010ef          	jal	ra,14ce8 <pop_arg>
   133fc:	07813603          	ld	a2,120(sp)

0000000000013400 <.LBB1_72>:
   13400:	fffdc903          	lbu	s2,-1(s11)
   13404:	01803533          	snez	a0,s8
   13408:	00f97593          	andi	a1,s2,15
   1340c:	ffd58593          	addi	a1,a1,-3
   13410:	0015b593          	seqz	a1,a1
   13414:	00b57533          	and	a0,a0,a1
   13418:	00050463          	beqz	a0,13420 <.LBB1_74>
   1341c:	0df97913          	andi	s2,s2,223

0000000000013420 <.LBB1_74>:
   13420:	08013c83          	ld	s9,128(sp)
   13424:	06813803          	ld	a6,104(sp)
   13428:	ffff0537          	lui	a0,0xffff0
   1342c:	fff5089b          	addiw	a7,a0,-1 # fffffffffffeffff <__global_pointer$+0xfffffffffffd5137>
   13430:	08813583          	ld	a1,136(sp)
   13434:	03259513          	slli	a0,a1,0x32
   13438:	0115fb33          	and	s6,a1,a7
   1343c:	00055463          	bgez	a0,13444 <.LBB1_76>
   13440:	09613423          	sd	s6,136(sp)

0000000000013444 <.LBB1_76>:
   13444:	05200513          	li	a0,82
   13448:	05255863          	bge	a0,s2,13498 <.LBB1_82>
   1344c:	fad90513          	addi	a0,s2,-83
   13450:	3aad6c63          	bltu	s10,a0,13808 <.LBB1_136>
   13454:	00251513          	slli	a0,a0,0x2
   13458:	14013583          	ld	a1,320(sp)
   1345c:	00b50533          	add	a0,a0,a1
   13460:	00052503          	lw	a0,0(a0)
   13464:	00050067          	jr	a0

0000000000013468 <.LBB1_79>:
   13468:	1e013a83          	ld	s5,480(sp)
   1346c:	3c0ac863          	bltz	s5,1383c <.LBB1_138>
   13470:	08813903          	ld	s2,136(sp)
   13474:	03491593          	slli	a1,s2,0x34
   13478:	00010537          	lui	a0,0x10
   1347c:	1da50513          	addi	a0,a0,474 # 101da <.Lline_table_start0+0x101da>
   13480:	2005cce3          	bltz	a1,13e98 <.LBB1_215>
   13484:	00197713          	andi	a4,s2,1
   13488:	00171593          	slli	a1,a4,0x1
   1348c:	00b50533          	add	a0,a0,a1
   13490:	08a13023          	sd	a0,128(sp)
   13494:	2110006f          	j	13ea4 <.LBB1_216>

0000000000013498 <.LBB1_82>:
   13498:	fbb90513          	addi	a0,s2,-69
   1349c:	00300593          	li	a1,3
   134a0:	02b56863          	bltu	a0,a1,134d0 <.LBB1_86>
   134a4:	04100513          	li	a0,65
   134a8:	02a90463          	beq	s2,a0,134d0 <.LBB1_86>
   134ac:	04300513          	li	a0,67
   134b0:	34a91c63          	bne	s2,a0,13808 <.LBB1_136>
   134b4:	1e013503          	ld	a0,480(sp)
   134b8:	1aa12023          	sw	a0,416(sp)
   134bc:	1a012223          	sw	zero,420(sp)
   134c0:	1a010a93          	addi	s5,sp,416
   134c4:	1f513023          	sd	s5,480(sp)
   134c8:	fff00b13          	li	s6,-1
   134cc:	0a80006f          	j	13574 <.LBB1_95>

00000000000134d0 <.LBB1_86>:
   134d0:	01003533          	snez	a0,a6
   134d4:	000c861b          	sext.w	a2,s9
   134d8:	00062593          	slti	a1,a2,0
   134dc:	00b57533          	and	a0,a0,a1
   134e0:	00050463          	beqz	a0,134e8 <.LBB1_87>
   134e4:	71c0106f          	j	14c00 <.LBB1_394>

00000000000134e8 <.LBB1_87>:
   134e8:	06c13823          	sd	a2,112(sp)
   134ec:	1e813483          	ld	s1,488(sp)
   134f0:	1e013a83          	ld	s5,480(sp)
   134f4:	22012623          	sw	zero,556(sp)
   134f8:	000a8513          	mv	a0,s5
   134fc:	00048593          	mv	a1,s1
   13500:	115020ef          	jal	ra,15e14 <__signbitl>
   13504:	02050263          	beqz	a0,13528 <.LBB1_89>
   13508:	02013c23          	sd	zero,56(sp)
   1350c:	13813503          	ld	a0,312(sp)
   13510:	00a4c4b3          	xor	s1,s1,a0
   13514:	00100513          	li	a0,1
   13518:	04a13423          	sd	a0,72(sp)
   1351c:	13013b83          	ld	s7,304(sp)
   13520:	18013c03          	ld	s8,384(sp)
   13524:	34c0006f          	j	13870 <.LBB1_141>

0000000000013528 <.LBB1_89>:
   13528:	08813583          	ld	a1,136(sp)
   1352c:	03459513          	slli	a0,a1,0x34
   13530:	18013c03          	ld	s8,384(sp)
   13534:	02054063          	bltz	a0,13554 <.LBB1_92>
   13538:	0015f593          	andi	a1,a1,1
   1353c:	00010537          	lui	a0,0x10
   13540:	1e450513          	addi	a0,a0,484 # 101e4 <.Lline_table_start0+0x101e4>
   13544:	04b13423          	sd	a1,72(sp)
   13548:	30058c63          	beqz	a1,13860 <.LBB1_139>
   1354c:	00650b93          	addi	s7,a0,6
   13550:	3140006f          	j	13864 <.LBB1_140>

0000000000013554 <.LBB1_92>:
   13554:	02013c23          	sd	zero,56(sp)
   13558:	00100513          	li	a0,1
   1355c:	04a13423          	sd	a0,72(sp)
   13560:	0e013b83          	ld	s7,224(sp)
   13564:	30c0006f          	j	13870 <.LBB1_141>

0000000000013568 <.LBB1_93>:
   13568:	000c8b1b          	sext.w	s6,s9
   1356c:	580b0ce3          	beqz	s6,14304 <.LBB1_263>
   13570:	1e013a83          	ld	s5,480(sp)

0000000000013574 <.LBB1_95>:
   13574:	00000493          	li	s1,0
   13578:	000a8913          	mv	s2,s5

000000000001357c <.LBB1_96>:
   1357c:	00092583          	lw	a1,0(s2)
   13580:	02058663          	beqz	a1,135ac <.LBB1_100>
   13584:	19c10513          	addi	a0,sp,412
   13588:	095020ef          	jal	ra,15e1c <wctomb>
   1358c:	00055463          	bgez	a0,13594 <.LBB1_98>
   13590:	67c0106f          	j	14c0c <.LBB1_396>

0000000000013594 <.LBB1_98>:
   13594:	409b05b3          	sub	a1,s6,s1
   13598:	07813603          	ld	a2,120(sp)
   1359c:	00a5e863          	bltu	a1,a0,135ac <.LBB1_100>
   135a0:	00a484b3          	add	s1,s1,a0
   135a4:	00490913          	addi	s2,s2,4
   135a8:	fd64eae3          	bltu	s1,s6,1357c <.LBB1_96>

00000000000135ac <.LBB1_100>:
   135ac:	01f4d513          	srli	a0,s1,0x1f
   135b0:	04b00c93          	li	s9,75
   135b4:	00050463          	beqz	a0,135bc <.LBB1_101>
   135b8:	64c0106f          	j	14c04 <.LBB1_395>

00000000000135bc <.LBB1_101>:
   135bc:	0006061b          	sext.w	a2,a2
   135c0:	0004869b          	sext.w	a3,s1
   135c4:	02000593          	li	a1,32
   135c8:	00098513          	mv	a0,s3
   135cc:	08813903          	ld	s2,136(sp)
   135d0:	00090713          	mv	a4,s2
   135d4:	029010ef          	jal	ra,14dfc <pad>
   135d8:	0a048ce3          	beqz	s1,13e90 <.LBB1_214>
   135dc:	00000b13          	li	s6,0
   135e0:	07813603          	ld	a2,120(sp)

00000000000135e4 <.LBB1_103>:
   135e4:	000aa583          	lw	a1,0(s5)
   135e8:	540580e3          	beqz	a1,14328 <.LBB1_264>
   135ec:	19c10513          	addi	a0,sp,412
   135f0:	02d020ef          	jal	ra,15e1c <wctomb>
   135f4:	00ab0b33          	add	s6,s6,a0
   135f8:	0964ece3          	bltu	s1,s6,13e90 <.LBB1_214>
   135fc:	00050593          	mv	a1,a0
   13600:	0009c503          	lbu	a0,0(s3)
   13604:	02057513          	andi	a0,a0,32
   13608:	00051863          	bnez	a0,13618 <.LBB1_107>
   1360c:	19c10513          	addi	a0,sp,412
   13610:	00098613          	mv	a2,s3
   13614:	421010ef          	jal	ra,15234 <__fwritex>

0000000000013618 <.LBB1_107>:
   13618:	004a8a93          	addi	s5,s5,4
   1361c:	07813603          	ld	a2,120(sp)
   13620:	fc9b62e3          	bltu	s6,s1,135e4 <.LBB1_103>
   13624:	5050006f          	j	14328 <.LBB1_264>

0000000000013628 <.LBB1_108>:
   13628:	1e013503          	ld	a0,480(sp)
   1362c:	00000713          	li	a4,0
   13630:	1ca10fa3          	sb	a0,479(sp)
   13634:	00100c93          	li	s9,1
   13638:	1e010513          	addi	a0,sp,480
   1363c:	1df10493          	addi	s1,sp,479
   13640:	000b0913          	mv	s2,s6
   13644:	12813583          	ld	a1,296(sp)
   13648:	08b13023          	sd	a1,128(sp)
   1364c:	1190006f          	j	13f64 <.LBB1_231>

0000000000013650 <.LBB1_109>:
   13650:	b84ff0ef          	jal	ra,129d4 <__errno_location>
   13654:	00052503          	lw	a0,0(a0)
   13658:	171020ef          	jal	ra,15fc8 <strerror>
   1365c:	1480006f          	j	137a4 <.LBB1_129>

0000000000013660 <.LBB1_110>:
   13660:	0ffc7513          	zext.b	a0,s8
   13664:	00000a93          	li	s5,0
   13668:	00700593          	li	a1,7
   1366c:	92a5e6e3          	bltu	a1,a0,12f98 <.LBB1_1>
   13670:	00251513          	slli	a0,a0,0x2
   13674:	0c813583          	ld	a1,200(sp)
   13678:	00b50533          	add	a0,a0,a1
   1367c:	00052503          	lw	a0,0(a0)
   13680:	00050067          	jr	a0

0000000000013684 <.LBB1_112>:
   13684:	1e013503          	ld	a0,480(sp)
   13688:	00000a93          	li	s5,0
   1368c:	01453023          	sd	s4,0(a0)
   13690:	909ff06f          	j	12f98 <.LBB1_1>

0000000000013694 <.LBB1_113>:
   13694:	1e013503          	ld	a0,480(sp)
   13698:	1e010493          	addi	s1,sp,480
   1369c:	00700713          	li	a4,7
   136a0:	02050663          	beqz	a0,136cc <.LBB1_116>
   136a4:	1e010593          	addi	a1,sp,480
   136a8:	00050613          	mv	a2,a0

00000000000136ac <.LBB1_115>:
   136ac:	00060693          	mv	a3,a2
   136b0:	00767613          	andi	a2,a2,7
   136b4:	03060613          	addi	a2,a2,48
   136b8:	fff58493          	addi	s1,a1,-1
   136bc:	fec58fa3          	sb	a2,-1(a1)
   136c0:	0036d613          	srli	a2,a3,0x3
   136c4:	00048593          	mv	a1,s1
   136c8:	fed762e3          	bltu	a4,a3,136ac <.LBB1_115>

00000000000136cc <.LBB1_116>:
   136cc:	08813903          	ld	s2,136(sp)
   136d0:	00897593          	andi	a1,s2,8
   136d4:	00010637          	lui	a2,0x10
   136d8:	1da60613          	addi	a2,a2,474 # 101da <.Lline_table_start0+0x101da>
   136dc:	08c13023          	sd	a2,128(sp)
   136e0:	08058e63          	beqz	a1,1377c <.LBB1_126>
   136e4:	000c861b          	sext.w	a2,s9
   136e8:	1e010593          	addi	a1,sp,480
   136ec:	409585b3          	sub	a1,a1,s1
   136f0:	08c5c663          	blt	a1,a2,1377c <.LBB1_126>
   136f4:	00000713          	li	a4,0
   136f8:	00158c9b          	addiw	s9,a1,1
   136fc:	0150006f          	j	13f10 <.LBB1_222>

0000000000013700 <.LBB1_119>:
   13700:	000c8c9b          	sext.w	s9,s9
   13704:	01000513          	li	a0,16
   13708:	01956463          	bltu	a0,s9,13710 <.LBB1_121>
   1370c:	01000c93          	li	s9,16

0000000000013710 <.LBB1_121>:
   13710:	08813503          	ld	a0,136(sp)
   13714:	00856513          	ori	a0,a0,8
   13718:	08a13423          	sd	a0,136(sp)
   1371c:	07800913          	li	s2,120

0000000000013720 <.LBB1_122>:
   13720:	1e013583          	ld	a1,480(sp)
   13724:	00010537          	lui	a0,0x10
   13728:	1da50513          	addi	a0,a0,474 # 101da <.Lline_table_start0+0x101da>
   1372c:	08a13023          	sd	a0,128(sp)
   13730:	04058a63          	beqz	a1,13784 <.LBB1_127>
   13734:	00090793          	mv	a5,s2
   13738:	02097513          	andi	a0,s2,32
   1373c:	1e010493          	addi	s1,sp,480
   13740:	15013683          	ld	a3,336(sp)
   13744:	00f00713          	li	a4,15

0000000000013748 <.LBB1_124>:
   13748:	00058613          	mv	a2,a1
   1374c:	00f5f593          	andi	a1,a1,15
   13750:	00b685b3          	add	a1,a3,a1
   13754:	00058583          	lb	a1,0(a1)
   13758:	00a5e5b3          	or	a1,a1,a0
   1375c:	feb48fa3          	sb	a1,-1(s1)
   13760:	fff48493          	addi	s1,s1,-1
   13764:	00465593          	srli	a1,a2,0x4
   13768:	fec760e3          	bltu	a4,a2,13748 <.LBB1_124>
   1376c:	08813903          	ld	s2,136(sp)
   13770:	00897593          	andi	a1,s2,8
   13774:	00100513          	li	a0,1
   13778:	0a059463          	bnez	a1,13820 <.LBB1_137>

000000000001377c <.LBB1_126>:
   1377c:	00000713          	li	a4,0
   13780:	7900006f          	j	13f10 <.LBB1_222>

0000000000013784 <.LBB1_127>:
   13784:	00000513          	li	a0,0
   13788:	00000713          	li	a4,0
   1378c:	1e010493          	addi	s1,sp,480
   13790:	08813903          	ld	s2,136(sp)
   13794:	77c0006f          	j	13f10 <.LBB1_222>

0000000000013798 <.LBB1_128>:
   13798:	1e013503          	ld	a0,480(sp)
   1379c:	0d013483          	ld	s1,208(sp)
   137a0:	00050463          	beqz	a0,137a8 <.LBB1_130>

00000000000137a4 <.LBB1_129>:
   137a4:	00050493          	mv	s1,a0

00000000000137a8 <.LBB1_130>:
   137a8:	000c891b          	sext.w	s2,s9
   137ac:	00090593          	mv	a1,s2
   137b0:	00896463          	bltu	s2,s0,137b8 <.LBB1_132>
   137b4:	00040593          	mv	a1,s0

00000000000137b8 <.LBB1_132>:
   137b8:	00048513          	mv	a0,s1
   137bc:	031020ef          	jal	ra,15fec <strnlen>
   137c0:	00050c93          	mv	s9,a0
   137c4:	00a48533          	add	a0,s1,a0
   137c8:	00095863          	bgez	s2,137d8 <.LBB1_134>
   137cc:	00054583          	lbu	a1,0(a0)
   137d0:	00058463          	beqz	a1,137d8 <.LBB1_134>
   137d4:	42c0106f          	j	14c00 <.LBB1_394>

00000000000137d8 <.LBB1_134>:
   137d8:	00000713          	li	a4,0
   137dc:	000b0913          	mv	s2,s6
   137e0:	12813583          	ld	a1,296(sp)
   137e4:	08b13023          	sd	a1,128(sp)
   137e8:	7780006f          	j	13f60 <.LBB1_230>

00000000000137ec <.LBB1_135>:
   137ec:	1e013a83          	ld	s5,480(sp)
   137f0:	00000713          	li	a4,0
   137f4:	00010537          	lui	a0,0x10
   137f8:	1da50513          	addi	a0,a0,474 # 101da <.Lline_table_start0+0x101da>
   137fc:	08a13023          	sd	a0,128(sp)
   13800:	08813903          	ld	s2,136(sp)
   13804:	6a00006f          	j	13ea4 <.LBB1_216>

0000000000013808 <.LBB1_136>:
   13808:	00000713          	li	a4,0
   1380c:	1e010513          	addi	a0,sp,480
   13810:	12813583          	ld	a1,296(sp)
   13814:	08b13023          	sd	a1,128(sp)
   13818:	08813903          	ld	s2,136(sp)
   1381c:	7480006f          	j	13f64 <.LBB1_231>

0000000000013820 <.LBB1_137>:
   13820:	0047d593          	srli	a1,a5,0x4
   13824:	00010637          	lui	a2,0x10
   13828:	1da60613          	addi	a2,a2,474 # 101da <.Lline_table_start0+0x101da>
   1382c:	00b605b3          	add	a1,a2,a1
   13830:	08b13023          	sd	a1,128(sp)
   13834:	00200713          	li	a4,2
   13838:	6d80006f          	j	13f10 <.LBB1_222>

000000000001383c <.LBB1_138>:
   1383c:	07113823          	sd	a7,112(sp)
   13840:	41500ab3          	neg	s5,s5
   13844:	1f513023          	sd	s5,480(sp)
   13848:	00010537          	lui	a0,0x10
   1384c:	1da50513          	addi	a0,a0,474 # 101da <.Lline_table_start0+0x101da>
   13850:	08a13023          	sd	a0,128(sp)
   13854:	00100513          	li	a0,1
   13858:	06a13023          	sd	a0,96(sp)
   1385c:	6540006f          	j	13eb0 <.LBB1_218>

0000000000013860 <.LBB1_139>:
   13860:	00150b93          	addi	s7,a0,1

0000000000013864 <.LBB1_140>:
   13864:	04813503          	ld	a0,72(sp)
   13868:	00153513          	seqz	a0,a0
   1386c:	02a13c23          	sd	a0,56(sp)

0000000000013870 <.LBB1_141>:
   13870:	000a8513          	mv	a0,s5
   13874:	00048593          	mv	a1,s1
   13878:	0bd020ef          	jal	ra,16134 <__fpclassifyl>
   1387c:	00100593          	li	a1,1
   13880:	08a5da63          	bge	a1,a0,13914 <.LBB1_147>
   13884:	22c10613          	addi	a2,sp,556
   13888:	000a8513          	mv	a0,s5
   1388c:	00048593          	mv	a1,s1
   13890:	0e9020ef          	jal	ra,16178 <frexpl>
   13894:	00050613          	mv	a2,a0
   13898:	00058693          	mv	a3,a1
   1389c:	0fc040ef          	jal	ra,17998 <__addtf3>
   138a0:	00050493          	mv	s1,a0
   138a4:	00058a93          	mv	s5,a1
   138a8:	00000613          	li	a2,0
   138ac:	00000693          	li	a3,0
   138b0:	1a1020ef          	jal	ra,16250 <__cmptf2>
   138b4:	05213023          	sd	s2,64(sp)
   138b8:	12050063          	beqz	a0,139d8 <.LBB1_157>
   138bc:	00090593          	mv	a1,s2
   138c0:	22c12903          	lw	s2,556(sp)
   138c4:	fff9051b          	addiw	a0,s2,-1
   138c8:	0205e613          	ori	a2,a1,32
   138cc:	22a12623          	sw	a0,556(sp)
   138d0:	06100513          	li	a0,97
   138d4:	04c13c23          	sd	a2,88(sp)
   138d8:	10a60a63          	beq	a2,a0,139ec <.LBB1_158>
   138dc:	07013503          	ld	a0,112(sp)
   138e0:	00055463          	bgez	a0,138e8 <.LBB1_146>
   138e4:	00600c93          	li	s9,6

00000000000138e8 <.LBB1_146>:
   138e8:	03713023          	sd	s7,32(sp)
   138ec:	00048513          	mv	a0,s1
   138f0:	000a8593          	mv	a1,s5
   138f4:	00000613          	li	a2,0
   138f8:	0d813683          	ld	a3,216(sp)
   138fc:	755020ef          	jal	ra,16850 <__multf3>
   13900:	00050493          	mv	s1,a0
   13904:	00058a93          	mv	s5,a1
   13908:	fe390c1b          	addiw	s8,s2,-29
   1390c:	23812623          	sw	s8,556(sp)
   13910:	1940006f          	j	13aa4 <.LBB1_167>

0000000000013914 <.LBB1_147>:
   13914:	000b8c93          	mv	s9,s7
   13918:	02097913          	andi	s2,s2,32
   1391c:	000a8513          	mv	a0,s5
   13920:	00048593          	mv	a1,s1
   13924:	000a8613          	mv	a2,s5
   13928:	00048693          	mv	a3,s1
   1392c:	61d020ef          	jal	ra,16748 <__unordtf2>
   13930:	12013583          	ld	a1,288(sp)
   13934:	11813483          	ld	s1,280(sp)
   13938:	00090663          	beqz	s2,13944 <.LBB1_149>
   1393c:	11013583          	ld	a1,272(sp)
   13940:	10813483          	ld	s1,264(sp)

0000000000013944 <.LBB1_149>:
   13944:	08813b83          	ld	s7,136(sp)
   13948:	07813903          	ld	s2,120(sp)
   1394c:	04813c03          	ld	s8,72(sp)
   13950:	00051463          	bnez	a0,13958 <.LBB1_151>
   13954:	00058493          	mv	s1,a1

0000000000013958 <.LBB1_151>:
   13958:	003c0a93          	addi	s5,s8,3
   1395c:	0009091b          	sext.w	s2,s2
   13960:	02000593          	li	a1,32
   13964:	00098513          	mv	a0,s3
   13968:	00090613          	mv	a2,s2
   1396c:	000a8693          	mv	a3,s5
   13970:	000b0713          	mv	a4,s6
   13974:	488010ef          	jal	ra,14dfc <pad>
   13978:	0009e503          	lwu	a0,0(s3)
   1397c:	02057593          	andi	a1,a0,32
   13980:	00059c63          	bnez	a1,13998 <.LBB1_153>
   13984:	000c8513          	mv	a0,s9
   13988:	000c0593          	mv	a1,s8
   1398c:	00098613          	mv	a2,s3
   13990:	0a5010ef          	jal	ra,15234 <__fwritex>
   13994:	0009a503          	lw	a0,0(s3)

0000000000013998 <.LBB1_153>:
   13998:	02057513          	andi	a0,a0,32
   1399c:	00051a63          	bnez	a0,139b0 <.LBB1_155>
   139a0:	00300593          	li	a1,3
   139a4:	00048513          	mv	a0,s1
   139a8:	00098613          	mv	a2,s3
   139ac:	089010ef          	jal	ra,15234 <__fwritex>

00000000000139b0 <.LBB1_155>:
   139b0:	00002537          	lui	a0,0x2
   139b4:	00abc733          	xor	a4,s7,a0
   139b8:	02000593          	li	a1,32
   139bc:	00098513          	mv	a0,s3
   139c0:	00090613          	mv	a2,s2
   139c4:	000a8693          	mv	a3,s5
   139c8:	434010ef          	jal	ra,14dfc <pad>
   139cc:	dd594663          	blt	s2,s5,12f98 <.LBB1_1>
   139d0:	00090a93          	mv	s5,s2
   139d4:	dc4ff06f          	j	12f98 <.LBB1_1>

00000000000139d8 <.LBB1_157>:
   139d8:	02096613          	ori	a2,s2,32
   139dc:	06100513          	li	a0,97
   139e0:	00090593          	mv	a1,s2
   139e4:	04c13c23          	sd	a2,88(sp)
   139e8:	0aa61463          	bne	a2,a0,13a90 <.LBB1_164>

00000000000139ec <.LBB1_158>:
   139ec:	03a59513          	slli	a0,a1,0x3a
   139f0:	43f55513          	srai	a0,a0,0x3f
   139f4:	00957513          	andi	a0,a0,9
   139f8:	00ab8533          	add	a0,s7,a0
   139fc:	02a13c23          	sd	a0,56(sp)
   13a00:	01a00513          	li	a0,26
   13a04:	07013583          	ld	a1,112(sp)
   13a08:	00b57663          	bgeu	a0,a1,13a14 <.LBB1_160>
   13a0c:	20710913          	addi	s2,sp,519
   13a10:	6640006f          	j	14074 <.LBB1_243>

0000000000013a14 <.LBB1_160>:
   13a14:	00000b93          	li	s7,0
   13a18:	fe5c891b          	addiw	s2,s9,-27
   13a1c:	000c0b13          	mv	s6,s8

0000000000013a20 <.LBB1_161>:
   13a20:	000b8513          	mv	a0,s7
   13a24:	000b0593          	mv	a1,s6
   13a28:	00000613          	li	a2,0
   13a2c:	000c0693          	mv	a3,s8
   13a30:	621020ef          	jal	ra,16850 <__multf3>
   13a34:	0019091b          	addiw	s2,s2,1
   13a38:	00050b93          	mv	s7,a0
   13a3c:	00058b13          	mv	s6,a1
   13a40:	fe0910e3          	bnez	s2,13a20 <.LBB1_161>
   13a44:	03813503          	ld	a0,56(sp)
   13a48:	00054503          	lbu	a0,0(a0) # 2000 <.Lline_table_start0+0x2000>
   13a4c:	20710913          	addi	s2,sp,519
   13a50:	02d00593          	li	a1,45
   13a54:	5eb51c63          	bne	a0,a1,1404c <.LBB1_242>
   13a58:	13813c03          	ld	s8,312(sp)
   13a5c:	018ac5b3          	xor	a1,s5,s8
   13a60:	00048513          	mv	a0,s1
   13a64:	000b8613          	mv	a2,s7
   13a68:	000b0693          	mv	a3,s6
   13a6c:	4f9040ef          	jal	ra,18764 <__subtf3>
   13a70:	00050613          	mv	a2,a0
   13a74:	00058693          	mv	a3,a1
   13a78:	000b8513          	mv	a0,s7
   13a7c:	000b0593          	mv	a1,s6
   13a80:	719030ef          	jal	ra,17998 <__addtf3>
   13a84:	00050493          	mv	s1,a0
   13a88:	0185cab3          	xor	s5,a1,s8
   13a8c:	5e80006f          	j	14074 <.LBB1_243>

0000000000013a90 <.LBB1_164>:
   13a90:	07013503          	ld	a0,112(sp)
   13a94:	00055463          	bgez	a0,13a9c <.LBB1_166>
   13a98:	00600c93          	li	s9,6

0000000000013a9c <.LBB1_166>:
   13a9c:	03713023          	sd	s7,32(sp)
   13aa0:	22c12c03          	lw	s8,556(sp)

0000000000013aa4 <.LBB1_167>:
   13aa4:	20710913          	addi	s2,sp,519
   13aa8:	0f813b03          	ld	s6,248(sp)
   13aac:	000c2513          	slti	a0,s8,0
   13ab0:	fff5051b          	addiw	a0,a0,-1
   13ab4:	6c057513          	andi	a0,a0,1728
   13ab8:	00251b93          	slli	s7,a0,0x2
   13abc:	23010513          	addi	a0,sp,560
   13ac0:	03713423          	sd	s7,40(sp)
   13ac4:	01750bb3          	add	s7,a0,s7
   13ac8:	07713823          	sd	s7,112(sp)

0000000000013acc <.LBB1_168>:
   13acc:	00048513          	mv	a0,s1
   13ad0:	000a8593          	mv	a1,s5
   13ad4:	581040ef          	jal	ra,18854 <__fixunstfsi>
   13ad8:	00aba023          	sw	a0,0(s7)
   13adc:	004b8b93          	addi	s7,s7,4
   13ae0:	74d040ef          	jal	ra,18a2c <__floatunsitf>
   13ae4:	00050613          	mv	a2,a0
   13ae8:	00058693          	mv	a3,a1
   13aec:	00048513          	mv	a0,s1
   13af0:	000a8593          	mv	a1,s5
   13af4:	471040ef          	jal	ra,18764 <__subtf3>
   13af8:	00000613          	li	a2,0
   13afc:	000b0693          	mv	a3,s6
   13b00:	551020ef          	jal	ra,16850 <__multf3>
   13b04:	00050493          	mv	s1,a0
   13b08:	00058a93          	mv	s5,a1
   13b0c:	00000613          	li	a2,0
   13b10:	00000693          	li	a3,0
   13b14:	73c020ef          	jal	ra,16250 <__cmptf2>
   13b18:	fa051ae3          	bnez	a0,13acc <.LBB1_168>
   13b1c:	03813823          	sd	s8,48(sp)
   13b20:	0d805263          	blez	s8,13be4 <.LBB1_182>
   13b24:	07013683          	ld	a3,112(sp)
   13b28:	09913023          	sd	s9,128(sp)
   13b2c:	05313823          	sd	s3,80(sp)

0000000000013b30 <.LBB1_171>:
   13b30:	01d00513          	li	a0,29
   13b34:	00ac4463          	blt	s8,a0,13b3c <.LBB1_173>
   13b38:	01d00c13          	li	s8,29

0000000000013b3c <.LBB1_173>:
   13b3c:	ffcb8b13          	addi	s6,s7,-4
   13b40:	06db6c63          	bltu	s6,a3,13bb8 <.LBB1_179>
   13b44:	00000493          	li	s1,0
   13b48:	020c1513          	slli	a0,s8,0x20
   13b4c:	02055913          	srli	s2,a0,0x20
   13b50:	14813c83          	ld	s9,328(sp)

0000000000013b54 <.LBB1_175>:
   13b54:	000b6503          	lwu	a0,0(s6)
   13b58:	01251ab3          	sll	s5,a0,s2
   13b5c:	02049493          	slli	s1,s1,0x20
   13b60:	0204d493          	srli	s1,s1,0x20
   13b64:	009a8ab3          	add	s5,s5,s1
   13b68:	000a8513          	mv	a0,s5
   13b6c:	000c8593          	mv	a1,s9
   13b70:	00068993          	mv	s3,a3
   13b74:	0c9010ef          	jal	ra,1543c <__udivdi3>
   13b78:	00050493          	mv	s1,a0
   13b7c:	000c8593          	mv	a1,s9
   13b80:	d55fe0ef          	jal	ra,128d4 <__muldi3>
   13b84:	00098693          	mv	a3,s3
   13b88:	40aa853b          	subw	a0,s5,a0
   13b8c:	00ab2023          	sw	a0,0(s6)
   13b90:	ffcb0b13          	addi	s6,s6,-4
   13b94:	fd3b70e3          	bgeu	s6,s3,13b54 <.LBB1_175>
   13b98:	0004851b          	sext.w	a0,s1
   13b9c:	00050863          	beqz	a0,13bac <.LBB1_178>
   13ba0:	ffc68513          	addi	a0,a3,-4
   13ba4:	fe96ae23          	sw	s1,-4(a3)
   13ba8:	00050693          	mv	a3,a0

0000000000013bac <.LBB1_178>:
   13bac:	20710913          	addi	s2,sp,519
   13bb0:	08013c83          	ld	s9,128(sp)
   13bb4:	05013983          	ld	s3,80(sp)

0000000000013bb8 <.LBB1_179>:
   13bb8:	000b8b13          	mv	s6,s7
   13bbc:	0176f863          	bgeu	a3,s7,13bcc <.LBB1_181>
   13bc0:	ffcb2503          	lw	a0,-4(s6)
   13bc4:	ffcb0b93          	addi	s7,s6,-4
   13bc8:	fe0508e3          	beqz	a0,13bb8 <.LBB1_179>

0000000000013bcc <.LBB1_181>:
   13bcc:	22c12503          	lw	a0,556(sp)
   13bd0:	41850c3b          	subw	s8,a0,s8
   13bd4:	23812623          	sw	s8,556(sp)
   13bd8:	000b0b93          	mv	s7,s6
   13bdc:	f5804ae3          	bgtz	s8,13b30 <.LBB1_171>
   13be0:	00c0006f          	j	13bec <.LBB1_183>

0000000000013be4 <.LBB1_182>:
   13be4:	000b8b13          	mv	s6,s7
   13be8:	07013683          	ld	a3,112(sp)

0000000000013bec <.LBB1_183>:
   13bec:	0e0c5e63          	bgez	s8,13ce8 <.LBB1_199>
   13bf0:	02dc851b          	addiw	a0,s9,45
   13bf4:	02051513          	slli	a0,a0,0x20
   13bf8:	02055513          	srli	a0,a0,0x20
   13bfc:	00900593          	li	a1,9
   13c00:	00068493          	mv	s1,a3
   13c04:	039010ef          	jal	ra,1543c <__udivdi3>
   13c08:	00048693          	mv	a3,s1
   13c0c:	00150713          	addi	a4,a0,1
   13c10:	06e13423          	sd	a4,104(sp)

0000000000013c14 <.LBB1_185>:
   13c14:	41800bbb          	negw	s7,s8
   13c18:	00900513          	li	a0,9
   13c1c:	00abc463          	blt	s7,a0,13c24 <.LBB1_187>
   13c20:	00900b93          	li	s7,9

0000000000013c24 <.LBB1_187>:
   13c24:	0766fe63          	bgeu	a3,s6,13ca0 <.LBB1_193>
   13c28:	000c8a93          	mv	s5,s9
   13c2c:	00000513          	li	a0,0
   13c30:	fff00593          	li	a1,-1
   13c34:	017595bb          	sllw	a1,a1,s7
   13c38:	fff5c913          	not	s2,a1
   13c3c:	14813583          	ld	a1,328(sp)
   13c40:	0175d4bb          	srlw	s1,a1,s7
   13c44:	00068c93          	mv	s9,a3
   13c48:	00068c13          	mv	s8,a3

0000000000013c4c <.LBB1_189>:
   13c4c:	000c2603          	lw	a2,0(s8)
   13c50:	012675b3          	and	a1,a2,s2
   13c54:	0176563b          	srlw	a2,a2,s7
   13c58:	00a60533          	add	a0,a2,a0
   13c5c:	00ac2023          	sw	a0,0(s8)
   13c60:	00058513          	mv	a0,a1
   13c64:	00048593          	mv	a1,s1
   13c68:	c6dfe0ef          	jal	ra,128d4 <__muldi3>
   13c6c:	004c0c13          	addi	s8,s8,4
   13c70:	fd6c6ee3          	bltu	s8,s6,13c4c <.LBB1_189>
   13c74:	000c8693          	mv	a3,s9
   13c78:	000ca583          	lw	a1,0(s9)
   13c7c:	0005061b          	sext.w	a2,a0
   13c80:	00060863          	beqz	a2,13c90 <.LBB1_192>
   13c84:	004b0613          	addi	a2,s6,4
   13c88:	00ab2023          	sw	a0,0(s6)
   13c8c:	00060b13          	mv	s6,a2

0000000000013c90 <.LBB1_192>:
   13c90:	20710913          	addi	s2,sp,519
   13c94:	000a8c93          	mv	s9,s5
   13c98:	06813703          	ld	a4,104(sp)
   13c9c:	0080006f          	j	13ca4 <.LBB1_194>

0000000000013ca0 <.LBB1_193>:
   13ca0:	0006a583          	lw	a1,0(a3)

0000000000013ca4 <.LBB1_194>:
   13ca4:	0015b513          	seqz	a0,a1
   13ca8:	00251513          	slli	a0,a0,0x2
   13cac:	00a686b3          	add	a3,a3,a0
   13cb0:	07013503          	ld	a0,112(sp)
   13cb4:	06600593          	li	a1,102
   13cb8:	05813603          	ld	a2,88(sp)
   13cbc:	00b60463          	beq	a2,a1,13cc4 <.LBB1_196>
   13cc0:	00068513          	mv	a0,a3

0000000000013cc4 <.LBB1_196>:
   13cc4:	40ab05b3          	sub	a1,s6,a0
   13cc8:	4025d593          	srai	a1,a1,0x2
   13ccc:	00b75663          	bge	a4,a1,13cd8 <.LBB1_198>
   13cd0:	00271b13          	slli	s6,a4,0x2
   13cd4:	01650b33          	add	s6,a0,s6

0000000000013cd8 <.LBB1_198>:
   13cd8:	22c12503          	lw	a0,556(sp)
   13cdc:	01750c3b          	addw	s8,a0,s7
   13ce0:	23812623          	sw	s8,556(sp)
   13ce4:	f20c48e3          	bltz	s8,13c14 <.LBB1_185>

0000000000013ce8 <.LBB1_199>:
   13ce8:	06d13023          	sd	a3,96(sp)
   13cec:	0566f263          	bgeu	a3,s6,13d30 <.LBB1_203>
   13cf0:	0006a483          	lw	s1,0(a3)
   13cf4:	07013503          	ld	a0,112(sp)
   13cf8:	40d50533          	sub	a0,a0,a3
   13cfc:	00255513          	srli	a0,a0,0x2
   13d00:	00351593          	slli	a1,a0,0x3
   13d04:	00a58bbb          	addw	s7,a1,a0
   13d08:	00a00513          	li	a0,10
   13d0c:	03013c03          	ld	s8,48(sp)
   13d10:	02a4e463          	bltu	s1,a0,13d38 <.LBB1_204>
   13d14:	00a00513          	li	a0,10

0000000000013d18 <.LBB1_202>:
   13d18:	00a00593          	li	a1,10
   13d1c:	bb9fe0ef          	jal	ra,128d4 <__muldi3>
   13d20:	0005059b          	sext.w	a1,a0
   13d24:	001b8b9b          	addiw	s7,s7,1
   13d28:	feb4f8e3          	bgeu	s1,a1,13d18 <.LBB1_202>
   13d2c:	00c0006f          	j	13d38 <.LBB1_204>

0000000000013d30 <.LBB1_203>:
   13d30:	00000b93          	li	s7,0
   13d34:	03013c03          	ld	s8,48(sp)

0000000000013d38 <.LBB1_204>:
   13d38:	05813583          	ld	a1,88(sp)
   13d3c:	f9a58513          	addi	a0,a1,-102
   13d40:	00153513          	seqz	a0,a0
   13d44:	fff5051b          	addiw	a0,a0,-1
   13d48:	01757533          	and	a0,a0,s7
   13d4c:	000c879b          	sext.w	a5,s9
   13d50:	f9958593          	addi	a1,a1,-103
   13d54:	0015b593          	seqz	a1,a1
   13d58:	00f03633          	snez	a2,a5
   13d5c:	00b675b3          	and	a1,a2,a1
   13d60:	40bc85bb          	subw	a1,s9,a1
   13d64:	40a5853b          	subw	a0,a1,a0
   13d68:	07013583          	ld	a1,112(sp)
   13d6c:	40bb05b3          	sub	a1,s6,a1
   13d70:	4025d613          	srai	a2,a1,0x2
   13d74:	00159593          	slli	a1,a1,0x1
   13d78:	00c585b3          	add	a1,a1,a2
   13d7c:	ff758593          	addi	a1,a1,-9
   13d80:	10b55263          	bge	a0,a1,13e84 <.LBB1_213>
   13d84:	00f13c23          	sd	a5,24(sp)
   13d88:	000245b7          	lui	a1,0x24
   13d8c:	00b50abb          	addw	s5,a0,a1
   13d90:	00900593          	li	a1,9
   13d94:	000a8513          	mv	a0,s5
   13d98:	669040ef          	jal	ra,18c00 <__divdi3>
   13d9c:	00351593          	slli	a1,a0,0x3
   13da0:	06a13423          	sd	a0,104(sp)
   13da4:	00a58533          	add	a0,a1,a0
   13da8:	40aa84bb          	subw	s1,s5,a0
   13dac:	00a00a93          	li	s5,10
   13db0:	00700513          	li	a0,7
   13db4:	02954263          	blt	a0,s1,13dd8 <.LBB1_208>
   13db8:	ff84849b          	addiw	s1,s1,-8
   13dbc:	00a00a93          	li	s5,10

0000000000013dc0 <.LBB1_207>:
   13dc0:	00a00593          	li	a1,10
   13dc4:	000a8513          	mv	a0,s5
   13dc8:	b0dfe0ef          	jal	ra,128d4 <__muldi3>
   13dcc:	0014849b          	addiw	s1,s1,1
   13dd0:	00050a93          	mv	s5,a0
   13dd4:	fe0496e3          	bnez	s1,13dc0 <.LBB1_207>

0000000000013dd8 <.LBB1_208>:
   13dd8:	41fc551b          	sraiw	a0,s8,0x1f
   13ddc:	94057513          	andi	a0,a0,-1728
   13de0:	6c150513          	addi	a0,a0,1729
   13de4:	00251c13          	slli	s8,a0,0x2
   13de8:	ffffc537          	lui	a0,0xffffc
   13dec:	06813583          	ld	a1,104(sp)
   13df0:	00a5853b          	addw	a0,a1,a0
   13df4:	00251513          	slli	a0,a0,0x2
   13df8:	23010593          	addi	a1,sp,560
   13dfc:	00a58533          	add	a0,a1,a0
   13e00:	01813823          	sd	s8,16(sp)
   13e04:	01850c33          	add	s8,a0,s8
   13e08:	000c2483          	lw	s1,0(s8)
   13e0c:	02049513          	slli	a0,s1,0x20
   13e10:	02055513          	srli	a0,a0,0x20
   13e14:	020a9593          	slli	a1,s5,0x20
   13e18:	0205d593          	srli	a1,a1,0x20
   13e1c:	620010ef          	jal	ra,1543c <__udivdi3>
   13e20:	02a13823          	sd	a0,48(sp)
   13e24:	000a8593          	mv	a1,s5
   13e28:	aadfe0ef          	jal	ra,128d4 <__muldi3>
   13e2c:	40a482bb          	subw	t0,s1,a0
   13e30:	004c0593          	addi	a1,s8,4
   13e34:	0165c5b3          	xor	a1,a1,s6
   13e38:	00b2e633          	or	a2,t0,a1
   13e3c:	60060a63          	beqz	a2,14450 <.LBB1_283>
   13e40:	00048893          	mv	a7,s1
   13e44:	03013483          	ld	s1,48(sp)
   13e48:	0014f493          	andi	s1,s1,1
   13e4c:	06013783          	ld	a5,96(sp)
   13e50:	50049663          	bnez	s1,1435c <.LBB1_266>
   13e54:	000a861b          	sext.w	a2,s5
   13e58:	14813683          	ld	a3,328(sp)
   13e5c:	00d64633          	xor	a2,a2,a3
   13e60:	00163613          	seqz	a2,a2
   13e64:	0187b6b3          	sltu	a3,a5,s8
   13e68:	00d67633          	and	a2,a2,a3
   13e6c:	00060863          	beqz	a2,13e7c <.LBB1_212>
   13e70:	ffcc4603          	lbu	a2,-4(s8)
   13e74:	00167613          	andi	a2,a2,1
   13e78:	4e061263          	bnez	a2,1435c <.LBB1_266>

0000000000013e7c <.LBB1_212>:
   13e7c:	00000493          	li	s1,0
   13e80:	4e00006f          	j	14360 <.LBB1_267>

0000000000013e84 <.LBB1_213>:
   13e84:	06013703          	ld	a4,96(sp)
   13e88:	02813583          	ld	a1,40(sp)
   13e8c:	5e00006f          	j	1446c <.LBB1_287>

0000000000013e90 <.LBB1_214>:
   13e90:	07813603          	ld	a2,120(sp)
   13e94:	4940006f          	j	14328 <.LBB1_264>

0000000000013e98 <.LBB1_215>:
   13e98:	00150513          	addi	a0,a0,1 # ffffffffffffc001 <__global_pointer$+0xfffffffffffe1139>
   13e9c:	08a13023          	sd	a0,128(sp)
   13ea0:	00100713          	li	a4,1

0000000000013ea4 <.LBB1_216>:
   13ea4:	060a8063          	beqz	s5,13f04 <.LBB1_221>
   13ea8:	06e13023          	sd	a4,96(sp)
   13eac:	07113823          	sd	a7,112(sp)

0000000000013eb0 <.LBB1_218>:
   13eb0:	00900c13          	li	s8,9
   13eb4:	1e010493          	addi	s1,sp,480

0000000000013eb8 <.LBB1_219>:
   13eb8:	00048913          	mv	s2,s1
   13ebc:	000a8b13          	mv	s6,s5
   13ec0:	00a00593          	li	a1,10
   13ec4:	000a8513          	mv	a0,s5
   13ec8:	574010ef          	jal	ra,1543c <__udivdi3>
   13ecc:	00050a93          	mv	s5,a0
   13ed0:	00a00593          	li	a1,10
   13ed4:	a01fe0ef          	jal	ra,128d4 <__muldi3>
   13ed8:	40ab053b          	subw	a0,s6,a0
   13edc:	03056513          	ori	a0,a0,48
   13ee0:	fff48493          	addi	s1,s1,-1
   13ee4:	fea90fa3          	sb	a0,-1(s2)
   13ee8:	fd6c68e3          	bltu	s8,s6,13eb8 <.LBB1_219>
   13eec:	00100513          	li	a0,1
   13ef0:	08813903          	ld	s2,136(sp)
   13ef4:	06813803          	ld	a6,104(sp)
   13ef8:	07013883          	ld	a7,112(sp)
   13efc:	06013703          	ld	a4,96(sp)
   13f00:	0100006f          	j	13f10 <.LBB1_222>

0000000000013f04 <.LBB1_221>:
   13f04:	00000513          	li	a0,0
   13f08:	1e010493          	addi	s1,sp,480
   13f0c:	06813803          	ld	a6,104(sp)

0000000000013f10 <.LBB1_222>:
   13f10:	01003633          	snez	a2,a6
   13f14:	000c859b          	sext.w	a1,s9
   13f18:	0005a693          	slti	a3,a1,0
   13f1c:	00d67633          	and	a2,a2,a3
   13f20:	4e0610e3          	bnez	a2,14c00 <.LBB1_394>
   13f24:	00080463          	beqz	a6,13f2c <.LBB1_225>
   13f28:	01197933          	and	s2,s2,a7

0000000000013f2c <.LBB1_225>:
   13f2c:	00b56633          	or	a2,a0,a1
   13f30:	02060263          	beqz	a2,13f54 <.LBB1_229>
   13f34:	00153513          	seqz	a0,a0
   13f38:	1e010613          	addi	a2,sp,480
   13f3c:	40960633          	sub	a2,a2,s1
   13f40:	00a60cb3          	add	s9,a2,a0
   13f44:	0195c463          	blt	a1,s9,13f4c <.LBB1_228>
   13f48:	00058c93          	mv	s9,a1

0000000000013f4c <.LBB1_228>:
   13f4c:	1e010513          	addi	a0,sp,480
   13f50:	0100006f          	j	13f60 <.LBB1_230>

0000000000013f54 <.LBB1_229>:
   13f54:	00000c93          	li	s9,0
   13f58:	1e010493          	addi	s1,sp,480
   13f5c:	00048513          	mv	a0,s1

0000000000013f60 <.LBB1_230>:
   13f60:	07813603          	ld	a2,120(sp)

0000000000013f64 <.LBB1_231>:
   13f64:	000c859b          	sext.w	a1,s9
   13f68:	40950533          	sub	a0,a0,s1
   13f6c:	00050b13          	mv	s6,a0
   13f70:	08a13423          	sd	a0,136(sp)
   13f74:	00a5c463          	blt	a1,a0,13f7c <.LBB1_233>
   13f78:	000c8b13          	mv	s6,s9

0000000000013f7c <.LBB1_233>:
   13f7c:	000b0b1b          	sext.w	s6,s6
   13f80:	40e4053b          	subw	a0,s0,a4
   13f84:	47654ee3          	blt	a0,s6,14c00 <.LBB1_394>
   13f88:	00eb0c3b          	addw	s8,s6,a4
   13f8c:	00060a9b          	sext.w	s5,a2
   13f90:	015c4463          	blt	s8,s5,13f98 <.LBB1_236>
   13f94:	000c0a93          	mv	s5,s8

0000000000013f98 <.LBB1_236>:
   13f98:	04b00c93          	li	s9,75
   13f9c:	475bc4e3          	blt	s7,s5,14c04 <.LBB1_395>
   13fa0:	00070b93          	mv	s7,a4
   13fa4:	02000593          	li	a1,32
   13fa8:	00098513          	mv	a0,s3
   13fac:	000a8613          	mv	a2,s5
   13fb0:	000c0693          	mv	a3,s8
   13fb4:	00090713          	mv	a4,s2
   13fb8:	645000ef          	jal	ra,14dfc <pad>
   13fbc:	0009c503          	lbu	a0,0(s3)
   13fc0:	02057513          	andi	a0,a0,32
   13fc4:	00051a63          	bnez	a0,13fd8 <.LBB1_239>
   13fc8:	08013503          	ld	a0,128(sp)
   13fcc:	000b8593          	mv	a1,s7
   13fd0:	00098613          	mv	a2,s3
   13fd4:	260010ef          	jal	ra,15234 <__fwritex>

0000000000013fd8 <.LBB1_239>:
   13fd8:	00010537          	lui	a0,0x10
   13fdc:	00a94733          	xor	a4,s2,a0
   13fe0:	03000593          	li	a1,48
   13fe4:	00098513          	mv	a0,s3
   13fe8:	000a8613          	mv	a2,s5
   13fec:	000c0693          	mv	a3,s8
   13ff0:	60d000ef          	jal	ra,14dfc <pad>
   13ff4:	08813b83          	ld	s7,136(sp)
   13ff8:	000b869b          	sext.w	a3,s7
   13ffc:	03000593          	li	a1,48
   14000:	00098513          	mv	a0,s3
   14004:	000b0613          	mv	a2,s6
   14008:	00000713          	li	a4,0
   1400c:	5f1000ef          	jal	ra,14dfc <pad>
   14010:	0009c503          	lbu	a0,0(s3)
   14014:	02057513          	andi	a0,a0,32
   14018:	00051a63          	bnez	a0,1402c <.LBB1_241>
   1401c:	00048513          	mv	a0,s1
   14020:	000b8593          	mv	a1,s7
   14024:	00098613          	mv	a2,s3
   14028:	20c010ef          	jal	ra,15234 <__fwritex>

000000000001402c <.LBB1_241>:
   1402c:	00002537          	lui	a0,0x2
   14030:	00a94733          	xor	a4,s2,a0
   14034:	02000593          	li	a1,32
   14038:	00098513          	mv	a0,s3
   1403c:	000a8613          	mv	a2,s5
   14040:	000c0693          	mv	a3,s8
   14044:	5b9000ef          	jal	ra,14dfc <pad>
   14048:	f51fe06f          	j	12f98 <.LBB1_1>

000000000001404c <.LBB1_242>:
   1404c:	00048513          	mv	a0,s1
   14050:	000a8593          	mv	a1,s5
   14054:	000b8613          	mv	a2,s7
   14058:	000b0693          	mv	a3,s6
   1405c:	13d030ef          	jal	ra,17998 <__addtf3>
   14060:	000b8613          	mv	a2,s7
   14064:	000b0693          	mv	a3,s6
   14068:	6fc040ef          	jal	ra,18764 <__subtf3>
   1406c:	00050493          	mv	s1,a0
   14070:	00058a93          	mv	s5,a1

0000000000014074 <.LBB1_243>:
   14074:	08813603          	ld	a2,136(sp)
   14078:	22c12703          	lw	a4,556(sp)
   1407c:	06070463          	beqz	a4,140e4 <.LBB1_247>
   14080:	00000c93          	li	s9,0
   14084:	41f75513          	srai	a0,a4,0x1f
   14088:	06e13423          	sd	a4,104(sp)
   1408c:	00a745b3          	xor	a1,a4,a0
   14090:	40a58b3b          	subw	s6,a1,a0
   14094:	20710513          	addi	a0,sp,519
   14098:	00900c13          	li	s8,9

000000000001409c <.LBB1_245>:
   1409c:	00050913          	mv	s2,a0
   140a0:	000b0b93          	mv	s7,s6
   140a4:	00a00593          	li	a1,10
   140a8:	000b0513          	mv	a0,s6
   140ac:	390010ef          	jal	ra,1543c <__udivdi3>
   140b0:	00050b13          	mv	s6,a0
   140b4:	00a00593          	li	a1,10
   140b8:	81dfe0ef          	jal	ra,128d4 <__muldi3>
   140bc:	40ab853b          	subw	a0,s7,a0
   140c0:	03056593          	ori	a1,a0,48
   140c4:	fff90513          	addi	a0,s2,-1
   140c8:	feb90fa3          	sb	a1,-1(s2)
   140cc:	001c8c93          	addi	s9,s9,1
   140d0:	fd7c66e3          	bltu	s8,s7,1409c <.LBB1_245>
   140d4:	20710913          	addi	s2,sp,519
   140d8:	08813603          	ld	a2,136(sp)
   140dc:	06813703          	ld	a4,104(sp)
   140e0:	000c9863          	bnez	s9,140f0 <.LBB1_248>

00000000000140e4 <.LBB1_247>:
   140e4:	03000513          	li	a0,48
   140e8:	20a10323          	sb	a0,518(sp)
   140ec:	20610513          	addi	a0,sp,518

00000000000140f0 <.LBB1_248>:
   140f0:	04013683          	ld	a3,64(sp)
   140f4:	0206fb13          	andi	s6,a3,32
   140f8:	04813583          	ld	a1,72(sp)
   140fc:	00258593          	addi	a1,a1,2 # 24002 <__global_pointer$+0x913a>
   14100:	04b13c23          	sd	a1,88(sp)
   14104:	03e75593          	srli	a1,a4,0x3e
   14108:	0025f593          	andi	a1,a1,2
   1410c:	02b5859b          	addiw	a1,a1,43
   14110:	feb50fa3          	sb	a1,-1(a0) # 1fff <.Lline_table_start0+0x1fff>
   14114:	00f6859b          	addiw	a1,a3,15
   14118:	ffe50693          	addi	a3,a0,-2
   1411c:	06d13023          	sd	a3,96(sp)
   14120:	feb50f23          	sb	a1,-2(a0)
   14124:	00867613          	andi	a2,a2,8
   14128:	06c13423          	sd	a2,104(sp)
   1412c:	20710c93          	addi	s9,sp,519
   14130:	15013c03          	ld	s8,336(sp)

0000000000014134 <.LBB1_249>:
   14134:	000c8b93          	mv	s7,s9
   14138:	00048513          	mv	a0,s1
   1413c:	000a8593          	mv	a1,s5
   14140:	35d040ef          	jal	ra,18c9c <__fixtfsi>
   14144:	00ac05b3          	add	a1,s8,a0
   14148:	00058583          	lb	a1,0(a1)
   1414c:	0165e5b3          	or	a1,a1,s6
   14150:	001c8c93          	addi	s9,s9,1
   14154:	00bb8023          	sb	a1,0(s7)
   14158:	719040ef          	jal	ra,19070 <__floatsitf>
   1415c:	00050613          	mv	a2,a0
   14160:	00058693          	mv	a3,a1
   14164:	00048513          	mv	a0,s1
   14168:	000a8593          	mv	a1,s5
   1416c:	5f8040ef          	jal	ra,18764 <__subtf3>
   14170:	00000613          	li	a2,0
   14174:	18013683          	ld	a3,384(sp)
   14178:	6d8020ef          	jal	ra,16850 <__multf3>
   1417c:	412c8633          	sub	a2,s9,s2
   14180:	00050493          	mv	s1,a0
   14184:	00058a93          	mv	s5,a1
   14188:	00100513          	li	a0,1
   1418c:	04a61663          	bne	a2,a0,141d8 <.LBB1_252>
   14190:	06813503          	ld	a0,104(sp)
   14194:	00153913          	seqz	s2,a0
   14198:	07013503          	ld	a0,112(sp)
   1419c:	00152c13          	slti	s8,a0,1
   141a0:	00048513          	mv	a0,s1
   141a4:	000a8593          	mv	a1,s5
   141a8:	00000613          	li	a2,0
   141ac:	00000693          	li	a3,0
   141b0:	0a0020ef          	jal	ra,16250 <__cmptf2>
   141b4:	00153513          	seqz	a0,a0
   141b8:	018975b3          	and	a1,s2,s8
   141bc:	15013c03          	ld	s8,336(sp)
   141c0:	20710913          	addi	s2,sp,519
   141c4:	00a5f533          	and	a0,a1,a0
   141c8:	00051863          	bnez	a0,141d8 <.LBB1_252>
   141cc:	002b8c93          	addi	s9,s7,2
   141d0:	02e00513          	li	a0,46
   141d4:	00ab80a3          	sb	a0,1(s7)

00000000000141d8 <.LBB1_252>:
   141d8:	00048513          	mv	a0,s1
   141dc:	000a8593          	mv	a1,s5
   141e0:	00000613          	li	a2,0
   141e4:	00000693          	li	a3,0
   141e8:	068020ef          	jal	ra,16250 <__cmptf2>
   141ec:	f40514e3          	bnez	a0,14134 <.LBB1_249>
   141f0:	20710513          	addi	a0,sp,519
   141f4:	06013583          	ld	a1,96(sp)
   141f8:	40b504b3          	sub	s1,a0,a1
   141fc:	05813683          	ld	a3,88(sp)
   14200:	00d48533          	add	a0,s1,a3
   14204:	800005b7          	lui	a1,0x80000
   14208:	ffd5859b          	addiw	a1,a1,-3 # 7ffffffd <__global_pointer$+0x7ffe5135>
   1420c:	40a585b3          	sub	a1,a1,a0
   14210:	08813c03          	ld	s8,136(sp)
   14214:	07013603          	ld	a2,112(sp)
   14218:	1ec5c4e3          	blt	a1,a2,14c00 <.LBB1_394>
   1421c:	00c03533          	snez	a0,a2
   14220:	0e813583          	ld	a1,232(sp)
   14224:	019585b3          	add	a1,a1,s9
   14228:	00c5a5b3          	slt	a1,a1,a2
   1422c:	00b57533          	and	a0,a0,a1
   14230:	412c8b33          	sub	s6,s9,s2
   14234:	00051663          	bnez	a0,14240 <.LBB1_256>
   14238:	000b0b93          	mv	s7,s6
   1423c:	0140006f          	j	14250 <.LBB1_257>

0000000000014240 <.LBB1_256>:
   14240:	08013503          	ld	a0,128(sp)
   14244:	0025051b          	addiw	a0,a0,2
   14248:	02051513          	slli	a0,a0,0x20
   1424c:	02055b93          	srli	s7,a0,0x20

0000000000014250 <.LBB1_257>:
   14250:	07813c83          	ld	s9,120(sp)
   14254:	009b8bb3          	add	s7,s7,s1
   14258:	01768abb          	addw	s5,a3,s7
   1425c:	000c8c9b          	sext.w	s9,s9
   14260:	02000593          	li	a1,32
   14264:	00098513          	mv	a0,s3
   14268:	000c8613          	mv	a2,s9
   1426c:	00068913          	mv	s2,a3
   14270:	000a8693          	mv	a3,s5
   14274:	000c0713          	mv	a4,s8
   14278:	385000ef          	jal	ra,14dfc <pad>
   1427c:	0009c503          	lbu	a0,0(s3)
   14280:	02057513          	andi	a0,a0,32
   14284:	00051a63          	bnez	a0,14298 <.LBB1_259>
   14288:	03813503          	ld	a0,56(sp)
   1428c:	00090593          	mv	a1,s2
   14290:	00098613          	mv	a2,s3
   14294:	7a1000ef          	jal	ra,15234 <__fwritex>

0000000000014298 <.LBB1_259>:
   14298:	00010537          	lui	a0,0x10
   1429c:	00ac4733          	xor	a4,s8,a0
   142a0:	03000593          	li	a1,48
   142a4:	00098513          	mv	a0,s3
   142a8:	000c8613          	mv	a2,s9
   142ac:	000a8693          	mv	a3,s5
   142b0:	34d000ef          	jal	ra,14dfc <pad>
   142b4:	0009c503          	lbu	a0,0(s3)
   142b8:	02057513          	andi	a0,a0,32
   142bc:	00051a63          	bnez	a0,142d0 <.LBB1_261>
   142c0:	20710513          	addi	a0,sp,519
   142c4:	000b0593          	mv	a1,s6
   142c8:	00098613          	mv	a2,s3
   142cc:	769000ef          	jal	ra,15234 <__fwritex>

00000000000142d0 <.LBB1_261>:
   142d0:	009b0b33          	add	s6,s6,s1
   142d4:	416b863b          	subw	a2,s7,s6
   142d8:	03000593          	li	a1,48
   142dc:	00098513          	mv	a0,s3
   142e0:	00000693          	li	a3,0
   142e4:	00000713          	li	a4,0
   142e8:	315000ef          	jal	ra,14dfc <pad>
   142ec:	0009c503          	lbu	a0,0(s3)
   142f0:	02057513          	andi	a0,a0,32
   142f4:	0c051ae3          	bnez	a0,14bc8 <.LBB1_391>
   142f8:	06013503          	ld	a0,96(sp)
   142fc:	00048593          	mv	a1,s1
   14300:	0c10006f          	j	14bc0 <.LBB1_390>

0000000000014304 <.LBB1_263>:
   14304:	07812603          	lw	a2,120(sp)
   14308:	02000593          	li	a1,32
   1430c:	00098513          	mv	a0,s3
   14310:	00000693          	li	a3,0
   14314:	08813903          	ld	s2,136(sp)
   14318:	00090713          	mv	a4,s2
   1431c:	2e1000ef          	jal	ra,14dfc <pad>
   14320:	07813603          	ld	a2,120(sp)
   14324:	00000493          	li	s1,0

0000000000014328 <.LBB1_264>:
   14328:	00002537          	lui	a0,0x2
   1432c:	00a94733          	xor	a4,s2,a0
   14330:	00060a9b          	sext.w	s5,a2
   14334:	0004849b          	sext.w	s1,s1
   14338:	02000593          	li	a1,32
   1433c:	00098513          	mv	a0,s3
   14340:	000a8613          	mv	a2,s5
   14344:	00048693          	mv	a3,s1
   14348:	2b5000ef          	jal	ra,14dfc <pad>
   1434c:	0154d463          	bge	s1,s5,14354 <.LBB1_265>
   14350:	c49fe06f          	j	12f98 <.LBB1_1>

0000000000014354 <.LBB1_265>:
   14354:	00048a93          	mv	s5,s1
   14358:	c41fe06f          	j	12f98 <.LBB1_1>

000000000001435c <.LBB1_266>:
   1435c:	00100493          	li	s1,1

0000000000014360 <.LBB1_267>:
   14360:	001ad61b          	srliw	a2,s5,0x1
   14364:	00c2c6b3          	xor	a3,t0,a2
   14368:	00b6e5b3          	or	a1,a3,a1
   1436c:	0c013683          	ld	a3,192(sp)
   14370:	00058463          	beqz	a1,14378 <.LBB1_269>
   14374:	0b013683          	ld	a3,176(sp)

0000000000014378 <.LBB1_269>:
   14378:	00c2f463          	bgeu	t0,a2,14380 <.LBB1_271>
   1437c:	0a813683          	ld	a3,168(sp)

0000000000014380 <.LBB1_271>:
   14380:	00000613          	li	a2,0
   14384:	03813583          	ld	a1,56(sp)
   14388:	02059663          	bnez	a1,143b4 <.LBB1_274>
   1438c:	02013583          	ld	a1,32(sp)
   14390:	0005c583          	lbu	a1,0(a1)
   14394:	02d00713          	li	a4,45
   14398:	00e59e63          	bne	a1,a4,143b4 <.LBB1_274>
   1439c:	00000613          	li	a2,0
   143a0:	0b813583          	ld	a1,184(sp)
   143a4:	13813703          	ld	a4,312(sp)
   143a8:	00e5c933          	xor	s2,a1,a4
   143ac:	00e6e6b3          	or	a3,a3,a4
   143b0:	0080006f          	j	143b8 <.LBB1_275>

00000000000143b4 <.LBB1_274>:
   143b4:	0b813903          	ld	s2,184(sp)

00000000000143b8 <.LBB1_275>:
   143b8:	405885bb          	subw	a1,a7,t0
   143bc:	02b13c23          	sd	a1,56(sp)
   143c0:	00bc2023          	sw	a1,0(s8)
   143c4:	00048513          	mv	a0,s1
   143c8:	00090593          	mv	a1,s2
   143cc:	5cc030ef          	jal	ra,17998 <__addtf3>
   143d0:	00048613          	mv	a2,s1
   143d4:	00090693          	mv	a3,s2
   143d8:	679010ef          	jal	ra,16250 <__cmptf2>
   143dc:	06050863          	beqz	a0,1444c <.LBB1_282>
   143e0:	03813503          	ld	a0,56(sp)
   143e4:	0155053b          	addw	a0,a0,s5
   143e8:	00ac2023          	sw	a0,0(s8)
   143ec:	14813583          	ld	a1,328(sp)
   143f0:	06013703          	ld	a4,96(sp)
   143f4:	14b56463          	bltu	a0,a1,1453c <.LBB1_300>
   143f8:	06812503          	lw	a0,104(sp)
   143fc:	00251513          	slli	a0,a0,0x2
   14400:	01013583          	ld	a1,16(sp)
   14404:	00a58533          	add	a0,a1,a0
   14408:	0a013583          	ld	a1,160(sp)
   1440c:	00a58533          	add	a0,a1,a0
   14410:	20710913          	addi	s2,sp,519
   14414:	3b9ad6b7          	lui	a3,0x3b9ad

0000000000014418 <.LBB1_278>:
   14418:	00052223          	sw	zero,4(a0) # 2004 <.Lline_table_start0+0x2004>
   1441c:	00e57863          	bgeu	a0,a4,1442c <.LBB1_280>
   14420:	ffc70593          	addi	a1,a4,-4
   14424:	fe072e23          	sw	zero,-4(a4)
   14428:	00058713          	mv	a4,a1

000000000001442c <.LBB1_280>:
   1442c:	00052583          	lw	a1,0(a0)
   14430:	0015859b          	addiw	a1,a1,1
   14434:	00b52023          	sw	a1,0(a0)
   14438:	9ff6861b          	addiw	a2,a3,-1537 # 3b9ac9ff <__global_pointer$+0x3b991b37>
   1443c:	ffc50513          	addi	a0,a0,-4
   14440:	fcb66ce3          	bltu	a2,a1,14418 <.LBB1_278>
   14444:	00450c13          	addi	s8,a0,4
   14448:	0f80006f          	j	14540 <.LBB1_301>

000000000001444c <.LBB1_282>:
   1444c:	20710913          	addi	s2,sp,519

0000000000014450 <.LBB1_283>:
   14450:	06013703          	ld	a4,96(sp)

0000000000014454 <.LBB1_284>:
   14454:	02813583          	ld	a1,40(sp)
   14458:	01813783          	ld	a5,24(sp)
   1445c:	004c0513          	addi	a0,s8,4
   14460:	01656463          	bltu	a0,s6,14468 <.LBB1_286>
   14464:	000b0513          	mv	a0,s6

0000000000014468 <.LBB1_286>:
   14468:	00050b13          	mv	s6,a0

000000000001446c <.LBB1_287>:
   1446c:	10013503          	ld	a0,256(sp)
   14470:	01650533          	add	a0,a0,s6
   14474:	40b50533          	sub	a0,a0,a1

0000000000014478 <.LBB1_288>:
   14478:	000b0693          	mv	a3,s6
   1447c:	00050c13          	mv	s8,a0
   14480:	01677a63          	bgeu	a4,s6,14494 <.LBB1_290>
   14484:	ffc6a583          	lw	a1,-4(a3)
   14488:	ffc68b13          	addi	s6,a3,-4
   1448c:	ffcc0513          	addi	a0,s8,-4
   14490:	fe0584e3          	beqz	a1,14478 <.LBB1_288>

0000000000014494 <.LBB1_290>:
   14494:	06700513          	li	a0,103
   14498:	06e13023          	sd	a4,96(sp)
   1449c:	05813583          	ld	a1,88(sp)
   144a0:	06d13423          	sd	a3,104(sp)
   144a4:	08a59263          	bne	a1,a0,14528 <.LBB1_298>
   144a8:	00079463          	bnez	a5,144b0 <.LBB1_293>
   144ac:	00100c93          	li	s9,1

00000000000144b0 <.LBB1_293>:
   144b0:	000c851b          	sext.w	a0,s9
   144b4:	00aba533          	slt	a0,s7,a0
   144b8:	ffcba593          	slti	a1,s7,-4
   144bc:	0015c593          	xori	a1,a1,1
   144c0:	00b57533          	and	a0,a0,a1
   144c4:	fffbc593          	not	a1,s7
   144c8:	04013603          	ld	a2,64(sp)
   144cc:	00c50633          	add	a2,a0,a2
   144d0:	ffe60613          	addi	a2,a2,-2
   144d4:	04c13023          	sd	a2,64(sp)
   144d8:	fff5051b          	addiw	a0,a0,-1
   144dc:	00b56533          	or	a0,a0,a1
   144e0:	08813583          	ld	a1,136(sp)
   144e4:	0085f593          	andi	a1,a1,8
   144e8:	01950cbb          	addw	s9,a0,s9
   144ec:	04059463          	bnez	a1,14534 <.LBB1_299>
   144f0:	00900b13          	li	s6,9
   144f4:	0ed77a63          	bgeu	a4,a3,145e8 <.LBB1_310>
   144f8:	ffc6a483          	lw	s1,-4(a3)
   144fc:	0e048663          	beqz	s1,145e8 <.LBB1_310>
   14500:	00048513          	mv	a0,s1
   14504:	09813583          	ld	a1,152(sp)
   14508:	bccfe0ef          	jal	ra,128d4 <__muldi3>
   1450c:	01f5159b          	slliw	a1,a0,0x1f
   14510:	0015551b          	srliw	a0,a0,0x1
   14514:	00b56533          	or	a0,a0,a1
   14518:	09013583          	ld	a1,144(sp)
   1451c:	08a5fc63          	bgeu	a1,a0,145b4 <.LBB1_308>
   14520:	00000b13          	li	s6,0
   14524:	0c40006f          	j	145e8 <.LBB1_310>

0000000000014528 <.LBB1_298>:
   14528:	08813c03          	ld	s8,136(sp)
   1452c:	008c7593          	andi	a1,s8,8
   14530:	1080006f          	j	14638 <.LBB1_315>

0000000000014534 <.LBB1_299>:
   14534:	08813c03          	ld	s8,136(sp)
   14538:	1000006f          	j	14638 <.LBB1_315>

000000000001453c <.LBB1_300>:
   1453c:	20710913          	addi	s2,sp,519

0000000000014540 <.LBB1_301>:
   14540:	00072483          	lw	s1,0(a4)
   14544:	07013503          	ld	a0,112(sp)
   14548:	40e50533          	sub	a0,a0,a4
   1454c:	00255513          	srli	a0,a0,0x2
   14550:	00351593          	slli	a1,a0,0x3
   14554:	00a58bbb          	addw	s7,a1,a0
   14558:	00a00513          	li	a0,10
   1455c:	eea4ece3          	bltu	s1,a0,14454 <.LBB1_284>
   14560:	00070a93          	mv	s5,a4
   14564:	00a00513          	li	a0,10

0000000000014568 <.LBB1_303>:
   14568:	00a00593          	li	a1,10
   1456c:	b68fe0ef          	jal	ra,128d4 <__muldi3>
   14570:	0005059b          	sext.w	a1,a0
   14574:	001b8b9b          	addiw	s7,s7,1
   14578:	feb4f8e3          	bgeu	s1,a1,14568 <.LBB1_303>
   1457c:	000a8713          	mv	a4,s5
   14580:	ed5ff06f          	j	14454 <.LBB1_284>

0000000000014584 <.LBB1_305>:
   14584:	1e013503          	ld	a0,480(sp)
   14588:	00000a93          	li	s5,0
   1458c:	01452023          	sw	s4,0(a0)
   14590:	a09fe06f          	j	12f98 <.LBB1_1>

0000000000014594 <.LBB1_306>:
   14594:	1e013503          	ld	a0,480(sp)
   14598:	00000a93          	li	s5,0
   1459c:	01451023          	sh	s4,0(a0)
   145a0:	9f9fe06f          	j	12f98 <.LBB1_1>

00000000000145a4 <.LBB1_307>:
   145a4:	1e013503          	ld	a0,480(sp)
   145a8:	00000a93          	li	s5,0
   145ac:	01450023          	sb	s4,0(a0)
   145b0:	9e9fe06f          	j	12f98 <.LBB1_1>

00000000000145b4 <.LBB1_308>:
   145b4:	00000b13          	li	s6,0
   145b8:	00a00a93          	li	s5,10

00000000000145bc <.LBB1_309>:
   145bc:	00a00593          	li	a1,10
   145c0:	000a8513          	mv	a0,s5
   145c4:	b10fe0ef          	jal	ra,128d4 <__muldi3>
   145c8:	00050a93          	mv	s5,a0
   145cc:	0015559b          	srliw	a1,a0,0x1
   145d0:	00159593          	slli	a1,a1,0x1
   145d4:	001b0b1b          	addiw	s6,s6,1
   145d8:	02049513          	slli	a0,s1,0x20
   145dc:	02055513          	srli	a0,a0,0x20
   145e0:	7f8010ef          	jal	ra,15dd8 <__umoddi3>
   145e4:	fc050ce3          	beqz	a0,145bc <.LBB1_309>

00000000000145e8 <.LBB1_310>:
   145e8:	04013503          	ld	a0,64(sp)
   145ec:	fdf57613          	andi	a2,a0,-33
   145f0:	402c5513          	srai	a0,s8,0x2
   145f4:	001c1c13          	slli	s8,s8,0x1
   145f8:	00ac0533          	add	a0,s8,a0
   145fc:	020b1593          	slli	a1,s6,0x20
   14600:	0205d593          	srli	a1,a1,0x20
   14604:	04600693          	li	a3,70
   14608:	00d60463          	beq	a2,a3,14610 <.LBB1_312>
   1460c:	01750533          	add	a0,a0,s7

0000000000014610 <.LBB1_312>:
   14610:	40b50533          	sub	a0,a0,a1
   14614:	ff750513          	addi	a0,a0,-9
   14618:	00a025b3          	sgtz	a1,a0
   1461c:	40b005b3          	neg	a1,a1
   14620:	00a5f533          	and	a0,a1,a0
   14624:	08813c03          	ld	s8,136(sp)
   14628:	01954463          	blt	a0,s9,14630 <.LBB1_314>
   1462c:	000c8513          	mv	a0,s9

0000000000014630 <.LBB1_314>:
   14630:	00000593          	li	a1,0
   14634:	00050c93          	mv	s9,a0

0000000000014638 <.LBB1_315>:
   14638:	04b13c23          	sd	a1,88(sp)
   1463c:	00bce533          	or	a0,s9,a1
   14640:	0005051b          	sext.w	a0,a0
   14644:	09913023          	sd	s9,128(sp)
   14648:	000c8c9b          	sext.w	s9,s9
   1464c:	02a13823          	sd	a0,48(sp)
   14650:	00a03533          	snez	a0,a0
   14654:	800005b7          	lui	a1,0x80000
   14658:	ffe5859b          	addiw	a1,a1,-2 # 7ffffffe <__global_pointer$+0x7ffe5136>
   1465c:	40a585b3          	sub	a1,a1,a0
   14660:	04813483          	ld	s1,72(sp)
   14664:	03913c23          	sd	s9,56(sp)
   14668:	5995cc63          	blt	a1,s9,14c00 <.LBB1_394>
   1466c:	08013583          	ld	a1,128(sp)
   14670:	00a58533          	add	a0,a1,a0
   14674:	0015079b          	addiw	a5,a0,1
   14678:	04013503          	ld	a0,64(sp)
   1467c:	fdf57c93          	andi	s9,a0,-33
   14680:	40f405bb          	subw	a1,s0,a5
   14684:	04600513          	li	a0,70
   14688:	00ac9c63          	bne	s9,a0,146a0 <.LBB1_319>
   1468c:	5775ca63          	blt	a1,s7,14c00 <.LBB1_394>
   14690:	01702533          	sgtz	a0,s7
   14694:	40a00533          	neg	a0,a0
   14698:	01757533          	and	a0,a0,s7
   1469c:	0fc0006f          	j	14798 <.LBB1_328>

00000000000146a0 <.LBB1_319>:
   146a0:	00b13823          	sd	a1,16(sp)
   146a4:	00f13c23          	sd	a5,24(sp)
   146a8:	03913423          	sd	s9,40(sp)
   146ac:	040b8e63          	beqz	s7,14708 <.LBB1_322>
   146b0:	41fbd513          	srai	a0,s7,0x1f
   146b4:	00abc4b3          	xor	s1,s7,a0
   146b8:	40a484bb          	subw	s1,s1,a0
   146bc:	20710913          	addi	s2,sp,519
   146c0:	00090c13          	mv	s8,s2
   146c4:	00900b13          	li	s6,9
   146c8:	00200c93          	li	s9,2

00000000000146cc <.LBB1_321>:
   146cc:	00048a93          	mv	s5,s1
   146d0:	00a00593          	li	a1,10
   146d4:	00048513          	mv	a0,s1
   146d8:	565000ef          	jal	ra,1543c <__udivdi3>
   146dc:	00050493          	mv	s1,a0
   146e0:	00a00593          	li	a1,10
   146e4:	9f0fe0ef          	jal	ra,128d4 <__muldi3>
   146e8:	40aa853b          	subw	a0,s5,a0
   146ec:	03056593          	ori	a1,a0,48
   146f0:	fff90513          	addi	a0,s2,-1
   146f4:	feb90fa3          	sb	a1,-1(s2)
   146f8:	fffc0c13          	addi	s8,s8,-1
   146fc:	00050913          	mv	s2,a0
   14700:	fd5b66e3          	bltu	s6,s5,146cc <.LBB1_321>
   14704:	0100006f          	j	14714 <.LBB1_323>

0000000000014708 <.LBB1_322>:
   14708:	20710513          	addi	a0,sp,519
   1470c:	00050c13          	mv	s8,a0
   14710:	00200c93          	li	s9,2

0000000000014714 <.LBB1_323>:
   14714:	20710693          	addi	a3,sp,519
   14718:	418685b3          	sub	a1,a3,s8
   1471c:	20710913          	addi	s2,sp,519
   14720:	00100613          	li	a2,1
   14724:	02b64863          	blt	a2,a1,14754 <.LBB1_326>
   14728:	40a68633          	sub	a2,a3,a0
   1472c:	03000713          	li	a4,48
   14730:	08813c03          	ld	s8,136(sp)
   14734:	01813783          	ld	a5,24(sp)
   14738:	01013803          	ld	a6,16(sp)

000000000001473c <.LBB1_325>:
   1473c:	fff50593          	addi	a1,a0,-1
   14740:	00160613          	addi	a2,a2,1
   14744:	fee50fa3          	sb	a4,-1(a0)
   14748:	00058513          	mv	a0,a1
   1474c:	ff9648e3          	blt	a2,s9,1473c <.LBB1_325>
   14750:	0140006f          	j	14764 <.LBB1_327>

0000000000014754 <.LBB1_326>:
   14754:	00050593          	mv	a1,a0
   14758:	08813c03          	ld	s8,136(sp)
   1475c:	01813783          	ld	a5,24(sp)
   14760:	01013803          	ld	a6,16(sp)

0000000000014764 <.LBB1_327>:
   14764:	03ebd513          	srli	a0,s7,0x3e
   14768:	00257513          	andi	a0,a0,2
   1476c:	02b5051b          	addiw	a0,a0,43
   14770:	fea58fa3          	sb	a0,-1(a1)
   14774:	ffe58b93          	addi	s7,a1,-2
   14778:	41768533          	sub	a0,a3,s7
   1477c:	02081613          	slli	a2,a6,0x20
   14780:	02065613          	srli	a2,a2,0x20
   14784:	04013683          	ld	a3,64(sp)
   14788:	fed58f23          	sb	a3,-2(a1)
   1478c:	04813483          	ld	s1,72(sp)
   14790:	02813c83          	ld	s9,40(sp)
   14794:	46a64663          	blt	a2,a0,14c00 <.LBB1_394>

0000000000014798 <.LBB1_328>:
   14798:	00f5053b          	addw	a0,a0,a5
   1479c:	0084c5b3          	xor	a1,s1,s0
   147a0:	46a5c063          	blt	a1,a0,14c00 <.LBB1_394>
   147a4:	00950abb          	addw	s5,a0,s1
   147a8:	07812b03          	lw	s6,120(sp)
   147ac:	02000593          	li	a1,32
   147b0:	00098513          	mv	a0,s3
   147b4:	000b0613          	mv	a2,s6
   147b8:	000a8693          	mv	a3,s5
   147bc:	000c0713          	mv	a4,s8
   147c0:	63c000ef          	jal	ra,14dfc <pad>
   147c4:	0009c503          	lbu	a0,0(s3)
   147c8:	02057513          	andi	a0,a0,32
   147cc:	00051a63          	bnez	a0,147e0 <.LBB1_331>
   147d0:	02013503          	ld	a0,32(sp)
   147d4:	00048593          	mv	a1,s1
   147d8:	00098613          	mv	a2,s3
   147dc:	259000ef          	jal	ra,15234 <__fwritex>

00000000000147e0 <.LBB1_331>:
   147e0:	00010537          	lui	a0,0x10
   147e4:	00ac4733          	xor	a4,s8,a0
   147e8:	03000593          	li	a1,48
   147ec:	00098513          	mv	a0,s3
   147f0:	000b0613          	mv	a2,s6
   147f4:	000a8693          	mv	a3,s5
   147f8:	604000ef          	jal	ra,14dfc <pad>
   147fc:	04600513          	li	a0,70
   14800:	20ac9263          	bne	s9,a0,14a04 <.LBB1_363>
   14804:	07013503          	ld	a0,112(sp)
   14808:	00050c13          	mv	s8,a0
   1480c:	03000b13          	li	s6,48
   14810:	06013583          	ld	a1,96(sp)
   14814:	00b56463          	bltu	a0,a1,1481c <.LBB1_334>
   14818:	00058c13          	mv	s8,a1

000000000001481c <.LBB1_334>:
   1481c:	000c0b93          	mv	s7,s8
   14820:	07813023          	sd	s8,96(sp)

0000000000014824 <.LBB1_335>:
   14824:	000be483          	lwu	s1,0(s7)
   14828:	06048463          	beqz	s1,14890 <.LBB1_340>
   1482c:	ff600c93          	li	s9,-10
   14830:	21010513          	addi	a0,sp,528
   14834:	00900c13          	li	s8,9

0000000000014838 <.LBB1_337>:
   14838:	00048b13          	mv	s6,s1
   1483c:	00050913          	mv	s2,a0
   14840:	00a00593          	li	a1,10
   14844:	00048513          	mv	a0,s1
   14848:	3f5000ef          	jal	ra,1543c <__udivdi3>
   1484c:	00050493          	mv	s1,a0
   14850:	00a00593          	li	a1,10
   14854:	880fe0ef          	jal	ra,128d4 <__muldi3>
   14858:	40ab053b          	subw	a0,s6,a0
   1485c:	03056593          	ori	a1,a0,48
   14860:	fff90513          	addi	a0,s2,-1
   14864:	feb90fa3          	sb	a1,-1(s2)
   14868:	001c8c93          	addi	s9,s9,1
   1486c:	fd6c66e3          	bltu	s8,s6,14838 <.LBB1_337>
   14870:	06013c03          	ld	s8,96(sp)
   14874:	038b8e63          	beq	s7,s8,148b0 <.LBB1_343>
   14878:	419005b3          	neg	a1,s9
   1487c:	20710913          	addi	s2,sp,519
   14880:	03000b13          	li	s6,48
   14884:	00200613          	li	a2,2
   14888:	00c5d863          	bge	a1,a2,14898 <.LBB1_341>
   1488c:	03c0006f          	j	148c8 <.LBB1_345>

0000000000014890 <.LBB1_340>:
   14890:	21010513          	addi	a0,sp,528
   14894:	038b8663          	beq	s7,s8,148c0 <.LBB1_344>

0000000000014898 <.LBB1_341>:
   14898:	00050593          	mv	a1,a0

000000000001489c <.LBB1_342>:
   1489c:	fff58513          	addi	a0,a1,-1
   148a0:	ff658fa3          	sb	s6,-1(a1)
   148a4:	00050593          	mv	a1,a0
   148a8:	fea96ae3          	bltu	s2,a0,1489c <.LBB1_342>
   148ac:	01c0006f          	j	148c8 <.LBB1_345>

00000000000148b0 <.LBB1_343>:
   148b0:	20710913          	addi	s2,sp,519
   148b4:	03000b13          	li	s6,48
   148b8:	ff600593          	li	a1,-10
   148bc:	00bc9663          	bne	s9,a1,148c8 <.LBB1_345>

00000000000148c0 <.LBB1_344>:
   148c0:	216107a3          	sb	s6,527(sp)
   148c4:	20f10513          	addi	a0,sp,527

00000000000148c8 <.LBB1_345>:
   148c8:	0009c583          	lbu	a1,0(s3)
   148cc:	0205f593          	andi	a1,a1,32
   148d0:	00059a63          	bnez	a1,148e4 <.LBB1_347>
   148d4:	21010593          	addi	a1,sp,528
   148d8:	40a585b3          	sub	a1,a1,a0
   148dc:	00098613          	mv	a2,s3
   148e0:	155000ef          	jal	ra,15234 <__fwritex>

00000000000148e4 <.LBB1_347>:
   148e4:	004b8b93          	addi	s7,s7,4
   148e8:	08013c83          	ld	s9,128(sp)
   148ec:	07013503          	ld	a0,112(sp)
   148f0:	f3757ae3          	bgeu	a0,s7,14824 <.LBB1_335>
   148f4:	00900c13          	li	s8,9
   148f8:	03013503          	ld	a0,48(sp)
   148fc:	02050063          	beqz	a0,1491c <.LBB1_351>
   14900:	0009c503          	lbu	a0,0(s3)
   14904:	02057513          	andi	a0,a0,32
   14908:	00051a63          	bnez	a0,1491c <.LBB1_351>
   1490c:	00100593          	li	a1,1
   14910:	0f013503          	ld	a0,240(sp)
   14914:	00098613          	mv	a2,s3
   14918:	11d000ef          	jal	ra,15234 <__fwritex>

000000000001491c <.LBB1_351>:
   1491c:	06813503          	ld	a0,104(sp)
   14920:	00abb533          	sltu	a0,s7,a0
   14924:	03813583          	ld	a1,56(sp)
   14928:	00b025b3          	sgtz	a1,a1
   1492c:	00b57533          	and	a0,a0,a1
   14930:	0a050a63          	beqz	a0,149e4 <.LBB1_362>

0000000000014934 <.LBB1_352>:
   14934:	000be483          	lwu	s1,0(s7)
   14938:	21010513          	addi	a0,sp,528
   1493c:	04048263          	beqz	s1,14980 <.LBB1_355>

0000000000014940 <.LBB1_353>:
   14940:	00050913          	mv	s2,a0
   14944:	00048b13          	mv	s6,s1
   14948:	00a00593          	li	a1,10
   1494c:	00048513          	mv	a0,s1
   14950:	2ed000ef          	jal	ra,1543c <__udivdi3>
   14954:	00050493          	mv	s1,a0
   14958:	00a00593          	li	a1,10
   1495c:	f79fd0ef          	jal	ra,128d4 <__muldi3>
   14960:	40ab053b          	subw	a0,s6,a0
   14964:	03056593          	ori	a1,a0,48
   14968:	fff90513          	addi	a0,s2,-1
   1496c:	feb90fa3          	sb	a1,-1(s2)
   14970:	fd6c68e3          	bltu	s8,s6,14940 <.LBB1_353>
   14974:	20710913          	addi	s2,sp,519
   14978:	03000b13          	li	s6,48
   1497c:	00a97c63          	bgeu	s2,a0,14994 <.LBB1_357>

0000000000014980 <.LBB1_355>:
   14980:	00050593          	mv	a1,a0

0000000000014984 <.LBB1_356>:
   14984:	fff58513          	addi	a0,a1,-1
   14988:	ff658fa3          	sb	s6,-1(a1)
   1498c:	00050593          	mv	a1,a0
   14990:	fea96ae3          	bltu	s2,a0,14984 <.LBB1_356>

0000000000014994 <.LBB1_357>:
   14994:	0009c583          	lbu	a1,0(s3)
   14998:	0205f593          	andi	a1,a1,32
   1499c:	000c849b          	sext.w	s1,s9
   149a0:	02059263          	bnez	a1,149c4 <.LBB1_361>
   149a4:	00900613          	li	a2,9
   149a8:	00048593          	mv	a1,s1
   149ac:	00c4c463          	blt	s1,a2,149b4 <.LBB1_360>
   149b0:	00900593          	li	a1,9

00000000000149b4 <.LBB1_360>:
   149b4:	02059593          	slli	a1,a1,0x20
   149b8:	0205d593          	srli	a1,a1,0x20
   149bc:	00098613          	mv	a2,s3
   149c0:	075000ef          	jal	ra,15234 <__fwritex>

00000000000149c4 <.LBB1_361>:
   149c4:	004b8b93          	addi	s7,s7,4
   149c8:	06813503          	ld	a0,104(sp)
   149cc:	00abb533          	sltu	a0,s7,a0
   149d0:	00a4a593          	slti	a1,s1,10
   149d4:	0015c593          	xori	a1,a1,1
   149d8:	00b57533          	and	a0,a0,a1
   149dc:	ff7c8c9b          	addiw	s9,s9,-9
   149e0:	f4051ae3          	bnez	a0,14934 <.LBB1_352>

00000000000149e4 <.LBB1_362>:
   149e4:	009c861b          	addiw	a2,s9,9
   149e8:	03000593          	li	a1,48
   149ec:	00900693          	li	a3,9
   149f0:	00098513          	mv	a0,s3
   149f4:	00000713          	li	a4,0
   149f8:	404000ef          	jal	ra,14dfc <pad>
   149fc:	08813c03          	ld	s8,136(sp)
   14a00:	1c80006f          	j	14bc8 <.LBB1_391>

0000000000014a04 <.LBB1_363>:
   14a04:	07713823          	sd	s7,112(sp)
   14a08:	06013603          	ld	a2,96(sp)
   14a0c:	06813503          	ld	a0,104(sp)
   14a10:	00a66663          	bltu	a2,a0,14a1c <.LBB1_365>
   14a14:	00460513          	addi	a0,a2,4
   14a18:	06a13423          	sd	a0,104(sp)

0000000000014a1c <.LBB1_365>:
   14a1c:	08013c83          	ld	s9,128(sp)
   14a20:	03813503          	ld	a0,56(sp)
   14a24:	16054463          	bltz	a0,14b8c <.LBB1_388>
   14a28:	00060493          	mv	s1,a2

0000000000014a2c <.LBB1_367>:
   14a2c:	0004eb03          	lwu	s6,0(s1)
   14a30:	060b0263          	beqz	s6,14a94 <.LBB1_372>
   14a34:	08913023          	sd	s1,128(sp)
   14a38:	00000c13          	li	s8,0
   14a3c:	20f10913          	addi	s2,sp,527
   14a40:	00900493          	li	s1,9

0000000000014a44 <.LBB1_369>:
   14a44:	000b0b93          	mv	s7,s6
   14a48:	00a00593          	li	a1,10
   14a4c:	000b0513          	mv	a0,s6
   14a50:	1ed000ef          	jal	ra,1543c <__udivdi3>
   14a54:	00050b13          	mv	s6,a0
   14a58:	00a00593          	li	a1,10
   14a5c:	e79fd0ef          	jal	ra,128d4 <__muldi3>
   14a60:	40ab853b          	subw	a0,s7,a0
   14a64:	03056513          	ori	a0,a0,48
   14a68:	00a90023          	sb	a0,0(s2)
   14a6c:	001c0c13          	addi	s8,s8,1
   14a70:	fff90913          	addi	s2,s2,-1
   14a74:	fd74e8e3          	bltu	s1,s7,14a44 <.LBB1_369>
   14a78:	20710913          	addi	s2,sp,519
   14a7c:	06013603          	ld	a2,96(sp)
   14a80:	08013483          	ld	s1,128(sp)
   14a84:	000c0863          	beqz	s8,14a94 <.LBB1_372>
   14a88:	21010513          	addi	a0,sp,528
   14a8c:	41850bb3          	sub	s7,a0,s8
   14a90:	0100006f          	j	14aa0 <.LBB1_373>

0000000000014a94 <.LBB1_372>:
   14a94:	03000513          	li	a0,48
   14a98:	20a107a3          	sb	a0,527(sp)
   14a9c:	20f10b93          	addi	s7,sp,527

0000000000014aa0 <.LBB1_373>:
   14aa0:	02c48263          	beq	s1,a2,14ac4 <.LBB1_377>
   14aa4:	09797263          	bgeu	s2,s7,14b28 <.LBB1_382>
   14aa8:	03000513          	li	a0,48
   14aac:	08813c03          	ld	s8,136(sp)

0000000000014ab0 <.LBB1_376>:
   14ab0:	fffb8b13          	addi	s6,s7,-1
   14ab4:	feab8fa3          	sb	a0,-1(s7)
   14ab8:	000b0b93          	mv	s7,s6
   14abc:	ff696ae3          	bltu	s2,s6,14ab0 <.LBB1_376>
   14ac0:	0700006f          	j	14b30 <.LBB1_383>

0000000000014ac4 <.LBB1_377>:
   14ac4:	0009c503          	lbu	a0,0(s3)
   14ac8:	02057513          	andi	a0,a0,32
   14acc:	00051c63          	bnez	a0,14ae4 <.LBB1_379>
   14ad0:	00100593          	li	a1,1
   14ad4:	000b8513          	mv	a0,s7
   14ad8:	00098613          	mv	a2,s3
   14adc:	758000ef          	jal	ra,15234 <__fwritex>
   14ae0:	06013603          	ld	a2,96(sp)

0000000000014ae4 <.LBB1_379>:
   14ae4:	05813503          	ld	a0,88(sp)
   14ae8:	00153513          	seqz	a0,a0
   14aec:	000c859b          	sext.w	a1,s9
   14af0:	0015a593          	slti	a1,a1,1
   14af4:	00b57533          	and	a0,a0,a1
   14af8:	001b8b13          	addi	s6,s7,1
   14afc:	08813c03          	ld	s8,136(sp)
   14b00:	02051863          	bnez	a0,14b30 <.LBB1_383>
   14b04:	0009c503          	lbu	a0,0(s3)
   14b08:	02057513          	andi	a0,a0,32
   14b0c:	02051263          	bnez	a0,14b30 <.LBB1_383>
   14b10:	00100593          	li	a1,1
   14b14:	0f013503          	ld	a0,240(sp)
   14b18:	00098613          	mv	a2,s3
   14b1c:	718000ef          	jal	ra,15234 <__fwritex>
   14b20:	06013603          	ld	a2,96(sp)
   14b24:	00c0006f          	j	14b30 <.LBB1_383>

0000000000014b28 <.LBB1_382>:
   14b28:	000b8b13          	mv	s6,s7
   14b2c:	08813c03          	ld	s8,136(sp)

0000000000014b30 <.LBB1_383>:
   14b30:	0009c503          	lbu	a0,0(s3)
   14b34:	02057513          	andi	a0,a0,32
   14b38:	21010593          	addi	a1,sp,528
   14b3c:	41658933          	sub	s2,a1,s6
   14b40:	02051463          	bnez	a0,14b68 <.LBB1_387>
   14b44:	020c9513          	slli	a0,s9,0x20
   14b48:	02055513          	srli	a0,a0,0x20
   14b4c:	00090593          	mv	a1,s2
   14b50:	00a94463          	blt	s2,a0,14b58 <.LBB1_386>
   14b54:	00050593          	mv	a1,a0

0000000000014b58 <.LBB1_386>:
   14b58:	000b0513          	mv	a0,s6
   14b5c:	00098613          	mv	a2,s3
   14b60:	6d4000ef          	jal	ra,15234 <__fwritex>
   14b64:	06013603          	ld	a2,96(sp)

0000000000014b68 <.LBB1_387>:
   14b68:	412c8cbb          	subw	s9,s9,s2
   14b6c:	00448493          	addi	s1,s1,4
   14b70:	06813503          	ld	a0,104(sp)
   14b74:	00a4b533          	sltu	a0,s1,a0
   14b78:	000ca593          	slti	a1,s9,0
   14b7c:	0015c593          	xori	a1,a1,1
   14b80:	00b57533          	and	a0,a0,a1
   14b84:	20710913          	addi	s2,sp,519
   14b88:	ea0512e3          	bnez	a0,14a2c <.LBB1_367>

0000000000014b8c <.LBB1_388>:
   14b8c:	012c861b          	addiw	a2,s9,18
   14b90:	03000593          	li	a1,48
   14b94:	01200693          	li	a3,18
   14b98:	00098513          	mv	a0,s3
   14b9c:	00000713          	li	a4,0
   14ba0:	25c000ef          	jal	ra,14dfc <pad>
   14ba4:	0009c503          	lbu	a0,0(s3)
   14ba8:	02057513          	andi	a0,a0,32
   14bac:	00051e63          	bnez	a0,14bc8 <.LBB1_391>
   14bb0:	20710513          	addi	a0,sp,519
   14bb4:	07013603          	ld	a2,112(sp)
   14bb8:	40c505b3          	sub	a1,a0,a2
   14bbc:	00060513          	mv	a0,a2

0000000000014bc0 <.LBB1_390>:
   14bc0:	00098613          	mv	a2,s3
   14bc4:	670000ef          	jal	ra,15234 <__fwritex>

0000000000014bc8 <.LBB1_391>:
   14bc8:	07813903          	ld	s2,120(sp)
   14bcc:	00002537          	lui	a0,0x2
   14bd0:	00ac4733          	xor	a4,s8,a0
   14bd4:	0009091b          	sext.w	s2,s2
   14bd8:	02000593          	li	a1,32
   14bdc:	00098513          	mv	a0,s3
   14be0:	00090613          	mv	a2,s2
   14be4:	000a8693          	mv	a3,s5
   14be8:	214000ef          	jal	ra,14dfc <pad>
   14bec:	01594463          	blt	s2,s5,14bf4 <.LBB1_393>
   14bf0:	00090a93          	mv	s5,s2

0000000000014bf4 <.LBB1_393>:
   14bf4:	04b00c93          	li	s9,75
   14bf8:	000ac663          	bltz	s5,14c04 <.LBB1_395>
   14bfc:	b9cfe06f          	j	12f98 <.LBB1_1>

0000000000014c00 <.LBB1_394>:
   14c00:	04b00c93          	li	s9,75

0000000000014c04 <.LBB1_395>:
   14c04:	dd1fd0ef          	jal	ra,129d4 <__errno_location>
   14c08:	01952023          	sw	s9,0(a0) # 2000 <.Lline_table_start0+0x2000>

0000000000014c0c <.LBB1_396>:
   14c0c:	fff00a13          	li	s4,-1

0000000000014c10 <.LBB1_397>:
   14c10:	000a0513          	mv	a0,s4
   14c14:	000015b7          	lui	a1,0x1
   14c18:	7705859b          	addiw	a1,a1,1904 # 1770 <.Lline_table_start0+0x1770>
   14c1c:	00b10133          	add	sp,sp,a1
   14c20:	7e813083          	ld	ra,2024(sp)
   14c24:	7e013403          	ld	s0,2016(sp)
   14c28:	7d813483          	ld	s1,2008(sp)
   14c2c:	7d013903          	ld	s2,2000(sp)
   14c30:	7c813983          	ld	s3,1992(sp)
   14c34:	7c013a03          	ld	s4,1984(sp)
   14c38:	7b813a83          	ld	s5,1976(sp)
   14c3c:	7b013b03          	ld	s6,1968(sp)
   14c40:	7a813b83          	ld	s7,1960(sp)
   14c44:	7a013c03          	ld	s8,1952(sp)
   14c48:	79813c83          	ld	s9,1944(sp)
   14c4c:	79013d03          	ld	s10,1936(sp)
   14c50:	78813d83          	ld	s11,1928(sp)
   14c54:	7f010113          	addi	sp,sp,2032
   14c58:	00008067          	ret

0000000000014c5c <.LBB1_398>:
   14c5c:	fa099ae3          	bnez	s3,14c10 <.LBB1_397>
   14c60:	19013503          	ld	a0,400(sp)
   14c64:	04050463          	beqz	a0,14cac <.LBB1_404>
   14c68:	16013403          	ld	s0,352(sp)
   14c6c:	00440413          	addi	s0,s0,4
   14c70:	16813483          	ld	s1,360(sp)
   14c74:	01048493          	addi	s1,s1,16
   14c78:	ff700913          	li	s2,-9
   14c7c:	17013983          	ld	s3,368(sp)

0000000000014c80 <.LBB1_401>:
   14c80:	00042583          	lw	a1,0(s0)
   14c84:	02058863          	beqz	a1,14cb4 <.LBB1_405>
   14c88:	00048513          	mv	a0,s1
   14c8c:	00098613          	mv	a2,s3
   14c90:	058000ef          	jal	ra,14ce8 <pop_arg>
   14c94:	00440413          	addi	s0,s0,4
   14c98:	00190913          	addi	s2,s2,1
   14c9c:	01048493          	addi	s1,s1,16
   14ca0:	fe0910e3          	bnez	s2,14c80 <.LBB1_401>
   14ca4:	00100a13          	li	s4,1
   14ca8:	f69ff06f          	j	14c10 <.LBB1_397>

0000000000014cac <.LBB1_404>:
   14cac:	00000a13          	li	s4,0
   14cb0:	f61ff06f          	j	14c10 <.LBB1_397>

0000000000014cb4 <.LBB1_405>:
   14cb4:	00a90513          	addi	a0,s2,10
   14cb8:	00900593          	li	a1,9
   14cbc:	00100a13          	li	s4,1
   14cc0:	f4a5e8e3          	bltu	a1,a0,14c10 <.LBB1_397>
   14cc4:	41200533          	neg	a0,s2

0000000000014cc8 <.LBB1_407>:
   14cc8:	00042583          	lw	a1,0(s0)
   14ccc:	00059a63          	bnez	a1,14ce0 <.LBB1_409>
   14cd0:	fff50513          	addi	a0,a0,-1
   14cd4:	00440413          	addi	s0,s0,4
   14cd8:	fe0518e3          	bnez	a0,14cc8 <.LBB1_407>
   14cdc:	f35ff06f          	j	14c10 <.LBB1_397>

0000000000014ce0 <.LBB1_409>:
   14ce0:	01600c93          	li	s9,22
   14ce4:	f21ff06f          	j	14c04 <.LBB1_395>

0000000000014ce8 <pop_arg>:
   14ce8:	ff010113          	addi	sp,sp,-16
   14cec:	00113423          	sd	ra,8(sp)
   14cf0:	00813023          	sd	s0,0(sp)
   14cf4:	ff758593          	addi	a1,a1,-9
   14cf8:	01100693          	li	a3,17
   14cfc:	02b6ea63          	bltu	a3,a1,14d30 <.LBB2_4>
   14d00:	00050413          	mv	s0,a0
   14d04:	00259593          	slli	a1,a1,0x2
   14d08:	00010537          	lui	a0,0x10
   14d0c:	34050513          	addi	a0,a0,832 # 10340 <.LJTI2_0>
   14d10:	00a58533          	add	a0,a1,a0
   14d14:	00052503          	lw	a0,0(a0)
   14d18:	00050067          	jr	a0

0000000000014d1c <.LBB2_2>:
   14d1c:	00063503          	ld	a0,0(a2)
   14d20:	00850593          	addi	a1,a0,8
   14d24:	00b63023          	sd	a1,0(a2)
   14d28:	00053503          	ld	a0,0(a0)

0000000000014d2c <.LBB2_3>:
   14d2c:	00a43023          	sd	a0,0(s0)

0000000000014d30 <.LBB2_4>:
   14d30:	00813083          	ld	ra,8(sp)
   14d34:	00013403          	ld	s0,0(sp)
   14d38:	01010113          	addi	sp,sp,16
   14d3c:	00008067          	ret

0000000000014d40 <.LBB2_5>:
   14d40:	00063503          	ld	a0,0(a2)
   14d44:	00850593          	addi	a1,a0,8
   14d48:	00b63023          	sd	a1,0(a2)
   14d4c:	00052503          	lw	a0,0(a0)
   14d50:	fddff06f          	j	14d2c <.LBB2_3>

0000000000014d54 <.LBB2_6>:
   14d54:	00063503          	ld	a0,0(a2)
   14d58:	00850593          	addi	a1,a0,8
   14d5c:	00b63023          	sd	a1,0(a2)
   14d60:	00056503          	lwu	a0,0(a0)
   14d64:	fc9ff06f          	j	14d2c <.LBB2_3>

0000000000014d68 <.LBB2_7>:
   14d68:	00063503          	ld	a0,0(a2)
   14d6c:	00850593          	addi	a1,a0,8
   14d70:	00b63023          	sd	a1,0(a2)
   14d74:	00051503          	lh	a0,0(a0)
   14d78:	fb5ff06f          	j	14d2c <.LBB2_3>

0000000000014d7c <.LBB2_8>:
   14d7c:	00063503          	ld	a0,0(a2)
   14d80:	00850593          	addi	a1,a0,8
   14d84:	00b63023          	sd	a1,0(a2)
   14d88:	00055503          	lhu	a0,0(a0)
   14d8c:	fa1ff06f          	j	14d2c <.LBB2_3>

0000000000014d90 <.LBB2_9>:
   14d90:	00063503          	ld	a0,0(a2)
   14d94:	00850593          	addi	a1,a0,8
   14d98:	00b63023          	sd	a1,0(a2)
   14d9c:	00050503          	lb	a0,0(a0)
   14da0:	f8dff06f          	j	14d2c <.LBB2_3>

0000000000014da4 <.LBB2_10>:
   14da4:	00063503          	ld	a0,0(a2)
   14da8:	00850593          	addi	a1,a0,8
   14dac:	00b63023          	sd	a1,0(a2)
   14db0:	00054503          	lbu	a0,0(a0)
   14db4:	f79ff06f          	j	14d2c <.LBB2_3>

0000000000014db8 <.LBB2_11>:
   14db8:	00063503          	ld	a0,0(a2)
   14dbc:	00850593          	addi	a1,a0,8
   14dc0:	00b63023          	sd	a1,0(a2)
   14dc4:	00053503          	ld	a0,0(a0)
   14dc8:	4d0040ef          	jal	ra,19298 <__extenddftf2>
   14dcc:	00b43423          	sd	a1,8(s0)
   14dd0:	f5dff06f          	j	14d2c <.LBB2_3>

0000000000014dd4 <.LBB2_12>:
   14dd4:	00063503          	ld	a0,0(a2)
   14dd8:	00f50513          	addi	a0,a0,15
   14ddc:	ff057513          	andi	a0,a0,-16
   14de0:	01050593          	addi	a1,a0,16
   14de4:	00b63023          	sd	a1,0(a2)
   14de8:	00053583          	ld	a1,0(a0)
   14dec:	00853503          	ld	a0,8(a0)
   14df0:	00b43023          	sd	a1,0(s0)
   14df4:	00a43423          	sd	a0,8(s0)
   14df8:	f39ff06f          	j	14d30 <.LBB2_4>

0000000000014dfc <pad>:
   14dfc:	ee010113          	addi	sp,sp,-288
   14e00:	10113c23          	sd	ra,280(sp)
   14e04:	10813823          	sd	s0,272(sp)
   14e08:	10913423          	sd	s1,264(sp)
   14e0c:	11213023          	sd	s2,256(sp)
   14e10:	000127b7          	lui	a5,0x12
   14e14:	00f77733          	and	a4,a4,a5
   14e18:	00173713          	seqz	a4,a4
   14e1c:	00c6a7b3          	slt	a5,a3,a2
   14e20:	00f77733          	and	a4,a4,a5
   14e24:	06070863          	beqz	a4,14e94 <.LBB3_10>
   14e28:	00050413          	mv	s0,a0
   14e2c:	40d604bb          	subw	s1,a2,a3
   14e30:	10000913          	li	s2,256
   14e34:	00048613          	mv	a2,s1
   14e38:	0124e463          	bltu	s1,s2,14e40 <.LBB3_3>
   14e3c:	10000613          	li	a2,256

0000000000014e40 <.LBB3_3>:
   14e40:	00010513          	mv	a0,sp
   14e44:	959fd0ef          	jal	ra,1279c <memset>
   14e48:	0324e663          	bltu	s1,s2,14e74 <.LBB3_8>
   14e4c:	0ff00913          	li	s2,255

0000000000014e50 <.LBB3_5>:
   14e50:	00044503          	lbu	a0,0(s0)
   14e54:	02057513          	andi	a0,a0,32
   14e58:	00051a63          	bnez	a0,14e6c <.LBB3_7>
   14e5c:	00010513          	mv	a0,sp
   14e60:	10000593          	li	a1,256
   14e64:	00040613          	mv	a2,s0
   14e68:	3cc000ef          	jal	ra,15234 <__fwritex>

0000000000014e6c <.LBB3_7>:
   14e6c:	f004849b          	addiw	s1,s1,-256
   14e70:	fe9960e3          	bltu	s2,s1,14e50 <.LBB3_5>

0000000000014e74 <.LBB3_8>:
   14e74:	00044503          	lbu	a0,0(s0)
   14e78:	02057513          	andi	a0,a0,32
   14e7c:	00051c63          	bnez	a0,14e94 <.LBB3_10>
   14e80:	02049593          	slli	a1,s1,0x20
   14e84:	0205d593          	srli	a1,a1,0x20
   14e88:	00010513          	mv	a0,sp
   14e8c:	00040613          	mv	a2,s0
   14e90:	3a4000ef          	jal	ra,15234 <__fwritex>

0000000000014e94 <.LBB3_10>:
   14e94:	11813083          	ld	ra,280(sp)
   14e98:	11013403          	ld	s0,272(sp)
   14e9c:	10813483          	ld	s1,264(sp)
   14ea0:	10013903          	ld	s2,256(sp)
   14ea4:	12010113          	addi	sp,sp,288
   14ea8:	00008067          	ret

0000000000014eac <__lockfile>:
   14eac:	08c52603          	lw	a2,140(a0)
   14eb0:	00020593          	mv	a1,tp
   14eb4:	f585a583          	lw	a1,-168(a1)
   14eb8:	c00006b7          	lui	a3,0xc0000
   14ebc:	fff6869b          	addiw	a3,a3,-1 # ffffffffbfffffff <__global_pointer$+0xffffffffbffe5137>
   14ec0:	00d67633          	and	a2,a2,a3
   14ec4:	00b61663          	bne	a2,a1,14ed0 <.LBB0_2>
   14ec8:	00000713          	li	a4,0
   14ecc:	0800006f          	j	14f4c <.LBB0_10>

0000000000014ed0 <.LBB0_2>:
   14ed0:	08c50793          	addi	a5,a0,140
   14ed4:	0007a503          	lw	a0,0(a5) # 12000 <__init_tp+0x28>
   14ed8:	00b7a023          	sw	a1,0(a5)
   14edc:	00100713          	li	a4,1
   14ee0:	06050663          	beqz	a0,14f4c <.LBB0_10>
   14ee4:	0007a503          	lw	a0,0(a5)
   14ee8:	40000837          	lui	a6,0x40000
   14eec:	0105e2b3          	or	t0,a1,a6
   14ef0:	0057a023          	sw	t0,0(a5)
   14ef4:	04050c63          	beqz	a0,14f4c <.LBB0_10>
   14ef8:	fda00313          	li	t1,-38

0000000000014efc <.LBB0_5>:
   14efc:	02151593          	slli	a1,a0,0x21
   14f00:	01056633          	or	a2,a0,a6
   14f04:	0005c863          	bltz	a1,14f14 <.LBB0_7>
   14f08:	0007a583          	lw	a1,0(a5)
   14f0c:	00c7a023          	sw	a2,0(a5)
   14f10:	02a59863          	bne	a1,a0,14f40 <.LBB0_9>

0000000000014f14 <.LBB0_7>:
   14f14:	06200893          	li	a7,98
   14f18:	08000593          	li	a1,128
   14f1c:	00078513          	mv	a0,a5
   14f20:	00000693          	li	a3,0
   14f24:	00000073          	ecall
   14f28:	00651c63          	bne	a0,t1,14f40 <.LBB0_9>
   14f2c:	06200893          	li	a7,98
   14f30:	00078513          	mv	a0,a5
   14f34:	00000593          	li	a1,0
   14f38:	00000693          	li	a3,0
   14f3c:	00000073          	ecall

0000000000014f40 <.LBB0_9>:
   14f40:	0007a503          	lw	a0,0(a5)
   14f44:	0057a023          	sw	t0,0(a5)
   14f48:	fa051ae3          	bnez	a0,14efc <.LBB0_5>

0000000000014f4c <.LBB0_10>:
   14f4c:	00070513          	mv	a0,a4
   14f50:	00008067          	ret

0000000000014f54 <__unlockfile>:
   14f54:	08c50693          	addi	a3,a0,140

0000000000014f58 <.LBB1_1>:
   14f58:	0006a503          	lw	a0,0(a3)
   14f5c:	0006a583          	lw	a1,0(a3)
   14f60:	0006a023          	sw	zero,0(a3)
   14f64:	fea59ae3          	bne	a1,a0,14f58 <.LBB1_1>
   14f68:	02151513          	slli	a0,a0,0x21
   14f6c:	02055a63          	bgez	a0,14fa0 <.LBB1_5>
   14f70:	06200893          	li	a7,98
   14f74:	08100593          	li	a1,129
   14f78:	00100613          	li	a2,1
   14f7c:	fda00713          	li	a4,-38
   14f80:	00068513          	mv	a0,a3
   14f84:	00000073          	ecall
   14f88:	00e51c63          	bne	a0,a4,14fa0 <.LBB1_5>
   14f8c:	06200893          	li	a7,98
   14f90:	00100593          	li	a1,1
   14f94:	00100613          	li	a2,1
   14f98:	00068513          	mv	a0,a3
   14f9c:	00000073          	ecall

0000000000014fa0 <.LBB1_5>:
   14fa0:	00008067          	ret

0000000000014fa4 <__towrite>:
   14fa4:	08852603          	lw	a2,136(a0)
   14fa8:	00056583          	lwu	a1,0(a0)
   14fac:	fff6069b          	addiw	a3,a2,-1
   14fb0:	00c6e633          	or	a2,a3,a2
   14fb4:	0085f693          	andi	a3,a1,8
   14fb8:	08c52423          	sw	a2,136(a0)
   14fbc:	02069663          	bnez	a3,14fe8 <.LBB0_2>
   14fc0:	05853603          	ld	a2,88(a0)
   14fc4:	06053683          	ld	a3,96(a0)
   14fc8:	00000593          	li	a1,0
   14fcc:	02c53c23          	sd	a2,56(a0)
   14fd0:	02c53423          	sd	a2,40(a0)
   14fd4:	00d60633          	add	a2,a2,a3
   14fd8:	00053823          	sd	zero,16(a0)
   14fdc:	00053423          	sd	zero,8(a0)
   14fe0:	02c53023          	sd	a2,32(a0)
   14fe4:	0100006f          	j	14ff4 <.LBB0_3>

0000000000014fe8 <.LBB0_2>:
   14fe8:	0205e593          	ori	a1,a1,32
   14fec:	00b52023          	sw	a1,0(a0)
   14ff0:	fff00593          	li	a1,-1

0000000000014ff4 <.LBB0_3>:
   14ff4:	00058513          	mv	a0,a1
   14ff8:	00008067          	ret

0000000000014ffc <__towrite_needs_stdio_exit>:
   14ffc:	0040006f          	j	15000 <__stdio_exit>

0000000000015000 <__stdio_exit>:
   15000:	ff010113          	addi	sp,sp,-16
   15004:	00113423          	sd	ra,8(sp)
   15008:	00813023          	sd	s0,0(sp)
   1500c:	0cc000ef          	jal	ra,150d8 <__ofl_lock>
   15010:	00053403          	ld	s0,0(a0)
   15014:	00040a63          	beqz	s0,15028 <.LBB0_2>

0000000000015018 <.LBB0_1>:
   15018:	00040513          	mv	a0,s0
   1501c:	03c000ef          	jal	ra,15058 <close_file>
   15020:	07043403          	ld	s0,112(s0)
   15024:	fe041ae3          	bnez	s0,15018 <.LBB0_1>

0000000000015028 <.LBB0_2>:
   15028:	0001b537          	lui	a0,0x1b
   1502c:	80853503          	ld	a0,-2040(a0) # 1a808 <__stderr_used>
   15030:	028000ef          	jal	ra,15058 <close_file>
   15034:	0001a537          	lui	a0,0x1a
   15038:	6d053503          	ld	a0,1744(a0) # 1a6d0 <__stdout_used>
   1503c:	01c000ef          	jal	ra,15058 <close_file>
   15040:	0001b537          	lui	a0,0x1b
   15044:	80853503          	ld	a0,-2040(a0) # 1a808 <__stderr_used>
   15048:	00813083          	ld	ra,8(sp)
   1504c:	00013403          	ld	s0,0(sp)
   15050:	01010113          	addi	sp,sp,16
   15054:	0040006f          	j	15058 <close_file>

0000000000015058 <close_file>:
   15058:	ff010113          	addi	sp,sp,-16
   1505c:	00113423          	sd	ra,8(sp)
   15060:	00813023          	sd	s0,0(sp)
   15064:	06050263          	beqz	a0,150c8 <.LBB1_7>
   15068:	00050413          	mv	s0,a0
   1506c:	08c52503          	lw	a0,140(a0)
   15070:	00054663          	bltz	a0,1507c <.LBB1_3>
   15074:	00040513          	mv	a0,s0
   15078:	e35ff0ef          	jal	ra,14eac <__lockfile>

000000000001507c <.LBB1_3>:
   1507c:	02843503          	ld	a0,40(s0)
   15080:	03843583          	ld	a1,56(s0)
   15084:	00b50c63          	beq	a0,a1,1509c <.LBB1_5>
   15088:	04843683          	ld	a3,72(s0)
   1508c:	00040513          	mv	a0,s0
   15090:	00000593          	li	a1,0
   15094:	00000613          	li	a2,0
   15098:	000680e7          	jalr	a3

000000000001509c <.LBB1_5>:
   1509c:	00843503          	ld	a0,8(s0)
   150a0:	01043583          	ld	a1,16(s0)
   150a4:	02b50263          	beq	a0,a1,150c8 <.LBB1_7>
   150a8:	05043303          	ld	t1,80(s0)
   150ac:	40b505b3          	sub	a1,a0,a1
   150b0:	00100613          	li	a2,1
   150b4:	00040513          	mv	a0,s0
   150b8:	00813083          	ld	ra,8(sp)
   150bc:	00013403          	ld	s0,0(sp)
   150c0:	01010113          	addi	sp,sp,16
   150c4:	00030067          	jr	t1

00000000000150c8 <.LBB1_7>:
   150c8:	00813083          	ld	ra,8(sp)
   150cc:	00013403          	ld	s0,0(sp)
   150d0:	01010113          	addi	sp,sp,16
   150d4:	00008067          	ret

00000000000150d8 <__ofl_lock>:
   150d8:	ff010113          	addi	sp,sp,-16
   150dc:	00113423          	sd	ra,8(sp)
   150e0:	0001b537          	lui	a0,0x1b
   150e4:	81050513          	addi	a0,a0,-2032 # 1a810 <ofl_lock>
   150e8:	024000ef          	jal	ra,1510c <__lock>
   150ec:	0001b537          	lui	a0,0x1b
   150f0:	81850513          	addi	a0,a0,-2024 # 1a818 <ofl_head>
   150f4:	00813083          	ld	ra,8(sp)
   150f8:	01010113          	addi	sp,sp,16
   150fc:	00008067          	ret

0000000000015100 <__ofl_unlock>:
   15100:	0001b537          	lui	a0,0x1b
   15104:	81050513          	addi	a0,a0,-2032 # 1a810 <ofl_lock>
   15108:	0c00006f          	j	151c8 <__unlock>

000000000001510c <__lock>:
   1510c:	0001b5b7          	lui	a1,0x1b
   15110:	9c45a583          	lw	a1,-1596(a1) # 1a9c4 <__libc+0xc>
   15114:	0a058863          	beqz	a1,151c4 <.LBB0_14>
   15118:	00050713          	mv	a4,a0
   1511c:	00052503          	lw	a0,0(a0)
   15120:	800007b7          	lui	a5,0x80000
   15124:	0017859b          	addiw	a1,a5,1 # ffffffff80000001 <__global_pointer$+0xffffffff7ffe5139>
   15128:	00b72023          	sw	a1,0(a4)
   1512c:	08050c63          	beqz	a0,151c4 <.LBB0_14>
   15130:	00a00593          	li	a1,10
   15134:	fff7879b          	addiw	a5,a5,-1

0000000000015138 <.LBB0_3>:
   15138:	00055463          	bgez	a0,15140 <.LBB0_5>
   1513c:	00f5053b          	addw	a0,a0,a5

0000000000015140 <.LBB0_5>:
   15140:	00050613          	mv	a2,a0
   15144:	00072503          	lw	a0,0(a4)
   15148:	00c786b3          	add	a3,a5,a2
   1514c:	0026869b          	addiw	a3,a3,2
   15150:	00d72023          	sw	a3,0(a4)
   15154:	06c50863          	beq	a0,a2,151c4 <.LBB0_14>
   15158:	fff5859b          	addiw	a1,a1,-1
   1515c:	fc059ee3          	bnez	a1,15138 <.LBB0_3>

0000000000015160 <.LBB0_7>:
   15160:	00072503          	lw	a0,0(a4)
   15164:	00072583          	lw	a1,0(a4)
   15168:	0015061b          	addiw	a2,a0,1
   1516c:	00c72023          	sw	a2,0(a4)
   15170:	fea598e3          	bne	a1,a0,15160 <.LBB0_7>
   15174:	fda00813          	li	a6,-38
   15178:	800002b7          	lui	t0,0x80000

000000000001517c <.LBB0_9>:
   1517c:	02065a63          	bgez	a2,151b0 <.LBB0_13>
   15180:	06200893          	li	a7,98
   15184:	08000593          	li	a1,128
   15188:	00070513          	mv	a0,a4
   1518c:	00000693          	li	a3,0
   15190:	00000073          	ecall
   15194:	01051c63          	bne	a0,a6,151ac <.LBB0_12>
   15198:	06200893          	li	a7,98
   1519c:	00070513          	mv	a0,a4
   151a0:	00000593          	li	a1,0
   151a4:	00000693          	li	a3,0
   151a8:	00000073          	ecall

00000000000151ac <.LBB0_12>:
   151ac:	00f6063b          	addw	a2,a2,a5

00000000000151b0 <.LBB0_13>:
   151b0:	00060513          	mv	a0,a2
   151b4:	00072603          	lw	a2,0(a4)
   151b8:	005565b3          	or	a1,a0,t0
   151bc:	00b72023          	sw	a1,0(a4)
   151c0:	faa61ee3          	bne	a2,a0,1517c <.LBB0_9>

00000000000151c4 <.LBB0_14>:
   151c4:	00008067          	ret

00000000000151c8 <__unlock>:
   151c8:	00050693          	mv	a3,a0
   151cc:	00052503          	lw	a0,0(a0)
   151d0:	00054463          	bltz	a0,151d8 <.LBB1_2>

00000000000151d4 <.LBB1_1>:
   151d4:	00008067          	ret

00000000000151d8 <.LBB1_2>:
   151d8:	800005b7          	lui	a1,0x80000
   151dc:	fff5859b          	addiw	a1,a1,-1 # 7fffffff <__global_pointer$+0x7ffe5137>

00000000000151e0 <.LBB1_3>:
   151e0:	0006a503          	lw	a0,0(a3)
   151e4:	0006a603          	lw	a2,0(a3)
   151e8:	00b50733          	add	a4,a0,a1
   151ec:	00e6a023          	sw	a4,0(a3)
   151f0:	fea618e3          	bne	a2,a0,151e0 <.LBB1_3>
   151f4:	800005b7          	lui	a1,0x80000
   151f8:	0015859b          	addiw	a1,a1,1 # ffffffff80000001 <__global_pointer$+0xffffffff7ffe5139>
   151fc:	fcb50ce3          	beq	a0,a1,151d4 <.LBB1_1>
   15200:	06200893          	li	a7,98
   15204:	08100593          	li	a1,129
   15208:	00100613          	li	a2,1
   1520c:	fda00713          	li	a4,-38
   15210:	00068513          	mv	a0,a3
   15214:	00000073          	ecall
   15218:	fae51ee3          	bne	a0,a4,151d4 <.LBB1_1>
   1521c:	06200893          	li	a7,98
   15220:	00100593          	li	a1,1
   15224:	00100613          	li	a2,1
   15228:	00068513          	mv	a0,a3
   1522c:	00000073          	ecall
   15230:	00008067          	ret

0000000000015234 <__fwritex>:
   15234:	fc010113          	addi	sp,sp,-64
   15238:	02113c23          	sd	ra,56(sp)
   1523c:	02813823          	sd	s0,48(sp)
   15240:	02913423          	sd	s1,40(sp)
   15244:	03213023          	sd	s2,32(sp)
   15248:	01313c23          	sd	s3,24(sp)
   1524c:	01413823          	sd	s4,16(sp)
   15250:	01513423          	sd	s5,8(sp)
   15254:	00060413          	mv	s0,a2
   15258:	02063603          	ld	a2,32(a2)
   1525c:	00058493          	mv	s1,a1
   15260:	00050913          	mv	s2,a0
   15264:	0a060663          	beqz	a2,15310 <.LBB0_9>

0000000000015268 <.LBB0_1>:
   15268:	02843503          	ld	a0,40(s0)
   1526c:	40a60633          	sub	a2,a2,a0
   15270:	02967c63          	bgeu	a2,s1,152a8 <.LBB0_3>
   15274:	04843303          	ld	t1,72(s0)
   15278:	00040513          	mv	a0,s0
   1527c:	00090593          	mv	a1,s2
   15280:	00048613          	mv	a2,s1
   15284:	03813083          	ld	ra,56(sp)
   15288:	03013403          	ld	s0,48(sp)
   1528c:	02813483          	ld	s1,40(sp)
   15290:	02013903          	ld	s2,32(sp)
   15294:	01813983          	ld	s3,24(sp)
   15298:	01013a03          	ld	s4,16(sp)
   1529c:	00813a83          	ld	s5,8(sp)
   152a0:	04010113          	addi	sp,sp,64
   152a4:	00030067          	jr	t1

00000000000152a8 <.LBB0_3>:
   152a8:	09042583          	lw	a1,144(s0)
   152ac:	0605cc63          	bltz	a1,15324 <.LBB0_11>
   152b0:	00000593          	li	a1,0
   152b4:	00190a93          	addi	s5,s2,1
   152b8:	fff90613          	addi	a2,s2,-1
   152bc:	fff00a13          	li	s4,-1
   152c0:	00a00693          	li	a3,10

00000000000152c4 <.LBB0_5>:
   152c4:	06b48063          	beq	s1,a1,15324 <.LBB0_11>
   152c8:	00960733          	add	a4,a2,s1
   152cc:	00074703          	lbu	a4,0(a4)
   152d0:	001a0a13          	addi	s4,s4,1
   152d4:	fffa8a93          	addi	s5,s5,-1
   152d8:	fff60613          	addi	a2,a2,-1
   152dc:	00158593          	addi	a1,a1,1
   152e0:	fed712e3          	bne	a4,a3,152c4 <.LBB0_5>
   152e4:	04843683          	ld	a3,72(s0)
   152e8:	414489b3          	sub	s3,s1,s4
   152ec:	00040513          	mv	a0,s0
   152f0:	00090593          	mv	a1,s2
   152f4:	00098613          	mv	a2,s3
   152f8:	000680e7          	jalr	a3
   152fc:	05356463          	bltu	a0,s3,15344 <.LBB0_13>
   15300:	02843503          	ld	a0,40(s0)
   15304:	009a8933          	add	s2,s5,s1
   15308:	000a0493          	mv	s1,s4
   1530c:	01c0006f          	j	15328 <.LBB0_12>

0000000000015310 <.LBB0_9>:
   15310:	00040513          	mv	a0,s0
   15314:	c91ff0ef          	jal	ra,14fa4 <__towrite>
   15318:	04050863          	beqz	a0,15368 <.LBB0_14>
   1531c:	00000513          	li	a0,0
   15320:	0240006f          	j	15344 <.LBB0_13>

0000000000015324 <.LBB0_11>:
   15324:	00000993          	li	s3,0

0000000000015328 <.LBB0_12>:
   15328:	00090593          	mv	a1,s2
   1532c:	00048613          	mv	a2,s1
   15330:	858fd0ef          	jal	ra,12388 <memcpy>
   15334:	02843503          	ld	a0,40(s0)
   15338:	00950533          	add	a0,a0,s1
   1533c:	02a43423          	sd	a0,40(s0)
   15340:	00998533          	add	a0,s3,s1

0000000000015344 <.LBB0_13>:
   15344:	03813083          	ld	ra,56(sp)
   15348:	03013403          	ld	s0,48(sp)
   1534c:	02813483          	ld	s1,40(sp)
   15350:	02013903          	ld	s2,32(sp)
   15354:	01813983          	ld	s3,24(sp)
   15358:	01013a03          	ld	s4,16(sp)
   1535c:	00813a83          	ld	s5,8(sp)
   15360:	04010113          	addi	sp,sp,64
   15364:	00008067          	ret

0000000000015368 <.LBB0_14>:
   15368:	02043603          	ld	a2,32(s0)
   1536c:	efdff06f          	j	15268 <.LBB0_1>

0000000000015370 <fwrite>:
   15370:	fc010113          	addi	sp,sp,-64
   15374:	02113c23          	sd	ra,56(sp)
   15378:	02813823          	sd	s0,48(sp)
   1537c:	02913423          	sd	s1,40(sp)
   15380:	03213023          	sd	s2,32(sp)
   15384:	01313c23          	sd	s3,24(sp)
   15388:	01413823          	sd	s4,16(sp)
   1538c:	01513423          	sd	s5,8(sp)
   15390:	00068993          	mv	s3,a3
   15394:	00060493          	mv	s1,a2
   15398:	00058413          	mv	s0,a1
   1539c:	00050a13          	mv	s4,a0
   153a0:	00060513          	mv	a0,a2
   153a4:	d30fd0ef          	jal	ra,128d4 <__muldi3>
   153a8:	08c9a583          	lw	a1,140(s3)
   153ac:	00050913          	mv	s2,a0
   153b0:	0405c263          	bltz	a1,153f4 <.LBB1_5>
   153b4:	00098513          	mv	a0,s3
   153b8:	af5ff0ef          	jal	ra,14eac <__lockfile>
   153bc:	00050a93          	mv	s5,a0
   153c0:	000a0513          	mv	a0,s4
   153c4:	00090593          	mv	a1,s2
   153c8:	00098613          	mv	a2,s3
   153cc:	e69ff0ef          	jal	ra,15234 <__fwritex>
   153d0:	00050a13          	mv	s4,a0
   153d4:	000a8663          	beqz	s5,153e0 <.LBB1_3>
   153d8:	00098513          	mv	a0,s3
   153dc:	b79ff0ef          	jal	ra,14f54 <__unlockfile>

00000000000153e0 <.LBB1_3>:
   153e0:	032a1663          	bne	s4,s2,1540c <.LBB1_6>

00000000000153e4 <.LBB1_4>:
   153e4:	00143513          	seqz	a0,s0
   153e8:	fff50513          	addi	a0,a0,-1
   153ec:	00957533          	and	a0,a0,s1
   153f0:	0280006f          	j	15418 <.LBB1_7>

00000000000153f4 <.LBB1_5>:
   153f4:	000a0513          	mv	a0,s4
   153f8:	00090593          	mv	a1,s2
   153fc:	00098613          	mv	a2,s3
   15400:	e35ff0ef          	jal	ra,15234 <__fwritex>
   15404:	00050a13          	mv	s4,a0
   15408:	fd2a0ee3          	beq	s4,s2,153e4 <.LBB1_4>

000000000001540c <.LBB1_6>:
   1540c:	000a0513          	mv	a0,s4
   15410:	00040593          	mv	a1,s0
   15414:	028000ef          	jal	ra,1543c <__udivdi3>

0000000000015418 <.LBB1_7>:
   15418:	03813083          	ld	ra,56(sp)
   1541c:	03013403          	ld	s0,48(sp)
   15420:	02813483          	ld	s1,40(sp)
   15424:	02013903          	ld	s2,32(sp)
   15428:	01813983          	ld	s3,24(sp)
   1542c:	01013a03          	ld	s4,16(sp)
   15430:	00813a83          	ld	s5,8(sp)
   15434:	04010113          	addi	sp,sp,64
   15438:	00008067          	ret

000000000001543c <__udivdi3>:
   1543c:	fe010113          	addi	sp,sp,-32
   15440:	00113c23          	sd	ra,24(sp)
   15444:	00813823          	sd	s0,16(sp)
   15448:	02010413          	addi	s0,sp,32
   1544c:	fea43423          	sd	a0,-24(s0)
   15450:	feb43023          	sd	a1,-32(s0)
   15454:	fe843503          	ld	a0,-24(s0)
   15458:	fe043583          	ld	a1,-32(s0)
   1545c:	00000613          	li	a2,0
   15460:	014000ef          	jal	ra,15474 <__udivmoddi4>
   15464:	01813083          	ld	ra,24(sp)
   15468:	01013403          	ld	s0,16(sp)
   1546c:	02010113          	addi	sp,sp,32
   15470:	00008067          	ret

0000000000015474 <__udivmoddi4>:
   15474:	f1010113          	addi	sp,sp,-240
   15478:	0e113423          	sd	ra,232(sp)
   1547c:	0e813023          	sd	s0,224(sp)
   15480:	0f010413          	addi	s0,sp,240
   15484:	fea43023          	sd	a0,-32(s0)
   15488:	fcb43c23          	sd	a1,-40(s0)
   1548c:	fcc43823          	sd	a2,-48(s0)
   15490:	02000513          	li	a0,32
   15494:	fca42623          	sw	a0,-52(s0)
   15498:	04000513          	li	a0,64
   1549c:	fca42423          	sw	a0,-56(s0)
   154a0:	fe043503          	ld	a0,-32(s0)
   154a4:	fca43023          	sd	a0,-64(s0)
   154a8:	fd843503          	ld	a0,-40(s0)
   154ac:	faa43c23          	sd	a0,-72(s0)
   154b0:	fc442503          	lw	a0,-60(s0)
   154b4:	06051a63          	bnez	a0,15528 <.LBB0_8>
   154b8:	0040006f          	j	154bc <.LBB0_1>

00000000000154bc <.LBB0_1>:
   154bc:	fbc42503          	lw	a0,-68(s0)
   154c0:	04051063          	bnez	a0,15500 <.LBB0_5>
   154c4:	0040006f          	j	154c8 <.LBB0_2>

00000000000154c8 <.LBB0_2>:
   154c8:	fd043503          	ld	a0,-48(s0)
   154cc:	02050063          	beqz	a0,154ec <.LBB0_4>
   154d0:	0040006f          	j	154d4 <.LBB0_3>

00000000000154d4 <.LBB0_3>:
   154d4:	fc046503          	lwu	a0,-64(s0)
   154d8:	fb846583          	lwu	a1,-72(s0)
   154dc:	0fd000ef          	jal	ra,15dd8 <__umoddi3>
   154e0:	fd043583          	ld	a1,-48(s0)
   154e4:	00a5b023          	sd	a0,0(a1)
   154e8:	0040006f          	j	154ec <.LBB0_4>

00000000000154ec <.LBB0_4>:
   154ec:	fc046503          	lwu	a0,-64(s0)
   154f0:	fb846583          	lwu	a1,-72(s0)
   154f4:	f49ff0ef          	jal	ra,1543c <__udivdi3>
   154f8:	fea43423          	sd	a0,-24(s0)
   154fc:	0c90006f          	j	15dc4 <.LBB0_56>

0000000000015500 <.LBB0_5>:
   15500:	fd043503          	ld	a0,-48(s0)
   15504:	00050c63          	beqz	a0,1551c <.LBB0_7>
   15508:	0040006f          	j	1550c <.LBB0_6>

000000000001550c <.LBB0_6>:
   1550c:	fc046503          	lwu	a0,-64(s0)
   15510:	fd043583          	ld	a1,-48(s0)
   15514:	00a5b023          	sd	a0,0(a1)
   15518:	0040006f          	j	1551c <.LBB0_7>

000000000001551c <.LBB0_7>:
   1551c:	00000513          	li	a0,0
   15520:	fea43423          	sd	a0,-24(s0)
   15524:	0a10006f          	j	15dc4 <.LBB0_56>

0000000000015528 <.LBB0_8>:
   15528:	fb842503          	lw	a0,-72(s0)
   1552c:	2e051463          	bnez	a0,15814 <.LBB0_26>
   15530:	0040006f          	j	15534 <.LBB0_9>

0000000000015534 <.LBB0_9>:
   15534:	fbc42503          	lw	a0,-68(s0)
   15538:	04051063          	bnez	a0,15578 <.LBB0_13>
   1553c:	0040006f          	j	15540 <.LBB0_10>

0000000000015540 <.LBB0_10>:
   15540:	fd043503          	ld	a0,-48(s0)
   15544:	02050063          	beqz	a0,15564 <.LBB0_12>
   15548:	0040006f          	j	1554c <.LBB0_11>

000000000001554c <.LBB0_11>:
   1554c:	fc446503          	lwu	a0,-60(s0)
   15550:	fb846583          	lwu	a1,-72(s0)
   15554:	085000ef          	jal	ra,15dd8 <__umoddi3>
   15558:	fd043583          	ld	a1,-48(s0)
   1555c:	00a5b023          	sd	a0,0(a1)
   15560:	0040006f          	j	15564 <.LBB0_12>

0000000000015564 <.LBB0_12>:
   15564:	fc446503          	lwu	a0,-60(s0)
   15568:	fb846583          	lwu	a1,-72(s0)
   1556c:	ed1ff0ef          	jal	ra,1543c <__udivdi3>
   15570:	fea43423          	sd	a0,-24(s0)
   15574:	0510006f          	j	15dc4 <.LBB0_56>

0000000000015578 <.LBB0_13>:
   15578:	fc042503          	lw	a0,-64(s0)
   1557c:	04051863          	bnez	a0,155cc <.LBB0_17>
   15580:	0040006f          	j	15584 <.LBB0_14>

0000000000015584 <.LBB0_14>:
   15584:	fd043503          	ld	a0,-48(s0)
   15588:	02050863          	beqz	a0,155b8 <.LBB0_16>
   1558c:	0040006f          	j	15590 <.LBB0_15>

0000000000015590 <.LBB0_15>:
   15590:	fc446503          	lwu	a0,-60(s0)
   15594:	fbc46583          	lwu	a1,-68(s0)
   15598:	041000ef          	jal	ra,15dd8 <__umoddi3>
   1559c:	faa42623          	sw	a0,-84(s0)
   155a0:	00000513          	li	a0,0
   155a4:	faa42423          	sw	a0,-88(s0)
   155a8:	fa843503          	ld	a0,-88(s0)
   155ac:	fd043583          	ld	a1,-48(s0)
   155b0:	00a5b023          	sd	a0,0(a1)
   155b4:	0040006f          	j	155b8 <.LBB0_16>

00000000000155b8 <.LBB0_16>:
   155b8:	fc446503          	lwu	a0,-60(s0)
   155bc:	fbc46583          	lwu	a1,-68(s0)
   155c0:	e7dff0ef          	jal	ra,1543c <__udivdi3>
   155c4:	fea43423          	sd	a0,-24(s0)
   155c8:	7fc0006f          	j	15dc4 <.LBB0_56>

00000000000155cc <.LBB0_17>:
   155cc:	fbc42503          	lw	a0,-68(s0)
   155d0:	fff5059b          	addiw	a1,a0,-1
   155d4:	00b57533          	and	a0,a0,a1
   155d8:	08051a63          	bnez	a0,1566c <.LBB0_21>
   155dc:	0040006f          	j	155e0 <.LBB0_18>

00000000000155e0 <.LBB0_18>:
   155e0:	fd043503          	ld	a0,-48(s0)
   155e4:	02050a63          	beqz	a0,15618 <.LBB0_20>
   155e8:	0040006f          	j	155ec <.LBB0_19>

00000000000155ec <.LBB0_19>:
   155ec:	fc042503          	lw	a0,-64(s0)
   155f0:	faa42423          	sw	a0,-88(s0)
   155f4:	fc442503          	lw	a0,-60(s0)
   155f8:	fbc42583          	lw	a1,-68(s0)
   155fc:	fff5859b          	addiw	a1,a1,-1
   15600:	00b57533          	and	a0,a0,a1
   15604:	faa42623          	sw	a0,-84(s0)
   15608:	fa843503          	ld	a0,-88(s0)
   1560c:	fd043583          	ld	a1,-48(s0)
   15610:	00a5b023          	sd	a0,0(a1)
   15614:	0040006f          	j	15618 <.LBB0_20>

0000000000015618 <.LBB0_20>:
   15618:	fc442503          	lw	a0,-60(s0)
   1561c:	f8a43823          	sd	a0,-112(s0)
   15620:	fbc42503          	lw	a0,-68(s0)
   15624:	00000593          	li	a1,0
   15628:	40a585b3          	sub	a1,a1,a0
   1562c:	00b57533          	and	a0,a0,a1
   15630:	077cb5b7          	lui	a1,0x77cb
   15634:	5315859b          	addiw	a1,a1,1329 # 77cb531 <__global_pointer$+0x77b0669>
   15638:	a9cfd0ef          	jal	ra,128d4 <__muldi3>
   1563c:	00050593          	mv	a1,a0
   15640:	f9043503          	ld	a0,-112(s0)
   15644:	01b5d61b          	srliw	a2,a1,0x1b

0000000000015648 <.Lpcrel_hi0>:
   15648:	ffffb597          	auipc	a1,0xffffb
   1564c:	f2058593          	addi	a1,a1,-224 # 10568 <xdigits+0x10>
   15650:	00c585b3          	add	a1,a1,a2
   15654:	0005c583          	lbu	a1,0(a1)
   15658:	00b5553b          	srlw	a0,a0,a1
   1565c:	02051513          	slli	a0,a0,0x20
   15660:	02055513          	srli	a0,a0,0x20
   15664:	fea43423          	sd	a0,-24(s0)
   15668:	75c0006f          	j	15dc4 <.LBB0_56>

000000000001566c <.LBB0_21>:
   1566c:	fbc42503          	lw	a0,-68(s0)
   15670:	0015559b          	srliw	a1,a0,0x1
   15674:	00b56533          	or	a0,a0,a1
   15678:	0025559b          	srliw	a1,a0,0x2
   1567c:	00b56533          	or	a0,a0,a1
   15680:	0045559b          	srliw	a1,a0,0x4
   15684:	00b56533          	or	a0,a0,a1
   15688:	0085559b          	srliw	a1,a0,0x8
   1568c:	00b56533          	or	a0,a0,a1
   15690:	0105559b          	srliw	a1,a0,0x10
   15694:	00b56533          	or	a0,a0,a1
   15698:	fff54513          	not	a0,a0
   1569c:	00155593          	srli	a1,a0,0x1
   156a0:	55555637          	lui	a2,0x55555
   156a4:	5556061b          	addiw	a2,a2,1365 # 55555555 <__global_pointer$+0x5553a68d>
   156a8:	f6c43423          	sd	a2,-152(s0)
   156ac:	00c5f5b3          	and	a1,a1,a2
   156b0:	40b505b3          	sub	a1,a0,a1
   156b4:	33333537          	lui	a0,0x33333
   156b8:	3335061b          	addiw	a2,a0,819 # 33333333 <__global_pointer$+0x3331846b>
   156bc:	f6c43823          	sd	a2,-144(s0)
   156c0:	00c5f533          	and	a0,a1,a2
   156c4:	0025d593          	srli	a1,a1,0x2
   156c8:	00c5f5b3          	and	a1,a1,a2
   156cc:	00b50533          	add	a0,a0,a1
   156d0:	00455593          	srli	a1,a0,0x4
   156d4:	00b50533          	add	a0,a0,a1
   156d8:	0f0f15b7          	lui	a1,0xf0f1
   156dc:	f0f5859b          	addiw	a1,a1,-241 # f0f0f0f <__global_pointer$+0xf0d6047>
   156e0:	f6b43c23          	sd	a1,-136(s0)
   156e4:	00b57533          	and	a0,a0,a1
   156e8:	010105b7          	lui	a1,0x1010
   156ec:	1015859b          	addiw	a1,a1,257 # 1010101 <__global_pointer$+0xff5239>
   156f0:	f8b43023          	sd	a1,-128(s0)
   156f4:	9e0fd0ef          	jal	ra,128d4 <__muldi3>
   156f8:	f6843783          	ld	a5,-152(s0)
   156fc:	f7043703          	ld	a4,-144(s0)
   15700:	f7843603          	ld	a2,-136(s0)
   15704:	f8043583          	ld	a1,-128(s0)
   15708:	0185551b          	srliw	a0,a0,0x18
   1570c:	f8a43423          	sd	a0,-120(s0)
   15710:	fc442503          	lw	a0,-60(s0)
   15714:	0015569b          	srliw	a3,a0,0x1
   15718:	00d56533          	or	a0,a0,a3
   1571c:	0025569b          	srliw	a3,a0,0x2
   15720:	00d56533          	or	a0,a0,a3
   15724:	0045569b          	srliw	a3,a0,0x4
   15728:	00d56533          	or	a0,a0,a3
   1572c:	0085569b          	srliw	a3,a0,0x8
   15730:	00d56533          	or	a0,a0,a3
   15734:	0105569b          	srliw	a3,a0,0x10
   15738:	00d56533          	or	a0,a0,a3
   1573c:	fff54513          	not	a0,a0
   15740:	00155693          	srli	a3,a0,0x1
   15744:	00f6f6b3          	and	a3,a3,a5
   15748:	40d506b3          	sub	a3,a0,a3
   1574c:	00e6f533          	and	a0,a3,a4
   15750:	0026d693          	srli	a3,a3,0x2
   15754:	00e6f6b3          	and	a3,a3,a4
   15758:	00d50533          	add	a0,a0,a3
   1575c:	00455693          	srli	a3,a0,0x4
   15760:	00d50533          	add	a0,a0,a3
   15764:	00c57533          	and	a0,a0,a2
   15768:	96cfd0ef          	jal	ra,128d4 <__muldi3>
   1576c:	00050593          	mv	a1,a0
   15770:	f8843503          	ld	a0,-120(s0)
   15774:	0185d59b          	srliw	a1,a1,0x18
   15778:	40b5053b          	subw	a0,a0,a1
   1577c:	faa42223          	sw	a0,-92(s0)
   15780:	fa442503          	lw	a0,-92(s0)
   15784:	01f00593          	li	a1,31
   15788:	02b56863          	bltu	a0,a1,157b8 <.LBB0_25>
   1578c:	0040006f          	j	15790 <.LBB0_22>

0000000000015790 <.LBB0_22>:
   15790:	fd043503          	ld	a0,-48(s0)
   15794:	00050c63          	beqz	a0,157ac <.LBB0_24>
   15798:	0040006f          	j	1579c <.LBB0_23>

000000000001579c <.LBB0_23>:
   1579c:	fc043503          	ld	a0,-64(s0)
   157a0:	fd043583          	ld	a1,-48(s0)
   157a4:	00a5b023          	sd	a0,0(a1)
   157a8:	0040006f          	j	157ac <.LBB0_24>

00000000000157ac <.LBB0_24>:
   157ac:	00000513          	li	a0,0
   157b0:	fea43423          	sd	a0,-24(s0)
   157b4:	6100006f          	j	15dc4 <.LBB0_56>

00000000000157b8 <.LBB0_25>:
   157b8:	fa442503          	lw	a0,-92(s0)
   157bc:	0015051b          	addiw	a0,a0,1
   157c0:	faa42223          	sw	a0,-92(s0)
   157c4:	00000513          	li	a0,0
   157c8:	faa42823          	sw	a0,-80(s0)
   157cc:	fc042503          	lw	a0,-64(s0)
   157d0:	fa442583          	lw	a1,-92(s0)
   157d4:	40b005bb          	negw	a1,a1
   157d8:	00b5153b          	sllw	a0,a0,a1
   157dc:	faa42a23          	sw	a0,-76(s0)
   157e0:	fc442503          	lw	a0,-60(s0)
   157e4:	fa446583          	lwu	a1,-92(s0)
   157e8:	00b5553b          	srlw	a0,a0,a1
   157ec:	faa42623          	sw	a0,-84(s0)
   157f0:	fc442503          	lw	a0,-60(s0)
   157f4:	fa446603          	lwu	a2,-92(s0)
   157f8:	40c005bb          	negw	a1,a2
   157fc:	00b5153b          	sllw	a0,a0,a1
   15800:	fc042583          	lw	a1,-64(s0)
   15804:	00c5d5bb          	srlw	a1,a1,a2
   15808:	00b56533          	or	a0,a0,a1
   1580c:	faa42423          	sw	a0,-88(s0)
   15810:	4b40006f          	j	15cc4 <.LBB0_49>

0000000000015814 <.LBB0_26>:
   15814:	fbc42503          	lw	a0,-68(s0)
   15818:	2c051863          	bnez	a0,15ae8 <.LBB0_40>
   1581c:	0040006f          	j	15820 <.LBB0_27>

0000000000015820 <.LBB0_27>:
   15820:	fb842503          	lw	a0,-72(s0)
   15824:	fff5059b          	addiw	a1,a0,-1
   15828:	00b57533          	and	a0,a0,a1
   1582c:	0a051e63          	bnez	a0,158e8 <.LBB0_33>
   15830:	0040006f          	j	15834 <.LBB0_28>

0000000000015834 <.LBB0_28>:
   15834:	fd043503          	ld	a0,-48(s0)
   15838:	02050263          	beqz	a0,1585c <.LBB0_30>
   1583c:	0040006f          	j	15840 <.LBB0_29>

0000000000015840 <.LBB0_29>:
   15840:	fc046583          	lwu	a1,-64(s0)
   15844:	fb842503          	lw	a0,-72(s0)
   15848:	fff50513          	addi	a0,a0,-1
   1584c:	00b57533          	and	a0,a0,a1
   15850:	fd043583          	ld	a1,-48(s0)
   15854:	00a5b023          	sd	a0,0(a1)
   15858:	0040006f          	j	1585c <.LBB0_30>

000000000001585c <.LBB0_30>:
   1585c:	fb842503          	lw	a0,-72(s0)
   15860:	00100593          	li	a1,1
   15864:	00b51a63          	bne	a0,a1,15878 <.LBB0_32>
   15868:	0040006f          	j	1586c <.LBB0_31>

000000000001586c <.LBB0_31>:
   1586c:	fc043503          	ld	a0,-64(s0)
   15870:	fea43423          	sd	a0,-24(s0)
   15874:	5500006f          	j	15dc4 <.LBB0_56>

0000000000015878 <.LBB0_32>:
   15878:	fb842503          	lw	a0,-72(s0)
   1587c:	00000593          	li	a1,0
   15880:	40a585b3          	sub	a1,a1,a0
   15884:	00b57533          	and	a0,a0,a1
   15888:	077cb5b7          	lui	a1,0x77cb
   1588c:	5315859b          	addiw	a1,a1,1329 # 77cb531 <__global_pointer$+0x77b0669>
   15890:	844fd0ef          	jal	ra,128d4 <__muldi3>
   15894:	01b5559b          	srliw	a1,a0,0x1b

0000000000015898 <.Lpcrel_hi1>:
   15898:	ffffb517          	auipc	a0,0xffffb
   1589c:	cd050513          	addi	a0,a0,-816 # 10568 <xdigits+0x10>
   158a0:	00b50533          	add	a0,a0,a1
   158a4:	00054503          	lbu	a0,0(a0)
   158a8:	faa42223          	sw	a0,-92(s0)
   158ac:	fc442503          	lw	a0,-60(s0)
   158b0:	fa446583          	lwu	a1,-92(s0)
   158b4:	00b5553b          	srlw	a0,a0,a1
   158b8:	faa42a23          	sw	a0,-76(s0)
   158bc:	fc442503          	lw	a0,-60(s0)
   158c0:	fa446603          	lwu	a2,-92(s0)
   158c4:	40c005bb          	negw	a1,a2
   158c8:	00b5153b          	sllw	a0,a0,a1
   158cc:	fc042583          	lw	a1,-64(s0)
   158d0:	00c5d5bb          	srlw	a1,a1,a2
   158d4:	00b56533          	or	a0,a0,a1
   158d8:	faa42823          	sw	a0,-80(s0)
   158dc:	fb043503          	ld	a0,-80(s0)
   158e0:	fea43423          	sd	a0,-24(s0)
   158e4:	4e00006f          	j	15dc4 <.LBB0_56>

00000000000158e8 <.LBB0_33>:
   158e8:	fb842503          	lw	a0,-72(s0)
   158ec:	0015559b          	srliw	a1,a0,0x1
   158f0:	00b56533          	or	a0,a0,a1
   158f4:	0025559b          	srliw	a1,a0,0x2
   158f8:	00b56533          	or	a0,a0,a1
   158fc:	0045559b          	srliw	a1,a0,0x4
   15900:	00b56533          	or	a0,a0,a1
   15904:	0085559b          	srliw	a1,a0,0x8
   15908:	00b56533          	or	a0,a0,a1
   1590c:	0105559b          	srliw	a1,a0,0x10
   15910:	00b56533          	or	a0,a0,a1
   15914:	fff54513          	not	a0,a0
   15918:	00155593          	srli	a1,a0,0x1
   1591c:	55555637          	lui	a2,0x55555
   15920:	5556061b          	addiw	a2,a2,1365 # 55555555 <__global_pointer$+0x5553a68d>
   15924:	f4c43023          	sd	a2,-192(s0)
   15928:	00c5f5b3          	and	a1,a1,a2
   1592c:	40b505b3          	sub	a1,a0,a1
   15930:	33333537          	lui	a0,0x33333
   15934:	3335061b          	addiw	a2,a0,819 # 33333333 <__global_pointer$+0x3331846b>
   15938:	f4c43423          	sd	a2,-184(s0)
   1593c:	00c5f533          	and	a0,a1,a2
   15940:	0025d593          	srli	a1,a1,0x2
   15944:	00c5f5b3          	and	a1,a1,a2
   15948:	00b50533          	add	a0,a0,a1
   1594c:	00455593          	srli	a1,a0,0x4
   15950:	00b50533          	add	a0,a0,a1
   15954:	0f0f15b7          	lui	a1,0xf0f1
   15958:	f0f5859b          	addiw	a1,a1,-241 # f0f0f0f <__global_pointer$+0xf0d6047>
   1595c:	f4b43823          	sd	a1,-176(s0)
   15960:	00b57533          	and	a0,a0,a1
   15964:	010105b7          	lui	a1,0x1010
   15968:	1015859b          	addiw	a1,a1,257 # 1010101 <__global_pointer$+0xff5239>
   1596c:	f4b43c23          	sd	a1,-168(s0)
   15970:	f65fc0ef          	jal	ra,128d4 <__muldi3>
   15974:	f4043783          	ld	a5,-192(s0)
   15978:	f4843703          	ld	a4,-184(s0)
   1597c:	f5043603          	ld	a2,-176(s0)
   15980:	f5843583          	ld	a1,-168(s0)
   15984:	0185551b          	srliw	a0,a0,0x18
   15988:	f6a43023          	sd	a0,-160(s0)
   1598c:	fc442503          	lw	a0,-60(s0)
   15990:	0015569b          	srliw	a3,a0,0x1
   15994:	00d56533          	or	a0,a0,a3
   15998:	0025569b          	srliw	a3,a0,0x2
   1599c:	00d56533          	or	a0,a0,a3
   159a0:	0045569b          	srliw	a3,a0,0x4
   159a4:	00d56533          	or	a0,a0,a3
   159a8:	0085569b          	srliw	a3,a0,0x8
   159ac:	00d56533          	or	a0,a0,a3
   159b0:	0105569b          	srliw	a3,a0,0x10
   159b4:	00d56533          	or	a0,a0,a3
   159b8:	fff54513          	not	a0,a0
   159bc:	00155693          	srli	a3,a0,0x1
   159c0:	00f6f6b3          	and	a3,a3,a5
   159c4:	40d506b3          	sub	a3,a0,a3
   159c8:	00e6f533          	and	a0,a3,a4
   159cc:	0026d693          	srli	a3,a3,0x2
   159d0:	00e6f6b3          	and	a3,a3,a4
   159d4:	00d50533          	add	a0,a0,a3
   159d8:	00455693          	srli	a3,a0,0x4
   159dc:	00d50533          	add	a0,a0,a3
   159e0:	00c57533          	and	a0,a0,a2
   159e4:	ef1fc0ef          	jal	ra,128d4 <__muldi3>
   159e8:	00050593          	mv	a1,a0
   159ec:	f6043503          	ld	a0,-160(s0)
   159f0:	0185d59b          	srliw	a1,a1,0x18
   159f4:	40b5053b          	subw	a0,a0,a1
   159f8:	0215051b          	addiw	a0,a0,33
   159fc:	faa42223          	sw	a0,-92(s0)
   15a00:	fa442503          	lw	a0,-92(s0)
   15a04:	02000593          	li	a1,32
   15a08:	02b51463          	bne	a0,a1,15a30 <.LBB0_35>
   15a0c:	0040006f          	j	15a10 <.LBB0_34>

0000000000015a10 <.LBB0_34>:
   15a10:	00000513          	li	a0,0
   15a14:	faa42823          	sw	a0,-80(s0)
   15a18:	fc042583          	lw	a1,-64(s0)
   15a1c:	fab42a23          	sw	a1,-76(s0)
   15a20:	faa42623          	sw	a0,-84(s0)
   15a24:	fc442503          	lw	a0,-60(s0)
   15a28:	faa42423          	sw	a0,-88(s0)
   15a2c:	0b80006f          	j	15ae4 <.LBB0_39>

0000000000015a30 <.LBB0_35>:
   15a30:	fa442583          	lw	a1,-92(s0)
   15a34:	01f00513          	li	a0,31
   15a38:	04b56c63          	bltu	a0,a1,15a90 <.LBB0_37>
   15a3c:	0040006f          	j	15a40 <.LBB0_36>

0000000000015a40 <.LBB0_36>:
   15a40:	00000513          	li	a0,0
   15a44:	faa42823          	sw	a0,-80(s0)
   15a48:	fc042503          	lw	a0,-64(s0)
   15a4c:	fa442583          	lw	a1,-92(s0)
   15a50:	40b005bb          	negw	a1,a1
   15a54:	00b5153b          	sllw	a0,a0,a1
   15a58:	faa42a23          	sw	a0,-76(s0)
   15a5c:	fc442503          	lw	a0,-60(s0)
   15a60:	fa446583          	lwu	a1,-92(s0)
   15a64:	00b5553b          	srlw	a0,a0,a1
   15a68:	faa42623          	sw	a0,-84(s0)
   15a6c:	fc442503          	lw	a0,-60(s0)
   15a70:	fa446603          	lwu	a2,-92(s0)
   15a74:	40c005bb          	negw	a1,a2
   15a78:	00b5153b          	sllw	a0,a0,a1
   15a7c:	fc042583          	lw	a1,-64(s0)
   15a80:	00c5d5bb          	srlw	a1,a1,a2
   15a84:	00b56533          	or	a0,a0,a1
   15a88:	faa42423          	sw	a0,-88(s0)
   15a8c:	0540006f          	j	15ae0 <.LBB0_38>

0000000000015a90 <.LBB0_37>:
   15a90:	fc042503          	lw	a0,-64(s0)
   15a94:	fa442583          	lw	a1,-92(s0)
   15a98:	40b005bb          	negw	a1,a1
   15a9c:	00b5153b          	sllw	a0,a0,a1
   15aa0:	faa42823          	sw	a0,-80(s0)
   15aa4:	fc442503          	lw	a0,-60(s0)
   15aa8:	fa442603          	lw	a2,-92(s0)
   15aac:	40c005bb          	negw	a1,a2
   15ab0:	00b5153b          	sllw	a0,a0,a1
   15ab4:	fc042583          	lw	a1,-64(s0)
   15ab8:	00c5d5bb          	srlw	a1,a1,a2
   15abc:	00b56533          	or	a0,a0,a1
   15ac0:	faa42a23          	sw	a0,-76(s0)
   15ac4:	00000513          	li	a0,0
   15ac8:	faa42623          	sw	a0,-84(s0)
   15acc:	fc442503          	lw	a0,-60(s0)
   15ad0:	fa442583          	lw	a1,-92(s0)
   15ad4:	00b5553b          	srlw	a0,a0,a1
   15ad8:	faa42423          	sw	a0,-88(s0)
   15adc:	0040006f          	j	15ae0 <.LBB0_38>

0000000000015ae0 <.LBB0_38>:
   15ae0:	0040006f          	j	15ae4 <.LBB0_39>

0000000000015ae4 <.LBB0_39>:
   15ae4:	1dc0006f          	j	15cc0 <.LBB0_48>

0000000000015ae8 <.LBB0_40>:
   15ae8:	fbc42503          	lw	a0,-68(s0)
   15aec:	0015559b          	srliw	a1,a0,0x1
   15af0:	00b56533          	or	a0,a0,a1
   15af4:	0025559b          	srliw	a1,a0,0x2
   15af8:	00b56533          	or	a0,a0,a1
   15afc:	0045559b          	srliw	a1,a0,0x4
   15b00:	00b56533          	or	a0,a0,a1
   15b04:	0085559b          	srliw	a1,a0,0x8
   15b08:	00b56533          	or	a0,a0,a1
   15b0c:	0105559b          	srliw	a1,a0,0x10
   15b10:	00b56533          	or	a0,a0,a1
   15b14:	fff54513          	not	a0,a0
   15b18:	00155593          	srli	a1,a0,0x1
   15b1c:	55555637          	lui	a2,0x55555
   15b20:	5556061b          	addiw	a2,a2,1365 # 55555555 <__global_pointer$+0x5553a68d>
   15b24:	f0c43c23          	sd	a2,-232(s0)
   15b28:	00c5f5b3          	and	a1,a1,a2
   15b2c:	40b505b3          	sub	a1,a0,a1
   15b30:	33333537          	lui	a0,0x33333
   15b34:	3335061b          	addiw	a2,a0,819 # 33333333 <__global_pointer$+0x3331846b>
   15b38:	f2c43023          	sd	a2,-224(s0)
   15b3c:	00c5f533          	and	a0,a1,a2
   15b40:	0025d593          	srli	a1,a1,0x2
   15b44:	00c5f5b3          	and	a1,a1,a2
   15b48:	00b50533          	add	a0,a0,a1
   15b4c:	00455593          	srli	a1,a0,0x4
   15b50:	00b50533          	add	a0,a0,a1
   15b54:	0f0f15b7          	lui	a1,0xf0f1
   15b58:	f0f5859b          	addiw	a1,a1,-241 # f0f0f0f <__global_pointer$+0xf0d6047>
   15b5c:	f2b43423          	sd	a1,-216(s0)
   15b60:	00b57533          	and	a0,a0,a1
   15b64:	010105b7          	lui	a1,0x1010
   15b68:	1015859b          	addiw	a1,a1,257 # 1010101 <__global_pointer$+0xff5239>
   15b6c:	f2b43823          	sd	a1,-208(s0)
   15b70:	d65fc0ef          	jal	ra,128d4 <__muldi3>
   15b74:	f1843783          	ld	a5,-232(s0)
   15b78:	f2043703          	ld	a4,-224(s0)
   15b7c:	f2843603          	ld	a2,-216(s0)
   15b80:	f3043583          	ld	a1,-208(s0)
   15b84:	0185551b          	srliw	a0,a0,0x18
   15b88:	f2a43c23          	sd	a0,-200(s0)
   15b8c:	fc442503          	lw	a0,-60(s0)
   15b90:	0015569b          	srliw	a3,a0,0x1
   15b94:	00d56533          	or	a0,a0,a3
   15b98:	0025569b          	srliw	a3,a0,0x2
   15b9c:	00d56533          	or	a0,a0,a3
   15ba0:	0045569b          	srliw	a3,a0,0x4
   15ba4:	00d56533          	or	a0,a0,a3
   15ba8:	0085569b          	srliw	a3,a0,0x8
   15bac:	00d56533          	or	a0,a0,a3
   15bb0:	0105569b          	srliw	a3,a0,0x10
   15bb4:	00d56533          	or	a0,a0,a3
   15bb8:	fff54513          	not	a0,a0
   15bbc:	00155693          	srli	a3,a0,0x1
   15bc0:	00f6f6b3          	and	a3,a3,a5
   15bc4:	40d506b3          	sub	a3,a0,a3
   15bc8:	00e6f533          	and	a0,a3,a4
   15bcc:	0026d693          	srli	a3,a3,0x2
   15bd0:	00e6f6b3          	and	a3,a3,a4
   15bd4:	00d50533          	add	a0,a0,a3
   15bd8:	00455693          	srli	a3,a0,0x4
   15bdc:	00d50533          	add	a0,a0,a3
   15be0:	00c57533          	and	a0,a0,a2
   15be4:	cf1fc0ef          	jal	ra,128d4 <__muldi3>
   15be8:	00050593          	mv	a1,a0
   15bec:	f3843503          	ld	a0,-200(s0)
   15bf0:	0185d59b          	srliw	a1,a1,0x18
   15bf4:	40b5053b          	subw	a0,a0,a1
   15bf8:	faa42223          	sw	a0,-92(s0)
   15bfc:	fa442503          	lw	a0,-92(s0)
   15c00:	02000593          	li	a1,32
   15c04:	02b56863          	bltu	a0,a1,15c34 <.LBB0_44>
   15c08:	0040006f          	j	15c0c <.LBB0_41>

0000000000015c0c <.LBB0_41>:
   15c0c:	fd043503          	ld	a0,-48(s0)
   15c10:	00050c63          	beqz	a0,15c28 <.LBB0_43>
   15c14:	0040006f          	j	15c18 <.LBB0_42>

0000000000015c18 <.LBB0_42>:
   15c18:	fc043503          	ld	a0,-64(s0)
   15c1c:	fd043583          	ld	a1,-48(s0)
   15c20:	00a5b023          	sd	a0,0(a1)
   15c24:	0040006f          	j	15c28 <.LBB0_43>

0000000000015c28 <.LBB0_43>:
   15c28:	00000513          	li	a0,0
   15c2c:	fea43423          	sd	a0,-24(s0)
   15c30:	1940006f          	j	15dc4 <.LBB0_56>

0000000000015c34 <.LBB0_44>:
   15c34:	fa442503          	lw	a0,-92(s0)
   15c38:	0015051b          	addiw	a0,a0,1
   15c3c:	faa42223          	sw	a0,-92(s0)
   15c40:	00000513          	li	a0,0
   15c44:	faa42823          	sw	a0,-80(s0)
   15c48:	fa442503          	lw	a0,-92(s0)
   15c4c:	02000593          	li	a1,32
   15c50:	02b51263          	bne	a0,a1,15c74 <.LBB0_46>
   15c54:	0040006f          	j	15c58 <.LBB0_45>

0000000000015c58 <.LBB0_45>:
   15c58:	fc042503          	lw	a0,-64(s0)
   15c5c:	faa42a23          	sw	a0,-76(s0)
   15c60:	00000513          	li	a0,0
   15c64:	faa42623          	sw	a0,-84(s0)
   15c68:	fc442503          	lw	a0,-60(s0)
   15c6c:	faa42423          	sw	a0,-88(s0)
   15c70:	04c0006f          	j	15cbc <.LBB0_47>

0000000000015c74 <.LBB0_46>:
   15c74:	fc042503          	lw	a0,-64(s0)
   15c78:	fa442583          	lw	a1,-92(s0)
   15c7c:	40b005bb          	negw	a1,a1
   15c80:	00b5153b          	sllw	a0,a0,a1
   15c84:	faa42a23          	sw	a0,-76(s0)
   15c88:	fc442503          	lw	a0,-60(s0)
   15c8c:	fa446583          	lwu	a1,-92(s0)
   15c90:	00b5553b          	srlw	a0,a0,a1
   15c94:	faa42623          	sw	a0,-84(s0)
   15c98:	fc442503          	lw	a0,-60(s0)
   15c9c:	fa446603          	lwu	a2,-92(s0)
   15ca0:	40c005bb          	negw	a1,a2
   15ca4:	00b5153b          	sllw	a0,a0,a1
   15ca8:	fc042583          	lw	a1,-64(s0)
   15cac:	00c5d5bb          	srlw	a1,a1,a2
   15cb0:	00b56533          	or	a0,a0,a1
   15cb4:	faa42423          	sw	a0,-88(s0)
   15cb8:	0040006f          	j	15cbc <.LBB0_47>

0000000000015cbc <.LBB0_47>:
   15cbc:	0040006f          	j	15cc0 <.LBB0_48>

0000000000015cc0 <.LBB0_48>:
   15cc0:	0040006f          	j	15cc4 <.LBB0_49>

0000000000015cc4 <.LBB0_49>:
   15cc4:	00000513          	li	a0,0
   15cc8:	faa42023          	sw	a0,-96(s0)
   15ccc:	0040006f          	j	15cd0 <.LBB0_50>

0000000000015cd0 <.LBB0_50>:
   15cd0:	fa442503          	lw	a0,-92(s0)
   15cd4:	0a050a63          	beqz	a0,15d88 <.LBB0_53>
   15cd8:	0040006f          	j	15cdc <.LBB0_51>

0000000000015cdc <.LBB0_51>:
   15cdc:	fac42503          	lw	a0,-84(s0)
   15ce0:	0015151b          	slliw	a0,a0,0x1
   15ce4:	fa846583          	lwu	a1,-88(s0)
   15ce8:	01f5d593          	srli	a1,a1,0x1f
   15cec:	00b56533          	or	a0,a0,a1
   15cf0:	faa42623          	sw	a0,-84(s0)
   15cf4:	fa842503          	lw	a0,-88(s0)
   15cf8:	0015151b          	slliw	a0,a0,0x1
   15cfc:	fb446583          	lwu	a1,-76(s0)
   15d00:	01f5d593          	srli	a1,a1,0x1f
   15d04:	00b56533          	or	a0,a0,a1
   15d08:	faa42423          	sw	a0,-88(s0)
   15d0c:	fb442503          	lw	a0,-76(s0)
   15d10:	0015151b          	slliw	a0,a0,0x1
   15d14:	fb046583          	lwu	a1,-80(s0)
   15d18:	01f5d593          	srli	a1,a1,0x1f
   15d1c:	00b56533          	or	a0,a0,a1
   15d20:	faa42a23          	sw	a0,-76(s0)
   15d24:	fb042503          	lw	a0,-80(s0)
   15d28:	0015151b          	slliw	a0,a0,0x1
   15d2c:	fa042583          	lw	a1,-96(s0)
   15d30:	00b56533          	or	a0,a0,a1
   15d34:	faa42823          	sw	a0,-80(s0)
   15d38:	fb843583          	ld	a1,-72(s0)
   15d3c:	fa843503          	ld	a0,-88(s0)
   15d40:	fff54513          	not	a0,a0
   15d44:	00b50533          	add	a0,a0,a1
   15d48:	43f55513          	srai	a0,a0,0x3f
   15d4c:	f8a43c23          	sd	a0,-104(s0)
   15d50:	f9843503          	ld	a0,-104(s0)
   15d54:	00157513          	andi	a0,a0,1
   15d58:	faa42023          	sw	a0,-96(s0)
   15d5c:	fb843503          	ld	a0,-72(s0)
   15d60:	f9843583          	ld	a1,-104(s0)
   15d64:	00b575b3          	and	a1,a0,a1
   15d68:	fa843503          	ld	a0,-88(s0)
   15d6c:	40b50533          	sub	a0,a0,a1
   15d70:	faa43423          	sd	a0,-88(s0)
   15d74:	0040006f          	j	15d78 <.LBB0_52>

0000000000015d78 <.LBB0_52>:
   15d78:	fa442503          	lw	a0,-92(s0)
   15d7c:	fff5051b          	addiw	a0,a0,-1
   15d80:	faa42223          	sw	a0,-92(s0)
   15d84:	f4dff06f          	j	15cd0 <.LBB0_50>

0000000000015d88 <.LBB0_53>:
   15d88:	fb043503          	ld	a0,-80(s0)
   15d8c:	00151513          	slli	a0,a0,0x1
   15d90:	fa046583          	lwu	a1,-96(s0)
   15d94:	00b56533          	or	a0,a0,a1
   15d98:	faa43823          	sd	a0,-80(s0)
   15d9c:	fd043503          	ld	a0,-48(s0)
   15da0:	00050c63          	beqz	a0,15db8 <.LBB0_55>
   15da4:	0040006f          	j	15da8 <.LBB0_54>

0000000000015da8 <.LBB0_54>:
   15da8:	fa843503          	ld	a0,-88(s0)
   15dac:	fd043583          	ld	a1,-48(s0)
   15db0:	00a5b023          	sd	a0,0(a1)
   15db4:	0040006f          	j	15db8 <.LBB0_55>

0000000000015db8 <.LBB0_55>:
   15db8:	fb043503          	ld	a0,-80(s0)
   15dbc:	fea43423          	sd	a0,-24(s0)
   15dc0:	0040006f          	j	15dc4 <.LBB0_56>

0000000000015dc4 <.LBB0_56>:
   15dc4:	fe843503          	ld	a0,-24(s0)
   15dc8:	0e813083          	ld	ra,232(sp)
   15dcc:	0e013403          	ld	s0,224(sp)
   15dd0:	0f010113          	addi	sp,sp,240
   15dd4:	00008067          	ret

0000000000015dd8 <__umoddi3>:
   15dd8:	fd010113          	addi	sp,sp,-48
   15ddc:	02113423          	sd	ra,40(sp)
   15de0:	02813023          	sd	s0,32(sp)
   15de4:	03010413          	addi	s0,sp,48
   15de8:	fea43423          	sd	a0,-24(s0)
   15dec:	feb43023          	sd	a1,-32(s0)
   15df0:	fe843503          	ld	a0,-24(s0)
   15df4:	fe043583          	ld	a1,-32(s0)
   15df8:	fd840613          	addi	a2,s0,-40
   15dfc:	e78ff0ef          	jal	ra,15474 <__udivmoddi4>
   15e00:	fd843503          	ld	a0,-40(s0)
   15e04:	02813083          	ld	ra,40(sp)
   15e08:	02013403          	ld	s0,32(sp)
   15e0c:	03010113          	addi	sp,sp,48
   15e10:	00008067          	ret

0000000000015e14 <__signbitl>:
   15e14:	03f5d513          	srli	a0,a1,0x3f
   15e18:	00008067          	ret

0000000000015e1c <wctomb>:
   15e1c:	00050e63          	beqz	a0,15e38 <.LBB0_2>
   15e20:	ff010113          	addi	sp,sp,-16
   15e24:	00113423          	sd	ra,8(sp)
   15e28:	00000613          	li	a2,0
   15e2c:	014000ef          	jal	ra,15e40 <wcrtomb>
   15e30:	00813083          	ld	ra,8(sp)
   15e34:	01010113          	addi	sp,sp,16

0000000000015e38 <.LBB0_2>:
   15e38:	0005051b          	sext.w	a0,a0
   15e3c:	00008067          	ret

0000000000015e40 <wcrtomb>:
   15e40:	ff010113          	addi	sp,sp,-16
   15e44:	00113423          	sd	ra,8(sp)
   15e48:	00100613          	li	a2,1
   15e4c:	10050463          	beqz	a0,15f54 <.LBB0_12>
   15e50:	07f00693          	li	a3,127
   15e54:	00b6e663          	bltu	a3,a1,15e60 <.LBB0_3>

0000000000015e58 <.LBB0_2>:
   15e58:	00b50023          	sb	a1,0(a0)
   15e5c:	0f80006f          	j	15f54 <.LBB0_12>

0000000000015e60 <.LBB0_3>:
   15e60:	00020693          	mv	a3,tp
   15e64:	fd06b683          	ld	a3,-48(a3)
   15e68:	0006b683          	ld	a3,0(a3)
   15e6c:	02068663          	beqz	a3,15e98 <.LBB0_6>
   15e70:	7ff00613          	li	a2,2047
   15e74:	02b66a63          	bltu	a2,a1,15ea8 <.LBB0_7>
   15e78:	0065d613          	srli	a2,a1,0x6
   15e7c:	0c066613          	ori	a2,a2,192
   15e80:	00c50023          	sb	a2,0(a0)
   15e84:	03f5f593          	andi	a1,a1,63
   15e88:	08058593          	addi	a1,a1,128
   15e8c:	00b500a3          	sb	a1,1(a0)
   15e90:	00200613          	li	a2,2
   15e94:	0c00006f          	j	15f54 <.LBB0_12>

0000000000015e98 <.LBB0_6>:
   15e98:	0075d69b          	srliw	a3,a1,0x7
   15e9c:	1bf00713          	li	a4,447
   15ea0:	fae68ce3          	beq	a3,a4,15e58 <.LBB0_2>
   15ea4:	0a00006f          	j	15f44 <.LBB0_11>

0000000000015ea8 <.LBB0_7>:
   15ea8:	00b5d61b          	srliw	a2,a1,0xb
   15eac:	01b63613          	sltiu	a2,a2,27
   15eb0:	00d5d69b          	srliw	a3,a1,0xd
   15eb4:	ff968693          	addi	a3,a3,-7
   15eb8:	0016b693          	seqz	a3,a3
   15ebc:	00c6e633          	or	a2,a3,a2
   15ec0:	02060a63          	beqz	a2,15ef4 <.LBB0_9>
   15ec4:	00c5d613          	srli	a2,a1,0xc
   15ec8:	0e066613          	ori	a2,a2,224
   15ecc:	00c50023          	sb	a2,0(a0)
   15ed0:	03459613          	slli	a2,a1,0x34
   15ed4:	03a65613          	srli	a2,a2,0x3a
   15ed8:	08060613          	addi	a2,a2,128
   15edc:	00c500a3          	sb	a2,1(a0)
   15ee0:	03f5f593          	andi	a1,a1,63
   15ee4:	08058593          	addi	a1,a1,128
   15ee8:	00b50123          	sb	a1,2(a0)
   15eec:	00300613          	li	a2,3
   15ef0:	0640006f          	j	15f54 <.LBB0_12>

0000000000015ef4 <.LBB0_9>:
   15ef4:	ffff0637          	lui	a2,0xffff0
   15ef8:	00c58633          	add	a2,a1,a2
   15efc:	0146561b          	srliw	a2,a2,0x14
   15f00:	04061263          	bnez	a2,15f44 <.LBB0_11>
   15f04:	0125d613          	srli	a2,a1,0x12
   15f08:	0f066613          	ori	a2,a2,240
   15f0c:	00c50023          	sb	a2,0(a0)
   15f10:	02e59613          	slli	a2,a1,0x2e
   15f14:	03a65613          	srli	a2,a2,0x3a
   15f18:	08060613          	addi	a2,a2,128 # ffffffffffff0080 <__global_pointer$+0xfffffffffffd51b8>
   15f1c:	00c500a3          	sb	a2,1(a0)
   15f20:	03459613          	slli	a2,a1,0x34
   15f24:	03a65613          	srli	a2,a2,0x3a
   15f28:	08060613          	addi	a2,a2,128
   15f2c:	00c50123          	sb	a2,2(a0)
   15f30:	03f5f593          	andi	a1,a1,63
   15f34:	08058593          	addi	a1,a1,128
   15f38:	00b501a3          	sb	a1,3(a0)
   15f3c:	00400613          	li	a2,4
   15f40:	0140006f          	j	15f54 <.LBB0_12>

0000000000015f44 <.LBB0_11>:
   15f44:	a91fc0ef          	jal	ra,129d4 <__errno_location>
   15f48:	05400593          	li	a1,84
   15f4c:	00b52023          	sw	a1,0(a0)
   15f50:	fff00613          	li	a2,-1

0000000000015f54 <.LBB0_12>:
   15f54:	00060513          	mv	a0,a2
   15f58:	00813083          	ld	ra,8(sp)
   15f5c:	01010113          	addi	sp,sp,16
   15f60:	00008067          	ret

0000000000015f64 <__strerror_l>:
   15f64:	00000613          	li	a2,0
   15f68:	000106b7          	lui	a3,0x10
   15f6c:	20768693          	addi	a3,a3,519 # 10207 <errid>
   15f70:	05800713          	li	a4,88

0000000000015f74 <.LBB0_1>:
   15f74:	0006c783          	lbu	a5,0(a3)
   15f78:	00a78e63          	beq	a5,a0,15f94 <.LBB0_4>
   15f7c:	0016061b          	addiw	a2,a2,1
   15f80:	fff70713          	addi	a4,a4,-1
   15f84:	00168693          	addi	a3,a3,1
   15f88:	fe0716e3          	bnez	a4,15f74 <.LBB0_1>
   15f8c:	05800613          	li	a2,88
   15f90:	0080006f          	j	15f98 <.LBB0_5>

0000000000015f94 <.LBB0_4>:
   15f94:	02060263          	beqz	a2,15fb8 <.LBB0_8>

0000000000015f98 <.LBB0_5>:
   15f98:	00010537          	lui	a0,0x10
   15f9c:	58850513          	addi	a0,a0,1416 # 10588 <errmsg>

0000000000015fa0 <.LBB0_6>:
   15fa0:	00054683          	lbu	a3,0(a0)
   15fa4:	00150513          	addi	a0,a0,1
   15fa8:	fe069ce3          	bnez	a3,15fa0 <.LBB0_6>
   15fac:	fff6061b          	addiw	a2,a2,-1
   15fb0:	fe0618e3          	bnez	a2,15fa0 <.LBB0_6>
   15fb4:	00c0006f          	j	15fc0 <.LBB0_9>

0000000000015fb8 <.LBB0_8>:
   15fb8:	00010537          	lui	a0,0x10
   15fbc:	58850513          	addi	a0,a0,1416 # 10588 <errmsg>

0000000000015fc0 <.LBB0_9>:
   15fc0:	0285b583          	ld	a1,40(a1)
   15fc4:	0140006f          	j	15fd8 <__lctrans>

0000000000015fc8 <strerror>:
   15fc8:	00020593          	mv	a1,tp
   15fcc:	fd05b583          	ld	a1,-48(a1)
   15fd0:	f95ff06f          	j	15f64 <__strerror_l>

0000000000015fd4 <__lctrans_impl>:
   15fd4:	00008067          	ret

0000000000015fd8 <__lctrans>:
   15fd8:	ffdff06f          	j	15fd4 <__lctrans_impl>

0000000000015fdc <__lctrans_cur>:
   15fdc:	00020593          	mv	a1,tp
   15fe0:	fd05b583          	ld	a1,-48(a1)
   15fe4:	0285b583          	ld	a1,40(a1)
   15fe8:	fedff06f          	j	15fd4 <__lctrans_impl>

0000000000015fec <strnlen>:
   15fec:	fe010113          	addi	sp,sp,-32
   15ff0:	00113c23          	sd	ra,24(sp)
   15ff4:	00813823          	sd	s0,16(sp)
   15ff8:	00913423          	sd	s1,8(sp)
   15ffc:	00058413          	mv	s0,a1
   16000:	00050493          	mv	s1,a0
   16004:	00000593          	li	a1,0
   16008:	00040613          	mv	a2,s0
   1600c:	024000ef          	jal	ra,16030 <memchr>
   16010:	00050463          	beqz	a0,16018 <.LBB0_2>
   16014:	40950433          	sub	s0,a0,s1

0000000000016018 <.LBB0_2>:
   16018:	00040513          	mv	a0,s0
   1601c:	01813083          	ld	ra,24(sp)
   16020:	01013403          	ld	s0,16(sp)
   16024:	00813483          	ld	s1,8(sp)
   16028:	02010113          	addi	sp,sp,32
   1602c:	00008067          	ret

0000000000016030 <memchr>:
   16030:	fe010113          	addi	sp,sp,-32
   16034:	00113c23          	sd	ra,24(sp)
   16038:	00813823          	sd	s0,16(sp)
   1603c:	00913423          	sd	s1,8(sp)
   16040:	01213023          	sd	s2,0(sp)
   16044:	00060493          	mv	s1,a2
   16048:	00050413          	mv	s0,a0
   1604c:	00757513          	andi	a0,a0,7
   16050:	00153513          	seqz	a0,a0
   16054:	00163613          	seqz	a2,a2
   16058:	00c56533          	or	a0,a0,a2
   1605c:	0ff5f913          	zext.b	s2,a1
   16060:	02051c63          	bnez	a0,16098 <.LBB0_5>
   16064:	00140513          	addi	a0,s0,1

0000000000016068 <.LBB0_2>:
   16068:	00044583          	lbu	a1,0(s0)
   1606c:	09258a63          	beq	a1,s2,16100 <.LBB0_12>
   16070:	00140413          	addi	s0,s0,1
   16074:	fff48493          	addi	s1,s1,-1
   16078:	00757593          	andi	a1,a0,7
   1607c:	00b03633          	snez	a2,a1
   16080:	009035b3          	snez	a1,s1
   16084:	00b67633          	and	a2,a2,a1
   16088:	00150513          	addi	a0,a0,1
   1608c:	fc061ee3          	bnez	a2,16068 <.LBB0_2>
   16090:	00059863          	bnez	a1,160a0 <.LBB0_6>
   16094:	0800006f          	j	16114 <.LBB0_14>

0000000000016098 <.LBB0_5>:
   16098:	009035b3          	snez	a1,s1
   1609c:	06058c63          	beqz	a1,16114 <.LBB0_14>

00000000000160a0 <.LBB0_6>:
   160a0:	00044503          	lbu	a0,0(s0)
   160a4:	05250c63          	beq	a0,s2,160fc <.LBB0_11>
   160a8:	0001a537          	lui	a0,0x1a
   160ac:	6d853583          	ld	a1,1752(a0) # 1a6d8 <.LCPI0_0>
   160b0:	00090513          	mv	a0,s2
   160b4:	821fc0ef          	jal	ra,128d4 <__muldi3>
   160b8:	00800593          	li	a1,8
   160bc:	04b4e063          	bltu	s1,a1,160fc <.LBB0_11>
   160c0:	0001a5b7          	lui	a1,0x1a
   160c4:	6e05b583          	ld	a1,1760(a1) # 1a6e0 <.LCPI0_1>
   160c8:	0001a637          	lui	a2,0x1a
   160cc:	6e863603          	ld	a2,1768(a2) # 1a6e8 <.LCPI0_2>
   160d0:	00700693          	li	a3,7

00000000000160d4 <.LBB0_9>:
   160d4:	00043703          	ld	a4,0(s0)
   160d8:	00a74733          	xor	a4,a4,a0
   160dc:	fff74793          	not	a5,a4
   160e0:	00c70733          	add	a4,a4,a2
   160e4:	00b7f7b3          	and	a5,a5,a1
   160e8:	00e7f733          	and	a4,a5,a4
   160ec:	00071a63          	bnez	a4,16100 <.LBB0_12>
   160f0:	ff848493          	addi	s1,s1,-8
   160f4:	00840413          	addi	s0,s0,8
   160f8:	fc96eee3          	bltu	a3,s1,160d4 <.LBB0_9>

00000000000160fc <.LBB0_11>:
   160fc:	00048c63          	beqz	s1,16114 <.LBB0_14>

0000000000016100 <.LBB0_12>:
   16100:	00044503          	lbu	a0,0(s0)
   16104:	01250a63          	beq	a0,s2,16118 <.LBB0_15>
   16108:	fff48493          	addi	s1,s1,-1
   1610c:	00140413          	addi	s0,s0,1
   16110:	fe0498e3          	bnez	s1,16100 <.LBB0_12>

0000000000016114 <.LBB0_14>:
   16114:	00000413          	li	s0,0

0000000000016118 <.LBB0_15>:
   16118:	00040513          	mv	a0,s0
   1611c:	01813083          	ld	ra,24(sp)
   16120:	01013403          	ld	s0,16(sp)
   16124:	00813483          	ld	s1,8(sp)
   16128:	00013903          	ld	s2,0(sp)
   1612c:	02010113          	addi	sp,sp,32
   16130:	00008067          	ret

0000000000016134 <__fpclassifyl>:
   16134:	01059613          	slli	a2,a1,0x10
   16138:	00159593          	slli	a1,a1,0x1
   1613c:	0315d693          	srli	a3,a1,0x31
   16140:	000085b7          	lui	a1,0x8
   16144:	fff5859b          	addiw	a1,a1,-1 # 7fff <.Lline_table_start0+0x7fff>
   16148:	01065613          	srli	a2,a2,0x10
   1614c:	00b68e63          	beq	a3,a1,16168 <.LBB0_3>
   16150:	00400593          	li	a1,4
   16154:	00069e63          	bnez	a3,16170 <.LBB0_4>
   16158:	00a66533          	or	a0,a2,a0
   1615c:	00153513          	seqz	a0,a0
   16160:	00354593          	xori	a1,a0,3
   16164:	00c0006f          	j	16170 <.LBB0_4>

0000000000016168 <.LBB0_3>:
   16168:	00a66533          	or	a0,a2,a0
   1616c:	00153593          	seqz	a1,a0

0000000000016170 <.LBB0_4>:
   16170:	00058513          	mv	a0,a1
   16174:	00008067          	ret

0000000000016178 <frexpl>:
   16178:	fe010113          	addi	sp,sp,-32
   1617c:	00113c23          	sd	ra,24(sp)
   16180:	00813823          	sd	s0,16(sp)
   16184:	00913423          	sd	s1,8(sp)
   16188:	01213023          	sd	s2,0(sp)
   1618c:	00058413          	mv	s0,a1
   16190:	0305d593          	srli	a1,a1,0x30
   16194:	000086b7          	lui	a3,0x8
   16198:	fff6871b          	addiw	a4,a3,-1 # 7fff <.Lline_table_start0+0x7fff>
   1619c:	00e5f6b3          	and	a3,a1,a4
   161a0:	00050493          	mv	s1,a0
   161a4:	08e68663          	beq	a3,a4,16230 <.LBB0_6>
   161a8:	00060913          	mv	s2,a2
   161ac:	04069863          	bnez	a3,161fc <.LBB0_5>
   161b0:	00048513          	mv	a0,s1
   161b4:	00040593          	mv	a1,s0
   161b8:	00000613          	li	a2,0
   161bc:	094000ef          	jal	ra,16250 <__cmptf2>
   161c0:	02050a63          	beqz	a0,161f4 <.LBB0_4>
   161c4:	040776b7          	lui	a3,0x4077
   161c8:	02469693          	slli	a3,a3,0x24
   161cc:	00048513          	mv	a0,s1
   161d0:	00040593          	mv	a1,s0
   161d4:	00000613          	li	a2,0
   161d8:	678000ef          	jal	ra,16850 <__multf3>
   161dc:	00090613          	mv	a2,s2
   161e0:	f99ff0ef          	jal	ra,16178 <frexpl>
   161e4:	00092603          	lw	a2,0(s2)
   161e8:	00050493          	mv	s1,a0
   161ec:	00058413          	mv	s0,a1
   161f0:	f886051b          	addiw	a0,a2,-120

00000000000161f4 <.LBB0_4>:
   161f4:	00a92023          	sw	a0,0(s2)
   161f8:	0380006f          	j	16230 <.LBB0_6>

00000000000161fc <.LBB0_5>:
   161fc:	ffffc537          	lui	a0,0xffffc
   16200:	0025051b          	addiw	a0,a0,2 # ffffffffffffc002 <__global_pointer$+0xfffffffffffe113a>
   16204:	00a68533          	add	a0,a3,a0
   16208:	00a92023          	sw	a0,0(s2)
   1620c:	00008537          	lui	a0,0x8
   16210:	00a5f533          	and	a0,a1,a0
   16214:	03051513          	slli	a0,a0,0x30
   16218:	01041413          	slli	s0,s0,0x10
   1621c:	01045413          	srli	s0,s0,0x10
   16220:	01fff5b7          	lui	a1,0x1fff
   16224:	02559593          	slli	a1,a1,0x25
   16228:	00b465b3          	or	a1,s0,a1
   1622c:	00b56433          	or	s0,a0,a1

0000000000016230 <.LBB0_6>:
   16230:	00048513          	mv	a0,s1
   16234:	00040593          	mv	a1,s0
   16238:	01813083          	ld	ra,24(sp)
   1623c:	01013403          	ld	s0,16(sp)
   16240:	00813483          	ld	s1,8(sp)
   16244:	00013903          	ld	s2,0(sp)
   16248:	02010113          	addi	sp,sp,32
   1624c:	00008067          	ret

0000000000016250 <__cmptf2>:
   16250:	f4010113          	addi	sp,sp,-192
   16254:	0a113c23          	sd	ra,184(sp)
   16258:	0a813823          	sd	s0,176(sp)
   1625c:	0c010413          	addi	s0,sp,192
   16260:	fcb43c23          	sd	a1,-40(s0)
   16264:	fca43823          	sd	a0,-48(s0)
   16268:	fcd43423          	sd	a3,-56(s0)
   1626c:	fcc43023          	sd	a2,-64(s0)
   16270:	fd843583          	ld	a1,-40(s0)
   16274:	fd043503          	ld	a0,-48(s0)
   16278:	234000ef          	jal	ra,164ac <toRep>
   1627c:	fab43c23          	sd	a1,-72(s0)
   16280:	faa43823          	sd	a0,-80(s0)
   16284:	fc843583          	ld	a1,-56(s0)
   16288:	fc043503          	ld	a0,-64(s0)
   1628c:	220000ef          	jal	ra,164ac <toRep>
   16290:	fab43423          	sd	a1,-88(s0)
   16294:	faa43023          	sd	a0,-96(s0)
   16298:	fb043583          	ld	a1,-80(s0)
   1629c:	fb843503          	ld	a0,-72(s0)
   162a0:	fff00613          	li	a2,-1
   162a4:	00165613          	srli	a2,a2,0x1
   162a8:	00c57533          	and	a0,a0,a2
   162ac:	f8b43823          	sd	a1,-112(s0)
   162b0:	f8a43c23          	sd	a0,-104(s0)
   162b4:	fa043583          	ld	a1,-96(s0)
   162b8:	fa843503          	ld	a0,-88(s0)
   162bc:	00c57533          	and	a0,a0,a2
   162c0:	f8b43023          	sd	a1,-128(s0)
   162c4:	f8a43423          	sd	a0,-120(s0)
   162c8:	f9043603          	ld	a2,-112(s0)
   162cc:	f9843503          	ld	a0,-104(s0)
   162d0:	07fff5b7          	lui	a1,0x7fff
   162d4:	02459593          	slli	a1,a1,0x24
   162d8:	00a5b6b3          	sltu	a3,a1,a0
   162dc:	f6d43823          	sd	a3,-144(s0)
   162e0:	00c03633          	snez	a2,a2
   162e4:	f6c43c23          	sd	a2,-136(s0)
   162e8:	00b50663          	beq	a0,a1,162f4 <.LBB0_2>
   162ec:	f7043503          	ld	a0,-144(s0)
   162f0:	f6a43c23          	sd	a0,-136(s0)

00000000000162f4 <.LBB0_2>:
   162f4:	f7843503          	ld	a0,-136(s0)
   162f8:	04051063          	bnez	a0,16338 <.LBB0_6>
   162fc:	0040006f          	j	16300 <.LBB0_3>

0000000000016300 <.LBB0_3>:
   16300:	f8043603          	ld	a2,-128(s0)
   16304:	f8843503          	ld	a0,-120(s0)
   16308:	07fff5b7          	lui	a1,0x7fff
   1630c:	02459593          	slli	a1,a1,0x24
   16310:	00b536b3          	sltu	a3,a0,a1
   16314:	f6d43023          	sd	a3,-160(s0)
   16318:	00163613          	seqz	a2,a2
   1631c:	f6c43423          	sd	a2,-152(s0)
   16320:	00b50663          	beq	a0,a1,1632c <.LBB0_5>
   16324:	f6043503          	ld	a0,-160(s0)
   16328:	f6a43423          	sd	a0,-152(s0)

000000000001632c <.LBB0_5>:
   1632c:	f6843503          	ld	a0,-152(s0)
   16330:	00051a63          	bnez	a0,16344 <.LBB0_7>
   16334:	0040006f          	j	16338 <.LBB0_6>

0000000000016338 <.LBB0_6>:
   16338:	00100513          	li	a0,1
   1633c:	fea42623          	sw	a0,-20(s0)
   16340:	1580006f          	j	16498 <.LBB0_24>

0000000000016344 <.LBB0_7>:
   16344:	f9043503          	ld	a0,-112(s0)
   16348:	f9843583          	ld	a1,-104(s0)
   1634c:	f8043603          	ld	a2,-128(s0)
   16350:	f8843683          	ld	a3,-120(s0)
   16354:	00d5e5b3          	or	a1,a1,a3
   16358:	00c56533          	or	a0,a0,a2
   1635c:	00b56533          	or	a0,a0,a1
   16360:	00051a63          	bnez	a0,16374 <.LBB0_9>
   16364:	0040006f          	j	16368 <.LBB0_8>

0000000000016368 <.LBB0_8>:
   16368:	00000513          	li	a0,0
   1636c:	fea42623          	sw	a0,-20(s0)
   16370:	1280006f          	j	16498 <.LBB0_24>

0000000000016374 <.LBB0_9>:
   16374:	fb843503          	ld	a0,-72(s0)
   16378:	fa843583          	ld	a1,-88(s0)
   1637c:	00b57533          	and	a0,a0,a1
   16380:	08054863          	bltz	a0,16410 <.LBB0_17>
   16384:	0040006f          	j	16388 <.LBB0_10>

0000000000016388 <.LBB0_10>:
   16388:	fb043603          	ld	a2,-80(s0)
   1638c:	fb843503          	ld	a0,-72(s0)
   16390:	fa043683          	ld	a3,-96(s0)
   16394:	fa843583          	ld	a1,-88(s0)
   16398:	00b52733          	slt	a4,a0,a1
   1639c:	00174713          	xori	a4,a4,1
   163a0:	f4e43823          	sd	a4,-176(s0)
   163a4:	00d63633          	sltu	a2,a2,a3
   163a8:	00164613          	xori	a2,a2,1
   163ac:	f4c43c23          	sd	a2,-168(s0)
   163b0:	00b50663          	beq	a0,a1,163bc <.LBB0_12>
   163b4:	f5043503          	ld	a0,-176(s0)
   163b8:	f4a43c23          	sd	a0,-168(s0)

00000000000163bc <.LBB0_12>:
   163bc:	f5843503          	ld	a0,-168(s0)
   163c0:	00051a63          	bnez	a0,163d4 <.LBB0_14>
   163c4:	0040006f          	j	163c8 <.LBB0_13>

00000000000163c8 <.LBB0_13>:
   163c8:	fff00513          	li	a0,-1
   163cc:	fea42623          	sw	a0,-20(s0)
   163d0:	0c80006f          	j	16498 <.LBB0_24>

00000000000163d4 <.LBB0_14>:
   163d4:	fb043503          	ld	a0,-80(s0)
   163d8:	fb843583          	ld	a1,-72(s0)
   163dc:	fa043603          	ld	a2,-96(s0)
   163e0:	fa843683          	ld	a3,-88(s0)
   163e4:	00d5c5b3          	xor	a1,a1,a3
   163e8:	00c54533          	xor	a0,a0,a2
   163ec:	00b56533          	or	a0,a0,a1
   163f0:	00051a63          	bnez	a0,16404 <.LBB0_16>
   163f4:	0040006f          	j	163f8 <.LBB0_15>

00000000000163f8 <.LBB0_15>:
   163f8:	00000513          	li	a0,0
   163fc:	fea42623          	sw	a0,-20(s0)
   16400:	0980006f          	j	16498 <.LBB0_24>

0000000000016404 <.LBB0_16>:
   16404:	00100513          	li	a0,1
   16408:	fea42623          	sw	a0,-20(s0)
   1640c:	08c0006f          	j	16498 <.LBB0_24>

0000000000016410 <.LBB0_17>:
   16410:	fb043683          	ld	a3,-80(s0)
   16414:	fb843503          	ld	a0,-72(s0)
   16418:	fa043603          	ld	a2,-96(s0)
   1641c:	fa843583          	ld	a1,-88(s0)
   16420:	00a5a733          	slt	a4,a1,a0
   16424:	00174713          	xori	a4,a4,1
   16428:	f4e43023          	sd	a4,-192(s0)
   1642c:	00d63633          	sltu	a2,a2,a3
   16430:	00164613          	xori	a2,a2,1
   16434:	f4c43423          	sd	a2,-184(s0)
   16438:	00b50663          	beq	a0,a1,16444 <.LBB0_19>
   1643c:	f4043503          	ld	a0,-192(s0)
   16440:	f4a43423          	sd	a0,-184(s0)

0000000000016444 <.LBB0_19>:
   16444:	f4843503          	ld	a0,-184(s0)
   16448:	00051a63          	bnez	a0,1645c <.LBB0_21>
   1644c:	0040006f          	j	16450 <.LBB0_20>

0000000000016450 <.LBB0_20>:
   16450:	fff00513          	li	a0,-1
   16454:	fea42623          	sw	a0,-20(s0)
   16458:	0400006f          	j	16498 <.LBB0_24>

000000000001645c <.LBB0_21>:
   1645c:	fb043503          	ld	a0,-80(s0)
   16460:	fb843583          	ld	a1,-72(s0)
   16464:	fa043603          	ld	a2,-96(s0)
   16468:	fa843683          	ld	a3,-88(s0)
   1646c:	00d5c5b3          	xor	a1,a1,a3
   16470:	00c54533          	xor	a0,a0,a2
   16474:	00b56533          	or	a0,a0,a1
   16478:	00051a63          	bnez	a0,1648c <.LBB0_23>
   1647c:	0040006f          	j	16480 <.LBB0_22>

0000000000016480 <.LBB0_22>:
   16480:	00000513          	li	a0,0
   16484:	fea42623          	sw	a0,-20(s0)
   16488:	0100006f          	j	16498 <.LBB0_24>

000000000001648c <.LBB0_23>:
   1648c:	00100513          	li	a0,1
   16490:	fea42623          	sw	a0,-20(s0)
   16494:	0040006f          	j	16498 <.LBB0_24>

0000000000016498 <.LBB0_24>:
   16498:	fec42503          	lw	a0,-20(s0)
   1649c:	0b813083          	ld	ra,184(sp)
   164a0:	0b013403          	ld	s0,176(sp)
   164a4:	0c010113          	addi	sp,sp,192
   164a8:	00008067          	ret

00000000000164ac <toRep>:
   164ac:	fd010113          	addi	sp,sp,-48
   164b0:	02113423          	sd	ra,40(sp)
   164b4:	02813023          	sd	s0,32(sp)
   164b8:	03010413          	addi	s0,sp,48
   164bc:	feb43423          	sd	a1,-24(s0)
   164c0:	fea43023          	sd	a0,-32(s0)
   164c4:	fe043503          	ld	a0,-32(s0)
   164c8:	fe843583          	ld	a1,-24(s0)
   164cc:	fcb43c23          	sd	a1,-40(s0)
   164d0:	fca43823          	sd	a0,-48(s0)
   164d4:	fd043503          	ld	a0,-48(s0)
   164d8:	fd843583          	ld	a1,-40(s0)
   164dc:	02813083          	ld	ra,40(sp)
   164e0:	02013403          	ld	s0,32(sp)
   164e4:	03010113          	addi	sp,sp,48
   164e8:	00008067          	ret

00000000000164ec <__getf2>:
   164ec:	f4010113          	addi	sp,sp,-192
   164f0:	0a113c23          	sd	ra,184(sp)
   164f4:	0a813823          	sd	s0,176(sp)
   164f8:	0c010413          	addi	s0,sp,192
   164fc:	fcb43c23          	sd	a1,-40(s0)
   16500:	fca43823          	sd	a0,-48(s0)
   16504:	fcd43423          	sd	a3,-56(s0)
   16508:	fcc43023          	sd	a2,-64(s0)
   1650c:	fd843583          	ld	a1,-40(s0)
   16510:	fd043503          	ld	a0,-48(s0)
   16514:	f99ff0ef          	jal	ra,164ac <toRep>
   16518:	fab43c23          	sd	a1,-72(s0)
   1651c:	faa43823          	sd	a0,-80(s0)
   16520:	fc843583          	ld	a1,-56(s0)
   16524:	fc043503          	ld	a0,-64(s0)
   16528:	f85ff0ef          	jal	ra,164ac <toRep>
   1652c:	fab43423          	sd	a1,-88(s0)
   16530:	faa43023          	sd	a0,-96(s0)
   16534:	fb043583          	ld	a1,-80(s0)
   16538:	fb843503          	ld	a0,-72(s0)
   1653c:	fff00613          	li	a2,-1
   16540:	00165613          	srli	a2,a2,0x1
   16544:	00c57533          	and	a0,a0,a2
   16548:	f8b43823          	sd	a1,-112(s0)
   1654c:	f8a43c23          	sd	a0,-104(s0)
   16550:	fa043583          	ld	a1,-96(s0)
   16554:	fa843503          	ld	a0,-88(s0)
   16558:	00c57533          	and	a0,a0,a2
   1655c:	f8b43023          	sd	a1,-128(s0)
   16560:	f8a43423          	sd	a0,-120(s0)
   16564:	f9043603          	ld	a2,-112(s0)
   16568:	f9843503          	ld	a0,-104(s0)
   1656c:	07fff5b7          	lui	a1,0x7fff
   16570:	02459593          	slli	a1,a1,0x24
   16574:	00a5b6b3          	sltu	a3,a1,a0
   16578:	f6d43823          	sd	a3,-144(s0)
   1657c:	00c03633          	snez	a2,a2
   16580:	f6c43c23          	sd	a2,-136(s0)
   16584:	00b50663          	beq	a0,a1,16590 <.LBB2_2>
   16588:	f7043503          	ld	a0,-144(s0)
   1658c:	f6a43c23          	sd	a0,-136(s0)

0000000000016590 <.LBB2_2>:
   16590:	f7843503          	ld	a0,-136(s0)
   16594:	04051063          	bnez	a0,165d4 <.LBB2_6>
   16598:	0040006f          	j	1659c <.LBB2_3>

000000000001659c <.LBB2_3>:
   1659c:	f8043603          	ld	a2,-128(s0)
   165a0:	f8843503          	ld	a0,-120(s0)
   165a4:	07fff5b7          	lui	a1,0x7fff
   165a8:	02459593          	slli	a1,a1,0x24
   165ac:	00b536b3          	sltu	a3,a0,a1
   165b0:	f6d43023          	sd	a3,-160(s0)
   165b4:	00163613          	seqz	a2,a2
   165b8:	f6c43423          	sd	a2,-152(s0)
   165bc:	00b50663          	beq	a0,a1,165c8 <.LBB2_5>
   165c0:	f6043503          	ld	a0,-160(s0)
   165c4:	f6a43423          	sd	a0,-152(s0)

00000000000165c8 <.LBB2_5>:
   165c8:	f6843503          	ld	a0,-152(s0)
   165cc:	00051a63          	bnez	a0,165e0 <.LBB2_7>
   165d0:	0040006f          	j	165d4 <.LBB2_6>

00000000000165d4 <.LBB2_6>:
   165d4:	fff00513          	li	a0,-1
   165d8:	fea42623          	sw	a0,-20(s0)
   165dc:	1580006f          	j	16734 <.LBB2_24>

00000000000165e0 <.LBB2_7>:
   165e0:	f9043503          	ld	a0,-112(s0)
   165e4:	f9843583          	ld	a1,-104(s0)
   165e8:	f8043603          	ld	a2,-128(s0)
   165ec:	f8843683          	ld	a3,-120(s0)
   165f0:	00d5e5b3          	or	a1,a1,a3
   165f4:	00c56533          	or	a0,a0,a2
   165f8:	00b56533          	or	a0,a0,a1
   165fc:	00051a63          	bnez	a0,16610 <.LBB2_9>
   16600:	0040006f          	j	16604 <.LBB2_8>

0000000000016604 <.LBB2_8>:
   16604:	00000513          	li	a0,0
   16608:	fea42623          	sw	a0,-20(s0)
   1660c:	1280006f          	j	16734 <.LBB2_24>

0000000000016610 <.LBB2_9>:
   16610:	fb843503          	ld	a0,-72(s0)
   16614:	fa843583          	ld	a1,-88(s0)
   16618:	00b57533          	and	a0,a0,a1
   1661c:	08054863          	bltz	a0,166ac <.LBB2_17>
   16620:	0040006f          	j	16624 <.LBB2_10>

0000000000016624 <.LBB2_10>:
   16624:	fb043603          	ld	a2,-80(s0)
   16628:	fb843503          	ld	a0,-72(s0)
   1662c:	fa043683          	ld	a3,-96(s0)
   16630:	fa843583          	ld	a1,-88(s0)
   16634:	00b52733          	slt	a4,a0,a1
   16638:	00174713          	xori	a4,a4,1
   1663c:	f4e43823          	sd	a4,-176(s0)
   16640:	00d63633          	sltu	a2,a2,a3
   16644:	00164613          	xori	a2,a2,1
   16648:	f4c43c23          	sd	a2,-168(s0)
   1664c:	00b50663          	beq	a0,a1,16658 <.LBB2_12>
   16650:	f5043503          	ld	a0,-176(s0)
   16654:	f4a43c23          	sd	a0,-168(s0)

0000000000016658 <.LBB2_12>:
   16658:	f5843503          	ld	a0,-168(s0)
   1665c:	00051a63          	bnez	a0,16670 <.LBB2_14>
   16660:	0040006f          	j	16664 <.LBB2_13>

0000000000016664 <.LBB2_13>:
   16664:	fff00513          	li	a0,-1
   16668:	fea42623          	sw	a0,-20(s0)
   1666c:	0c80006f          	j	16734 <.LBB2_24>

0000000000016670 <.LBB2_14>:
   16670:	fb043503          	ld	a0,-80(s0)
   16674:	fb843583          	ld	a1,-72(s0)
   16678:	fa043603          	ld	a2,-96(s0)
   1667c:	fa843683          	ld	a3,-88(s0)
   16680:	00d5c5b3          	xor	a1,a1,a3
   16684:	00c54533          	xor	a0,a0,a2
   16688:	00b56533          	or	a0,a0,a1
   1668c:	00051a63          	bnez	a0,166a0 <.LBB2_16>
   16690:	0040006f          	j	16694 <.LBB2_15>

0000000000016694 <.LBB2_15>:
   16694:	00000513          	li	a0,0
   16698:	fea42623          	sw	a0,-20(s0)
   1669c:	0980006f          	j	16734 <.LBB2_24>

00000000000166a0 <.LBB2_16>:
   166a0:	00100513          	li	a0,1
   166a4:	fea42623          	sw	a0,-20(s0)
   166a8:	08c0006f          	j	16734 <.LBB2_24>

00000000000166ac <.LBB2_17>:
   166ac:	fb043683          	ld	a3,-80(s0)
   166b0:	fb843503          	ld	a0,-72(s0)
   166b4:	fa043603          	ld	a2,-96(s0)
   166b8:	fa843583          	ld	a1,-88(s0)
   166bc:	00a5a733          	slt	a4,a1,a0
   166c0:	00174713          	xori	a4,a4,1
   166c4:	f4e43023          	sd	a4,-192(s0)
   166c8:	00d63633          	sltu	a2,a2,a3
   166cc:	00164613          	xori	a2,a2,1
   166d0:	f4c43423          	sd	a2,-184(s0)
   166d4:	00b50663          	beq	a0,a1,166e0 <.LBB2_19>
   166d8:	f4043503          	ld	a0,-192(s0)
   166dc:	f4a43423          	sd	a0,-184(s0)

00000000000166e0 <.LBB2_19>:
   166e0:	f4843503          	ld	a0,-184(s0)
   166e4:	00051a63          	bnez	a0,166f8 <.LBB2_21>
   166e8:	0040006f          	j	166ec <.LBB2_20>

00000000000166ec <.LBB2_20>:
   166ec:	fff00513          	li	a0,-1
   166f0:	fea42623          	sw	a0,-20(s0)
   166f4:	0400006f          	j	16734 <.LBB2_24>

00000000000166f8 <.LBB2_21>:
   166f8:	fb043503          	ld	a0,-80(s0)
   166fc:	fb843583          	ld	a1,-72(s0)
   16700:	fa043603          	ld	a2,-96(s0)
   16704:	fa843683          	ld	a3,-88(s0)
   16708:	00d5c5b3          	xor	a1,a1,a3
   1670c:	00c54533          	xor	a0,a0,a2
   16710:	00b56533          	or	a0,a0,a1
   16714:	00051a63          	bnez	a0,16728 <.LBB2_23>
   16718:	0040006f          	j	1671c <.LBB2_22>

000000000001671c <.LBB2_22>:
   1671c:	00000513          	li	a0,0
   16720:	fea42623          	sw	a0,-20(s0)
   16724:	0100006f          	j	16734 <.LBB2_24>

0000000000016728 <.LBB2_23>:
   16728:	00100513          	li	a0,1
   1672c:	fea42623          	sw	a0,-20(s0)
   16730:	0040006f          	j	16734 <.LBB2_24>

0000000000016734 <.LBB2_24>:
   16734:	fec42503          	lw	a0,-20(s0)
   16738:	0b813083          	ld	ra,184(sp)
   1673c:	0b013403          	ld	s0,176(sp)
   16740:	0c010113          	addi	sp,sp,192
   16744:	00008067          	ret

0000000000016748 <__unordtf2>:
   16748:	f7010113          	addi	sp,sp,-144
   1674c:	08113423          	sd	ra,136(sp)
   16750:	08813023          	sd	s0,128(sp)
   16754:	09010413          	addi	s0,sp,144
   16758:	feb43423          	sd	a1,-24(s0)
   1675c:	fea43023          	sd	a0,-32(s0)
   16760:	fcd43c23          	sd	a3,-40(s0)
   16764:	fcc43823          	sd	a2,-48(s0)
   16768:	fe843583          	ld	a1,-24(s0)
   1676c:	fe043503          	ld	a0,-32(s0)
   16770:	d3dff0ef          	jal	ra,164ac <toRep>
   16774:	f8a43423          	sd	a0,-120(s0)
   16778:	00058513          	mv	a0,a1
   1677c:	f8843583          	ld	a1,-120(s0)
   16780:	fff00613          	li	a2,-1
   16784:	00165613          	srli	a2,a2,0x1
   16788:	f8c43823          	sd	a2,-112(s0)
   1678c:	00c57533          	and	a0,a0,a2
   16790:	fcb43023          	sd	a1,-64(s0)
   16794:	fca43423          	sd	a0,-56(s0)
   16798:	fd843583          	ld	a1,-40(s0)
   1679c:	fd043503          	ld	a0,-48(s0)
   167a0:	d0dff0ef          	jal	ra,164ac <toRep>
   167a4:	f9043603          	ld	a2,-112(s0)
   167a8:	f8a43c23          	sd	a0,-104(s0)
   167ac:	00058513          	mv	a0,a1
   167b0:	f9843583          	ld	a1,-104(s0)
   167b4:	00c57533          	and	a0,a0,a2
   167b8:	fab43823          	sd	a1,-80(s0)
   167bc:	faa43c23          	sd	a0,-72(s0)
   167c0:	fc043603          	ld	a2,-64(s0)
   167c4:	fc843503          	ld	a0,-56(s0)
   167c8:	07fff5b7          	lui	a1,0x7fff
   167cc:	02459593          	slli	a1,a1,0x24
   167d0:	00a5b6b3          	sltu	a3,a1,a0
   167d4:	fad43023          	sd	a3,-96(s0)
   167d8:	00c03633          	snez	a2,a2
   167dc:	fac43423          	sd	a2,-88(s0)
   167e0:	00b50663          	beq	a0,a1,167ec <.LBB3_2>
   167e4:	fa043503          	ld	a0,-96(s0)
   167e8:	faa43423          	sd	a0,-88(s0)

00000000000167ec <.LBB3_2>:
   167ec:	fa843503          	ld	a0,-88(s0)
   167f0:	00100593          	li	a1,1
   167f4:	f8b43023          	sd	a1,-128(s0)
   167f8:	04051063          	bnez	a0,16838 <.LBB3_6>
   167fc:	0040006f          	j	16800 <.LBB3_3>

0000000000016800 <.LBB3_3>:
   16800:	fb043603          	ld	a2,-80(s0)
   16804:	fb843503          	ld	a0,-72(s0)
   16808:	07fff5b7          	lui	a1,0x7fff
   1680c:	02459593          	slli	a1,a1,0x24
   16810:	00a5b6b3          	sltu	a3,a1,a0
   16814:	f6d43823          	sd	a3,-144(s0)
   16818:	00c03633          	snez	a2,a2
   1681c:	f6c43c23          	sd	a2,-136(s0)
   16820:	00b50663          	beq	a0,a1,1682c <.LBB3_5>
   16824:	f7043503          	ld	a0,-144(s0)
   16828:	f6a43c23          	sd	a0,-136(s0)

000000000001682c <.LBB3_5>:
   1682c:	f7843503          	ld	a0,-136(s0)
   16830:	f8a43023          	sd	a0,-128(s0)
   16834:	0040006f          	j	16838 <.LBB3_6>

0000000000016838 <.LBB3_6>:
   16838:	f8043503          	ld	a0,-128(s0)
   1683c:	00157513          	andi	a0,a0,1
   16840:	08813083          	ld	ra,136(sp)
   16844:	08013403          	ld	s0,128(sp)
   16848:	09010113          	addi	sp,sp,144
   1684c:	00008067          	ret

0000000000016850 <__multf3>:
   16850:	fd010113          	addi	sp,sp,-48
   16854:	02113423          	sd	ra,40(sp)
   16858:	02813023          	sd	s0,32(sp)
   1685c:	03010413          	addi	s0,sp,48
   16860:	feb43423          	sd	a1,-24(s0)
   16864:	fea43023          	sd	a0,-32(s0)
   16868:	fcd43c23          	sd	a3,-40(s0)
   1686c:	fcc43823          	sd	a2,-48(s0)
   16870:	fd843683          	ld	a3,-40(s0)
   16874:	fd043603          	ld	a2,-48(s0)
   16878:	fe843583          	ld	a1,-24(s0)
   1687c:	fe043503          	ld	a0,-32(s0)
   16880:	014000ef          	jal	ra,16894 <__mulXf3__>
   16884:	02813083          	ld	ra,40(sp)
   16888:	02013403          	ld	s0,32(sp)
   1688c:	03010113          	addi	sp,sp,48
   16890:	00008067          	ret

0000000000016894 <__mulXf3__>:
   16894:	ec010113          	addi	sp,sp,-320
   16898:	12113c23          	sd	ra,312(sp)
   1689c:	12813823          	sd	s0,304(sp)
   168a0:	14010413          	addi	s0,sp,320
   168a4:	fcb43c23          	sd	a1,-40(s0)
   168a8:	fca43823          	sd	a0,-48(s0)
   168ac:	fcd43423          	sd	a3,-56(s0)
   168b0:	fcc43023          	sd	a2,-64(s0)
   168b4:	fd843583          	ld	a1,-40(s0)
   168b8:	fd043503          	ld	a0,-48(s0)
   168bc:	5fc000ef          	jal	ra,16eb8 <toRep>
   168c0:	00159513          	slli	a0,a1,0x1
   168c4:	03155513          	srli	a0,a0,0x31
   168c8:	faa42e23          	sw	a0,-68(s0)
   168cc:	fc843583          	ld	a1,-56(s0)
   168d0:	fc043503          	ld	a0,-64(s0)
   168d4:	5e4000ef          	jal	ra,16eb8 <toRep>
   168d8:	00159513          	slli	a0,a1,0x1
   168dc:	03155513          	srli	a0,a0,0x31
   168e0:	faa42c23          	sw	a0,-72(s0)
   168e4:	fd843583          	ld	a1,-40(s0)
   168e8:	fd043503          	ld	a0,-48(s0)
   168ec:	5cc000ef          	jal	ra,16eb8 <toRep>
   168f0:	f0b43423          	sd	a1,-248(s0)
   168f4:	fc843583          	ld	a1,-56(s0)
   168f8:	fc043503          	ld	a0,-64(s0)
   168fc:	5bc000ef          	jal	ra,16eb8 <toRep>
   16900:	00058513          	mv	a0,a1
   16904:	f0843583          	ld	a1,-248(s0)
   16908:	00a5c533          	xor	a0,a1,a0
   1690c:	03f55513          	srli	a0,a0,0x3f
   16910:	03f51513          	slli	a0,a0,0x3f
   16914:	00000593          	li	a1,0
   16918:	f2b43023          	sd	a1,-224(s0)
   1691c:	fab43023          	sd	a1,-96(s0)
   16920:	faa43423          	sd	a0,-88(s0)
   16924:	fd843583          	ld	a1,-40(s0)
   16928:	fd043503          	ld	a0,-48(s0)
   1692c:	58c000ef          	jal	ra,16eb8 <toRep>
   16930:	f0a43823          	sd	a0,-240(s0)
   16934:	00058513          	mv	a0,a1
   16938:	f1043583          	ld	a1,-240(s0)
   1693c:	fff00613          	li	a2,-1
   16940:	01065613          	srli	a2,a2,0x10
   16944:	f0c43c23          	sd	a2,-232(s0)
   16948:	00c57533          	and	a0,a0,a2
   1694c:	f8b43823          	sd	a1,-112(s0)
   16950:	f8a43c23          	sd	a0,-104(s0)
   16954:	fc843583          	ld	a1,-56(s0)
   16958:	fc043503          	ld	a0,-64(s0)
   1695c:	55c000ef          	jal	ra,16eb8 <toRep>
   16960:	f1843683          	ld	a3,-232(s0)
   16964:	00050613          	mv	a2,a0
   16968:	f2043503          	ld	a0,-224(s0)
   1696c:	00d5f5b3          	and	a1,a1,a3
   16970:	f8c43023          	sd	a2,-128(s0)
   16974:	f8b43423          	sd	a1,-120(s0)
   16978:	f6a42e23          	sw	a0,-132(s0)
   1697c:	fbc42503          	lw	a0,-68(s0)
   16980:	fff5059b          	addiw	a1,a0,-1 # 7fff <.Lline_table_start0+0x7fff>
   16984:	00008537          	lui	a0,0x8
   16988:	ffd5051b          	addiw	a0,a0,-3 # 7ffd <.Lline_table_start0+0x7ffd>
   1698c:	02b56063          	bltu	a0,a1,169ac <.LBB1_2>
   16990:	0040006f          	j	16994 <.LBB1_1>

0000000000016994 <.LBB1_1>:
   16994:	fb842503          	lw	a0,-72(s0)
   16998:	fff5051b          	addiw	a0,a0,-1
   1699c:	000085b7          	lui	a1,0x8
   169a0:	ffe5859b          	addiw	a1,a1,-2 # 7ffe <.Lline_table_start0+0x7ffe>
   169a4:	2ab56e63          	bltu	a0,a1,16c60 <.LBB1_27>
   169a8:	0040006f          	j	169ac <.LBB1_2>

00000000000169ac <.LBB1_2>:
   169ac:	fd843583          	ld	a1,-40(s0)
   169b0:	fd043503          	ld	a0,-48(s0)
   169b4:	504000ef          	jal	ra,16eb8 <toRep>
   169b8:	eea43023          	sd	a0,-288(s0)
   169bc:	00058513          	mv	a0,a1
   169c0:	ee043583          	ld	a1,-288(s0)
   169c4:	fff00613          	li	a2,-1
   169c8:	00165613          	srli	a2,a2,0x1
   169cc:	eec43423          	sd	a2,-280(s0)
   169d0:	00c57533          	and	a0,a0,a2
   169d4:	f6b43023          	sd	a1,-160(s0)
   169d8:	f6a43423          	sd	a0,-152(s0)
   169dc:	fc843583          	ld	a1,-56(s0)
   169e0:	fc043503          	ld	a0,-64(s0)
   169e4:	4d4000ef          	jal	ra,16eb8 <toRep>
   169e8:	ee843603          	ld	a2,-280(s0)
   169ec:	eea43823          	sd	a0,-272(s0)
   169f0:	00058513          	mv	a0,a1
   169f4:	ef043583          	ld	a1,-272(s0)
   169f8:	00c57533          	and	a0,a0,a2
   169fc:	f4b43823          	sd	a1,-176(s0)
   16a00:	f4a43c23          	sd	a0,-168(s0)
   16a04:	f6043603          	ld	a2,-160(s0)
   16a08:	f6843503          	ld	a0,-152(s0)
   16a0c:	07fff5b7          	lui	a1,0x7fff
   16a10:	02459593          	slli	a1,a1,0x24
   16a14:	00b536b3          	sltu	a3,a0,a1
   16a18:	eed43c23          	sd	a3,-264(s0)
   16a1c:	00163613          	seqz	a2,a2
   16a20:	f0c43023          	sd	a2,-256(s0)
   16a24:	00b50663          	beq	a0,a1,16a30 <.LBB1_4>
   16a28:	ef843503          	ld	a0,-264(s0)
   16a2c:	f0a43023          	sd	a0,-256(s0)

0000000000016a30 <.LBB1_4>:
   16a30:	f0043503          	ld	a0,-256(s0)
   16a34:	02051863          	bnez	a0,16a64 <.LBB1_6>
   16a38:	0040006f          	j	16a3c <.LBB1_5>

0000000000016a3c <.LBB1_5>:
   16a3c:	fd843583          	ld	a1,-40(s0)
   16a40:	fd043503          	ld	a0,-48(s0)
   16a44:	474000ef          	jal	ra,16eb8 <toRep>
   16a48:	00100613          	li	a2,1
   16a4c:	02f61613          	slli	a2,a2,0x2f
   16a50:	00c5e5b3          	or	a1,a1,a2
   16a54:	4a4000ef          	jal	ra,16ef8 <fromRep>
   16a58:	feb43423          	sd	a1,-24(s0)
   16a5c:	fea43023          	sd	a0,-32(s0)
   16a60:	4400006f          	j	16ea0 <.LBB1_44>

0000000000016a64 <.LBB1_6>:
   16a64:	f5043603          	ld	a2,-176(s0)
   16a68:	f5843503          	ld	a0,-168(s0)
   16a6c:	07fff5b7          	lui	a1,0x7fff
   16a70:	02459593          	slli	a1,a1,0x24
   16a74:	00b536b3          	sltu	a3,a0,a1
   16a78:	ecd43823          	sd	a3,-304(s0)
   16a7c:	00163613          	seqz	a2,a2
   16a80:	ecc43c23          	sd	a2,-296(s0)
   16a84:	00b50663          	beq	a0,a1,16a90 <.LBB1_8>
   16a88:	ed043503          	ld	a0,-304(s0)
   16a8c:	eca43c23          	sd	a0,-296(s0)

0000000000016a90 <.LBB1_8>:
   16a90:	ed843503          	ld	a0,-296(s0)
   16a94:	02051863          	bnez	a0,16ac4 <.LBB1_10>
   16a98:	0040006f          	j	16a9c <.LBB1_9>

0000000000016a9c <.LBB1_9>:
   16a9c:	fc843583          	ld	a1,-56(s0)
   16aa0:	fc043503          	ld	a0,-64(s0)
   16aa4:	414000ef          	jal	ra,16eb8 <toRep>
   16aa8:	00100613          	li	a2,1
   16aac:	02f61613          	slli	a2,a2,0x2f
   16ab0:	00c5e5b3          	or	a1,a1,a2
   16ab4:	444000ef          	jal	ra,16ef8 <fromRep>
   16ab8:	feb43423          	sd	a1,-24(s0)
   16abc:	fea43023          	sd	a0,-32(s0)
   16ac0:	3e00006f          	j	16ea0 <.LBB1_44>

0000000000016ac4 <.LBB1_10>:
   16ac4:	f6043503          	ld	a0,-160(s0)
   16ac8:	f6843583          	ld	a1,-152(s0)
   16acc:	07fff637          	lui	a2,0x7fff
   16ad0:	02461613          	slli	a2,a2,0x24
   16ad4:	00c5c5b3          	xor	a1,a1,a2
   16ad8:	00b56533          	or	a0,a0,a1
   16adc:	06051063          	bnez	a0,16b3c <.LBB1_14>
   16ae0:	0040006f          	j	16ae4 <.LBB1_11>

0000000000016ae4 <.LBB1_11>:
   16ae4:	f5843583          	ld	a1,-168(s0)
   16ae8:	f5043503          	ld	a0,-176(s0)
   16aec:	00b56533          	or	a0,a0,a1
   16af0:	02050863          	beqz	a0,16b20 <.LBB1_13>
   16af4:	0040006f          	j	16af8 <.LBB1_12>

0000000000016af8 <.LBB1_12>:
   16af8:	f6843583          	ld	a1,-152(s0)
   16afc:	f6043503          	ld	a0,-160(s0)
   16b00:	fa843603          	ld	a2,-88(s0)
   16b04:	fa043683          	ld	a3,-96(s0)
   16b08:	00d56533          	or	a0,a0,a3
   16b0c:	00c5e5b3          	or	a1,a1,a2
   16b10:	3e8000ef          	jal	ra,16ef8 <fromRep>
   16b14:	feb43423          	sd	a1,-24(s0)
   16b18:	fea43023          	sd	a0,-32(s0)
   16b1c:	3840006f          	j	16ea0 <.LBB1_44>

0000000000016b20 <.LBB1_13>:
   16b20:	0ffff537          	lui	a0,0xffff
   16b24:	02351593          	slli	a1,a0,0x23
   16b28:	00000513          	li	a0,0
   16b2c:	3cc000ef          	jal	ra,16ef8 <fromRep>
   16b30:	feb43423          	sd	a1,-24(s0)
   16b34:	fea43023          	sd	a0,-32(s0)
   16b38:	3680006f          	j	16ea0 <.LBB1_44>

0000000000016b3c <.LBB1_14>:
   16b3c:	f5043503          	ld	a0,-176(s0)
   16b40:	f5843583          	ld	a1,-168(s0)
   16b44:	07fff637          	lui	a2,0x7fff
   16b48:	02461613          	slli	a2,a2,0x24
   16b4c:	00c5c5b3          	xor	a1,a1,a2
   16b50:	00b56533          	or	a0,a0,a1
   16b54:	06051063          	bnez	a0,16bb4 <.LBB1_18>
   16b58:	0040006f          	j	16b5c <.LBB1_15>

0000000000016b5c <.LBB1_15>:
   16b5c:	f6843583          	ld	a1,-152(s0)
   16b60:	f6043503          	ld	a0,-160(s0)
   16b64:	00b56533          	or	a0,a0,a1
   16b68:	02050863          	beqz	a0,16b98 <.LBB1_17>
   16b6c:	0040006f          	j	16b70 <.LBB1_16>

0000000000016b70 <.LBB1_16>:
   16b70:	f5843583          	ld	a1,-168(s0)
   16b74:	f5043503          	ld	a0,-176(s0)
   16b78:	fa843603          	ld	a2,-88(s0)
   16b7c:	fa043683          	ld	a3,-96(s0)
   16b80:	00d56533          	or	a0,a0,a3
   16b84:	00c5e5b3          	or	a1,a1,a2
   16b88:	370000ef          	jal	ra,16ef8 <fromRep>
   16b8c:	feb43423          	sd	a1,-24(s0)
   16b90:	fea43023          	sd	a0,-32(s0)
   16b94:	30c0006f          	j	16ea0 <.LBB1_44>

0000000000016b98 <.LBB1_17>:
   16b98:	0ffff537          	lui	a0,0xffff
   16b9c:	02351593          	slli	a1,a0,0x23
   16ba0:	00000513          	li	a0,0
   16ba4:	354000ef          	jal	ra,16ef8 <fromRep>
   16ba8:	feb43423          	sd	a1,-24(s0)
   16bac:	fea43023          	sd	a0,-32(s0)
   16bb0:	2f00006f          	j	16ea0 <.LBB1_44>

0000000000016bb4 <.LBB1_18>:
   16bb4:	f6843583          	ld	a1,-152(s0)
   16bb8:	f6043503          	ld	a0,-160(s0)
   16bbc:	00b56533          	or	a0,a0,a1
   16bc0:	02051063          	bnez	a0,16be0 <.LBB1_20>
   16bc4:	0040006f          	j	16bc8 <.LBB1_19>

0000000000016bc8 <.LBB1_19>:
   16bc8:	fa843583          	ld	a1,-88(s0)
   16bcc:	fa043503          	ld	a0,-96(s0)
   16bd0:	328000ef          	jal	ra,16ef8 <fromRep>
   16bd4:	feb43423          	sd	a1,-24(s0)
   16bd8:	fea43023          	sd	a0,-32(s0)
   16bdc:	2c40006f          	j	16ea0 <.LBB1_44>

0000000000016be0 <.LBB1_20>:
   16be0:	f5843583          	ld	a1,-168(s0)
   16be4:	f5043503          	ld	a0,-176(s0)
   16be8:	00b56533          	or	a0,a0,a1
   16bec:	02051063          	bnez	a0,16c0c <.LBB1_22>
   16bf0:	0040006f          	j	16bf4 <.LBB1_21>

0000000000016bf4 <.LBB1_21>:
   16bf4:	fa843583          	ld	a1,-88(s0)
   16bf8:	fa043503          	ld	a0,-96(s0)
   16bfc:	2fc000ef          	jal	ra,16ef8 <fromRep>
   16c00:	feb43423          	sd	a1,-24(s0)
   16c04:	fea43023          	sd	a0,-32(s0)
   16c08:	2980006f          	j	16ea0 <.LBB1_44>

0000000000016c0c <.LBB1_22>:
   16c0c:	f6e45503          	lhu	a0,-146(s0)
   16c10:	02051263          	bnez	a0,16c34 <.LBB1_24>
   16c14:	0040006f          	j	16c18 <.LBB1_23>

0000000000016c18 <.LBB1_23>:
   16c18:	f9040513          	addi	a0,s0,-112
   16c1c:	31c000ef          	jal	ra,16f38 <normalize>
   16c20:	00050593          	mv	a1,a0
   16c24:	f7c42503          	lw	a0,-132(s0)
   16c28:	00b5053b          	addw	a0,a0,a1
   16c2c:	f6a42e23          	sw	a0,-132(s0)
   16c30:	0040006f          	j	16c34 <.LBB1_24>

0000000000016c34 <.LBB1_24>:
   16c34:	f5e45503          	lhu	a0,-162(s0)
   16c38:	02051263          	bnez	a0,16c5c <.LBB1_26>
   16c3c:	0040006f          	j	16c40 <.LBB1_25>

0000000000016c40 <.LBB1_25>:
   16c40:	f8040513          	addi	a0,s0,-128
   16c44:	2f4000ef          	jal	ra,16f38 <normalize>
   16c48:	00050593          	mv	a1,a0
   16c4c:	f7c42503          	lw	a0,-132(s0)
   16c50:	00b5053b          	addw	a0,a0,a1
   16c54:	f6a42e23          	sw	a0,-132(s0)
   16c58:	0040006f          	j	16c5c <.LBB1_26>

0000000000016c5c <.LBB1_26>:
   16c5c:	0040006f          	j	16c60 <.LBB1_27>

0000000000016c60 <.LBB1_27>:
   16c60:	f9843503          	ld	a0,-104(s0)
   16c64:	00100593          	li	a1,1
   16c68:	03059593          	slli	a1,a1,0x30
   16c6c:	00b56533          	or	a0,a0,a1
   16c70:	f8a43c23          	sd	a0,-104(s0)
   16c74:	f8843503          	ld	a0,-120(s0)
   16c78:	00b56533          	or	a0,a0,a1
   16c7c:	f8a43423          	sd	a0,-120(s0)
   16c80:	f9843583          	ld	a1,-104(s0)
   16c84:	f9043503          	ld	a0,-112(s0)
   16c88:	f8843683          	ld	a3,-120(s0)
   16c8c:	f8043603          	ld	a2,-128(s0)
   16c90:	03165713          	srli	a4,a2,0x31
   16c94:	00f69693          	slli	a3,a3,0xf
   16c98:	00e6e6b3          	or	a3,a3,a4
   16c9c:	00f61613          	slli	a2,a2,0xf
   16ca0:	f4040713          	addi	a4,s0,-192
   16ca4:	f3040793          	addi	a5,s0,-208
   16ca8:	36c000ef          	jal	ra,17014 <wideMultiply>
   16cac:	fbc42503          	lw	a0,-68(s0)
   16cb0:	fb842583          	lw	a1,-72(s0)
   16cb4:	00b5053b          	addw	a0,a0,a1
   16cb8:	f7c42583          	lw	a1,-132(s0)
   16cbc:	00b5053b          	addw	a0,a0,a1
   16cc0:	ffffc5b7          	lui	a1,0xffffc
   16cc4:	0015859b          	addiw	a1,a1,1 # ffffffffffffc001 <__global_pointer$+0xfffffffffffe1139>
   16cc8:	00b5053b          	addw	a0,a0,a1
   16ccc:	f2a42623          	sw	a0,-212(s0)
   16cd0:	f4e44503          	lbu	a0,-178(s0)
   16cd4:	00157513          	andi	a0,a0,1
   16cd8:	00050c63          	beqz	a0,16cf0 <.LBB1_29>
   16cdc:	0040006f          	j	16ce0 <.LBB1_28>

0000000000016ce0 <.LBB1_28>:
   16ce0:	f2c42503          	lw	a0,-212(s0)
   16ce4:	0015051b          	addiw	a0,a0,1 # ffff001 <__global_pointer$+0xffe4139>
   16ce8:	f2a42623          	sw	a0,-212(s0)
   16cec:	0180006f          	j	16d04 <.LBB1_30>

0000000000016cf0 <.LBB1_29>:
   16cf0:	f4040513          	addi	a0,s0,-192
   16cf4:	f3040593          	addi	a1,s0,-208
   16cf8:	00100613          	li	a2,1
   16cfc:	63c000ef          	jal	ra,17338 <wideLeftShift>
   16d00:	0040006f          	j	16d04 <.LBB1_30>

0000000000016d04 <.LBB1_30>:
   16d04:	f2c42503          	lw	a0,-212(s0)
   16d08:	000085b7          	lui	a1,0x8
   16d0c:	fff5859b          	addiw	a1,a1,-1 # 7fff <.Lline_table_start0+0x7fff>
   16d10:	02b54663          	blt	a0,a1,16d3c <.LBB1_32>
   16d14:	0040006f          	j	16d18 <.LBB1_31>

0000000000016d18 <.LBB1_31>:
   16d18:	fa043503          	ld	a0,-96(s0)
   16d1c:	fa843583          	ld	a1,-88(s0)
   16d20:	07fff637          	lui	a2,0x7fff
   16d24:	02461613          	slli	a2,a2,0x24
   16d28:	00c5e5b3          	or	a1,a1,a2
   16d2c:	1cc000ef          	jal	ra,16ef8 <fromRep>
   16d30:	feb43423          	sd	a1,-24(s0)
   16d34:	fea43023          	sd	a0,-32(s0)
   16d38:	1680006f          	j	16ea0 <.LBB1_44>

0000000000016d3c <.LBB1_32>:
   16d3c:	f2c42583          	lw	a1,-212(s0)
   16d40:	00000513          	li	a0,0
   16d44:	04b54a63          	blt	a0,a1,16d98 <.LBB1_36>
   16d48:	0040006f          	j	16d4c <.LBB1_33>

0000000000016d4c <.LBB1_33>:
   16d4c:	f2c42583          	lw	a1,-212(s0)
   16d50:	00100513          	li	a0,1
   16d54:	40b5053b          	subw	a0,a0,a1
   16d58:	f2a42423          	sw	a0,-216(s0)
   16d5c:	f2842503          	lw	a0,-216(s0)
   16d60:	08000593          	li	a1,128
   16d64:	02b56063          	bltu	a0,a1,16d84 <.LBB1_35>
   16d68:	0040006f          	j	16d6c <.LBB1_34>

0000000000016d6c <.LBB1_34>:
   16d6c:	fa843583          	ld	a1,-88(s0)
   16d70:	fa043503          	ld	a0,-96(s0)
   16d74:	184000ef          	jal	ra,16ef8 <fromRep>
   16d78:	feb43423          	sd	a1,-24(s0)
   16d7c:	fea43023          	sd	a0,-32(s0)
   16d80:	1200006f          	j	16ea0 <.LBB1_44>

0000000000016d84 <.LBB1_35>:
   16d84:	f2842603          	lw	a2,-216(s0)
   16d88:	f4040513          	addi	a0,s0,-192
   16d8c:	f3040593          	addi	a1,s0,-208
   16d90:	74c000ef          	jal	ra,174dc <wideRightShiftWithSticky>
   16d94:	0340006f          	j	16dc8 <.LBB1_37>

0000000000016d98 <.LBB1_36>:
   16d98:	f4843503          	ld	a0,-184(s0)
   16d9c:	01051513          	slli	a0,a0,0x10
   16da0:	01055513          	srli	a0,a0,0x10
   16da4:	f4a43423          	sd	a0,-184(s0)
   16da8:	f2c42503          	lw	a0,-212(s0)
   16dac:	03051613          	slli	a2,a0,0x30
   16db0:	f4043583          	ld	a1,-192(s0)
   16db4:	f4843503          	ld	a0,-184(s0)
   16db8:	00c56533          	or	a0,a0,a2
   16dbc:	f4b43023          	sd	a1,-192(s0)
   16dc0:	f4a43423          	sd	a0,-184(s0)
   16dc4:	0040006f          	j	16dc8 <.LBB1_37>

0000000000016dc8 <.LBB1_37>:
   16dc8:	fa843603          	ld	a2,-88(s0)
   16dcc:	fa043683          	ld	a3,-96(s0)
   16dd0:	f4843583          	ld	a1,-184(s0)
   16dd4:	f4043503          	ld	a0,-192(s0)
   16dd8:	00d56533          	or	a0,a0,a3
   16ddc:	00c5e5b3          	or	a1,a1,a2
   16de0:	f4b43423          	sd	a1,-184(s0)
   16de4:	f4a43023          	sd	a0,-192(s0)
   16de8:	f3843503          	ld	a0,-200(s0)
   16dec:	f3043583          	ld	a1,-208(s0)
   16df0:	0015b613          	seqz	a2,a1
   16df4:	00052593          	slti	a1,a0,0
   16df8:	0015c593          	xori	a1,a1,1
   16dfc:	ecb43023          	sd	a1,-320(s0)
   16e00:	fff00593          	li	a1,-1
   16e04:	03f59593          	slli	a1,a1,0x3f
   16e08:	ecc43423          	sd	a2,-312(s0)
   16e0c:	00b50663          	beq	a0,a1,16e18 <.LBB1_39>
   16e10:	ec043503          	ld	a0,-320(s0)
   16e14:	eca43423          	sd	a0,-312(s0)

0000000000016e18 <.LBB1_39>:
   16e18:	ec843503          	ld	a0,-312(s0)
   16e1c:	02051463          	bnez	a0,16e44 <.LBB1_41>
   16e20:	0040006f          	j	16e24 <.LBB1_40>

0000000000016e24 <.LBB1_40>:
   16e24:	f4843503          	ld	a0,-184(s0)
   16e28:	f4043603          	ld	a2,-192(s0)
   16e2c:	00160593          	addi	a1,a2,1 # 7fff001 <__global_pointer$+0x7fe4139>
   16e30:	00c5b633          	sltu	a2,a1,a2
   16e34:	00c50533          	add	a0,a0,a2
   16e38:	f4b43023          	sd	a1,-192(s0)
   16e3c:	f4a43423          	sd	a0,-184(s0)
   16e40:	0040006f          	j	16e44 <.LBB1_41>

0000000000016e44 <.LBB1_41>:
   16e44:	f3043503          	ld	a0,-208(s0)
   16e48:	f3843583          	ld	a1,-200(s0)
   16e4c:	fff00613          	li	a2,-1
   16e50:	03f61613          	slli	a2,a2,0x3f
   16e54:	00c5c5b3          	xor	a1,a1,a2
   16e58:	00b56533          	or	a0,a0,a1
   16e5c:	02051663          	bnez	a0,16e88 <.LBB1_43>
   16e60:	0040006f          	j	16e64 <.LBB1_42>

0000000000016e64 <.LBB1_42>:
   16e64:	f4843503          	ld	a0,-184(s0)
   16e68:	f4043603          	ld	a2,-192(s0)
   16e6c:	00167593          	andi	a1,a2,1
   16e70:	00b605b3          	add	a1,a2,a1
   16e74:	00c5b633          	sltu	a2,a1,a2
   16e78:	00c50533          	add	a0,a0,a2
   16e7c:	f4b43023          	sd	a1,-192(s0)
   16e80:	f4a43423          	sd	a0,-184(s0)
   16e84:	0040006f          	j	16e88 <.LBB1_43>

0000000000016e88 <.LBB1_43>:
   16e88:	f4843583          	ld	a1,-184(s0)
   16e8c:	f4043503          	ld	a0,-192(s0)
   16e90:	068000ef          	jal	ra,16ef8 <fromRep>
   16e94:	feb43423          	sd	a1,-24(s0)
   16e98:	fea43023          	sd	a0,-32(s0)
   16e9c:	0040006f          	j	16ea0 <.LBB1_44>

0000000000016ea0 <.LBB1_44>:
   16ea0:	fe043503          	ld	a0,-32(s0)
   16ea4:	fe843583          	ld	a1,-24(s0)
   16ea8:	13813083          	ld	ra,312(sp)
   16eac:	13013403          	ld	s0,304(sp)
   16eb0:	14010113          	addi	sp,sp,320
   16eb4:	00008067          	ret

0000000000016eb8 <toRep>:
   16eb8:	fd010113          	addi	sp,sp,-48
   16ebc:	02113423          	sd	ra,40(sp)
   16ec0:	02813023          	sd	s0,32(sp)
   16ec4:	03010413          	addi	s0,sp,48
   16ec8:	feb43423          	sd	a1,-24(s0)
   16ecc:	fea43023          	sd	a0,-32(s0)
   16ed0:	fe043503          	ld	a0,-32(s0)
   16ed4:	fe843583          	ld	a1,-24(s0)
   16ed8:	fcb43c23          	sd	a1,-40(s0)
   16edc:	fca43823          	sd	a0,-48(s0)
   16ee0:	fd043503          	ld	a0,-48(s0)
   16ee4:	fd843583          	ld	a1,-40(s0)
   16ee8:	02813083          	ld	ra,40(sp)
   16eec:	02013403          	ld	s0,32(sp)
   16ef0:	03010113          	addi	sp,sp,48
   16ef4:	00008067          	ret

0000000000016ef8 <fromRep>:
   16ef8:	fd010113          	addi	sp,sp,-48
   16efc:	02113423          	sd	ra,40(sp)
   16f00:	02813023          	sd	s0,32(sp)
   16f04:	03010413          	addi	s0,sp,48
   16f08:	feb43423          	sd	a1,-24(s0)
   16f0c:	fea43023          	sd	a0,-32(s0)
   16f10:	fe043503          	ld	a0,-32(s0)
   16f14:	fe843583          	ld	a1,-24(s0)
   16f18:	fcb43c23          	sd	a1,-40(s0)
   16f1c:	fca43823          	sd	a0,-48(s0)
   16f20:	fd043503          	ld	a0,-48(s0)
   16f24:	fd843583          	ld	a1,-40(s0)
   16f28:	02813083          	ld	ra,40(sp)
   16f2c:	02013403          	ld	s0,32(sp)
   16f30:	03010113          	addi	sp,sp,48
   16f34:	00008067          	ret

0000000000016f38 <normalize>:
   16f38:	fa010113          	addi	sp,sp,-96
   16f3c:	04113c23          	sd	ra,88(sp)
   16f40:	04813823          	sd	s0,80(sp)
   16f44:	06010413          	addi	s0,sp,96
   16f48:	fea43423          	sd	a0,-24(s0)
   16f4c:	fe843503          	ld	a0,-24(s0)
   16f50:	00853583          	ld	a1,8(a0)
   16f54:	00053503          	ld	a0,0(a0)
   16f58:	135000ef          	jal	ra,1788c <rep_clz>
   16f5c:	faa43c23          	sd	a0,-72(s0)
   16f60:	00100513          	li	a0,1
   16f64:	faa43423          	sd	a0,-88(s0)
   16f68:	03051593          	slli	a1,a0,0x30
   16f6c:	00000513          	li	a0,0
   16f70:	faa43823          	sd	a0,-80(s0)
   16f74:	119000ef          	jal	ra,1788c <rep_clz>
   16f78:	00050593          	mv	a1,a0
   16f7c:	fb843503          	ld	a0,-72(s0)
   16f80:	40b5053b          	subw	a0,a0,a1
   16f84:	fea42223          	sw	a0,-28(s0)
   16f88:	fe446503          	lwu	a0,-28(s0)
   16f8c:	fe843583          	ld	a1,-24(s0)
   16f90:	fcb43023          	sd	a1,-64(s0)
   16f94:	0005b603          	ld	a2,0(a1)
   16f98:	0085b583          	ld	a1,8(a1)
   16f9c:	00a595b3          	sll	a1,a1,a0
   16fa0:	fff54713          	not	a4,a0
   16fa4:	00165693          	srli	a3,a2,0x1
   16fa8:	00e6d6b3          	srl	a3,a3,a4
   16fac:	00d5e5b3          	or	a1,a1,a3
   16fb0:	00a61633          	sll	a2,a2,a0
   16fb4:	fcc43423          	sd	a2,-56(s0)
   16fb8:	fc050513          	addi	a0,a0,-64
   16fbc:	fca43823          	sd	a0,-48(s0)
   16fc0:	fcb43c23          	sd	a1,-40(s0)
   16fc4:	00054663          	bltz	a0,16fd0 <.LBB4_2>
   16fc8:	fc843503          	ld	a0,-56(s0)
   16fcc:	fca43c23          	sd	a0,-40(s0)

0000000000016fd0 <.LBB4_2>:
   16fd0:	fa843503          	ld	a0,-88(s0)
   16fd4:	fc043603          	ld	a2,-64(s0)
   16fd8:	fc843703          	ld	a4,-56(s0)
   16fdc:	fb043683          	ld	a3,-80(s0)
   16fe0:	fd043783          	ld	a5,-48(s0)
   16fe4:	fd843583          	ld	a1,-40(s0)
   16fe8:	0007a793          	slti	a5,a5,0
   16fec:	40f686b3          	sub	a3,a3,a5
   16ff0:	00e6f6b3          	and	a3,a3,a4
   16ff4:	00d63023          	sd	a3,0(a2)
   16ff8:	00b63423          	sd	a1,8(a2)
   16ffc:	fe442583          	lw	a1,-28(s0)
   17000:	40b5053b          	subw	a0,a0,a1
   17004:	05813083          	ld	ra,88(sp)
   17008:	05013403          	ld	s0,80(sp)
   1700c:	06010113          	addi	sp,sp,96
   17010:	00008067          	ret

0000000000017014 <wideMultiply>:
   17014:	eb010113          	addi	sp,sp,-336
   17018:	14113423          	sd	ra,328(sp)
   1701c:	14813023          	sd	s0,320(sp)
   17020:	15010413          	addi	s0,sp,336
   17024:	feb43423          	sd	a1,-24(s0)
   17028:	fea43023          	sd	a0,-32(s0)
   1702c:	fcd43c23          	sd	a3,-40(s0)
   17030:	fcc43823          	sd	a2,-48(s0)
   17034:	fce43423          	sd	a4,-56(s0)
   17038:	fcf43023          	sd	a5,-64(s0)
   1703c:	fec46503          	lwu	a0,-20(s0)
   17040:	fdc46583          	lwu	a1,-36(s0)
   17044:	891fb0ef          	jal	ra,128d4 <__muldi3>
   17048:	faa43c23          	sd	a0,-72(s0)
   1704c:	fec46503          	lwu	a0,-20(s0)
   17050:	fd846583          	lwu	a1,-40(s0)
   17054:	881fb0ef          	jal	ra,128d4 <__muldi3>
   17058:	faa43823          	sd	a0,-80(s0)
   1705c:	fec46503          	lwu	a0,-20(s0)
   17060:	fd446583          	lwu	a1,-44(s0)
   17064:	871fb0ef          	jal	ra,128d4 <__muldi3>
   17068:	faa43423          	sd	a0,-88(s0)
   1706c:	fec46503          	lwu	a0,-20(s0)
   17070:	fd046583          	lwu	a1,-48(s0)
   17074:	861fb0ef          	jal	ra,128d4 <__muldi3>
   17078:	faa43023          	sd	a0,-96(s0)
   1707c:	fe846503          	lwu	a0,-24(s0)
   17080:	fdc46583          	lwu	a1,-36(s0)
   17084:	851fb0ef          	jal	ra,128d4 <__muldi3>
   17088:	f8a43c23          	sd	a0,-104(s0)
   1708c:	fe846503          	lwu	a0,-24(s0)
   17090:	fd846583          	lwu	a1,-40(s0)
   17094:	841fb0ef          	jal	ra,128d4 <__muldi3>
   17098:	f8a43823          	sd	a0,-112(s0)
   1709c:	fe846503          	lwu	a0,-24(s0)
   170a0:	fd446583          	lwu	a1,-44(s0)
   170a4:	831fb0ef          	jal	ra,128d4 <__muldi3>
   170a8:	f8a43423          	sd	a0,-120(s0)
   170ac:	fe846503          	lwu	a0,-24(s0)
   170b0:	fd046583          	lwu	a1,-48(s0)
   170b4:	821fb0ef          	jal	ra,128d4 <__muldi3>
   170b8:	f8a43023          	sd	a0,-128(s0)
   170bc:	fe446503          	lwu	a0,-28(s0)
   170c0:	fdc46583          	lwu	a1,-36(s0)
   170c4:	811fb0ef          	jal	ra,128d4 <__muldi3>
   170c8:	f6a43c23          	sd	a0,-136(s0)
   170cc:	fe446503          	lwu	a0,-28(s0)
   170d0:	fd846583          	lwu	a1,-40(s0)
   170d4:	801fb0ef          	jal	ra,128d4 <__muldi3>
   170d8:	f6a43823          	sd	a0,-144(s0)
   170dc:	fe446503          	lwu	a0,-28(s0)
   170e0:	fd446583          	lwu	a1,-44(s0)
   170e4:	ff0fb0ef          	jal	ra,128d4 <__muldi3>
   170e8:	f6a43423          	sd	a0,-152(s0)
   170ec:	fe446503          	lwu	a0,-28(s0)
   170f0:	fd046583          	lwu	a1,-48(s0)
   170f4:	fe0fb0ef          	jal	ra,128d4 <__muldi3>
   170f8:	f6a43023          	sd	a0,-160(s0)
   170fc:	fe046503          	lwu	a0,-32(s0)
   17100:	fdc46583          	lwu	a1,-36(s0)
   17104:	fd0fb0ef          	jal	ra,128d4 <__muldi3>
   17108:	f4a43c23          	sd	a0,-168(s0)
   1710c:	fe046503          	lwu	a0,-32(s0)
   17110:	fd846583          	lwu	a1,-40(s0)
   17114:	fc0fb0ef          	jal	ra,128d4 <__muldi3>
   17118:	f4a43823          	sd	a0,-176(s0)
   1711c:	fe046503          	lwu	a0,-32(s0)
   17120:	fd446583          	lwu	a1,-44(s0)
   17124:	fb0fb0ef          	jal	ra,128d4 <__muldi3>
   17128:	f4a43423          	sd	a0,-184(s0)
   1712c:	fe046503          	lwu	a0,-32(s0)
   17130:	fd046583          	lwu	a1,-48(s0)
   17134:	fa0fb0ef          	jal	ra,128d4 <__muldi3>
   17138:	f4a43023          	sd	a0,-192(s0)
   1713c:	f4043503          	ld	a0,-192(s0)
   17140:	00000593          	li	a1,0
   17144:	f2b43c23          	sd	a1,-200(s0)
   17148:	f2a43823          	sd	a0,-208(s0)
   1714c:	f6043503          	ld	a0,-160(s0)
   17150:	f4843603          	ld	a2,-184(s0)
   17154:	00c50633          	add	a2,a0,a2
   17158:	00a63533          	sltu	a0,a2,a0
   1715c:	f2c43023          	sd	a2,-224(s0)
   17160:	f2a43423          	sd	a0,-216(s0)
   17164:	f8043503          	ld	a0,-128(s0)
   17168:	f6843603          	ld	a2,-152(s0)
   1716c:	00c506b3          	add	a3,a0,a2
   17170:	00a6b533          	sltu	a0,a3,a0
   17174:	f5043603          	ld	a2,-176(s0)
   17178:	00c68633          	add	a2,a3,a2
   1717c:	00d636b3          	sltu	a3,a2,a3
   17180:	00d50533          	add	a0,a0,a3
   17184:	f0c43823          	sd	a2,-240(s0)
   17188:	f0a43c23          	sd	a0,-232(s0)
   1718c:	fa043503          	ld	a0,-96(s0)
   17190:	f8843603          	ld	a2,-120(s0)
   17194:	00c50633          	add	a2,a0,a2
   17198:	00a63533          	sltu	a0,a2,a0
   1719c:	f7043683          	ld	a3,-144(s0)
   171a0:	00d606b3          	add	a3,a2,a3
   171a4:	00c6b633          	sltu	a2,a3,a2
   171a8:	00c50533          	add	a0,a0,a2
   171ac:	f5843603          	ld	a2,-168(s0)
   171b0:	00c68633          	add	a2,a3,a2
   171b4:	00d636b3          	sltu	a3,a2,a3
   171b8:	00d50533          	add	a0,a0,a3
   171bc:	f0c43023          	sd	a2,-256(s0)
   171c0:	f0a43423          	sd	a0,-248(s0)
   171c4:	fa843503          	ld	a0,-88(s0)
   171c8:	f9043603          	ld	a2,-112(s0)
   171cc:	00c506b3          	add	a3,a0,a2
   171d0:	00a6b533          	sltu	a0,a3,a0
   171d4:	f7843603          	ld	a2,-136(s0)
   171d8:	00c68633          	add	a2,a3,a2
   171dc:	00d636b3          	sltu	a3,a2,a3
   171e0:	00d50533          	add	a0,a0,a3
   171e4:	eec43823          	sd	a2,-272(s0)
   171e8:	eea43c23          	sd	a0,-264(s0)
   171ec:	fb043503          	ld	a0,-80(s0)
   171f0:	f9843603          	ld	a2,-104(s0)
   171f4:	00c50633          	add	a2,a0,a2
   171f8:	00a63533          	sltu	a0,a2,a0
   171fc:	eec43023          	sd	a2,-288(s0)
   17200:	eea43423          	sd	a0,-280(s0)
   17204:	fb843503          	ld	a0,-72(s0)
   17208:	ecb43c23          	sd	a1,-296(s0)
   1720c:	eca43823          	sd	a0,-304(s0)
   17210:	f3043503          	ld	a0,-208(s0)
   17214:	f2046583          	lwu	a1,-224(s0)
   17218:	02059593          	slli	a1,a1,0x20
   1721c:	00b505b3          	add	a1,a0,a1
   17220:	00a5b533          	sltu	a0,a1,a0
   17224:	ecb43023          	sd	a1,-320(s0)
   17228:	eca43423          	sd	a0,-312(s0)
   1722c:	f3843503          	ld	a0,-200(s0)
   17230:	f2446583          	lwu	a1,-220(s0)
   17234:	f2843603          	ld	a2,-216(s0)
   17238:	02061613          	slli	a2,a2,0x20
   1723c:	00c5e5b3          	or	a1,a1,a2
   17240:	00b505b3          	add	a1,a0,a1
   17244:	00a5b533          	sltu	a0,a1,a0
   17248:	f1043603          	ld	a2,-240(s0)
   1724c:	00c58633          	add	a2,a1,a2
   17250:	00b635b3          	sltu	a1,a2,a1
   17254:	00b50533          	add	a0,a0,a1
   17258:	f0043583          	ld	a1,-256(s0)
   1725c:	02059593          	slli	a1,a1,0x20
   17260:	00b605b3          	add	a1,a2,a1
   17264:	00c5b633          	sltu	a2,a1,a2
   17268:	00c50533          	add	a0,a0,a2
   1726c:	eab43823          	sd	a1,-336(s0)
   17270:	eaa43c23          	sd	a0,-328(s0)
   17274:	ec043603          	ld	a2,-320(s0)
   17278:	ec843503          	ld	a0,-312(s0)
   1727c:	eb043583          	ld	a1,-336(s0)
   17280:	00b50533          	add	a0,a0,a1
   17284:	fc043583          	ld	a1,-64(s0)
   17288:	00c5b023          	sd	a2,0(a1)
   1728c:	00a5b423          	sd	a0,8(a1)
   17290:	eb843503          	ld	a0,-328(s0)
   17294:	f2c46583          	lwu	a1,-212(s0)
   17298:	00b50633          	add	a2,a0,a1
   1729c:	00a63533          	sltu	a0,a2,a0
   172a0:	f1843583          	ld	a1,-232(s0)
   172a4:	00b605b3          	add	a1,a2,a1
   172a8:	00c5b633          	sltu	a2,a1,a2
   172ac:	00c50533          	add	a0,a0,a2
   172b0:	f0446603          	lwu	a2,-252(s0)
   172b4:	f0843683          	ld	a3,-248(s0)
   172b8:	02069713          	slli	a4,a3,0x20
   172bc:	00e66633          	or	a2,a2,a4
   172c0:	0206d693          	srli	a3,a3,0x20
   172c4:	00c58633          	add	a2,a1,a2
   172c8:	00b635b3          	sltu	a1,a2,a1
   172cc:	00d50533          	add	a0,a0,a3
   172d0:	00b50533          	add	a0,a0,a1
   172d4:	ef843683          	ld	a3,-264(s0)
   172d8:	ef043583          	ld	a1,-272(s0)
   172dc:	00b605b3          	add	a1,a2,a1
   172e0:	00c5b633          	sltu	a2,a1,a2
   172e4:	00d50533          	add	a0,a0,a3
   172e8:	00c50533          	add	a0,a0,a2
   172ec:	ee843683          	ld	a3,-280(s0)
   172f0:	ee043603          	ld	a2,-288(s0)
   172f4:	02065713          	srli	a4,a2,0x20
   172f8:	02069693          	slli	a3,a3,0x20
   172fc:	00e6e6b3          	or	a3,a3,a4
   17300:	02061613          	slli	a2,a2,0x20
   17304:	00d50533          	add	a0,a0,a3
   17308:	00c58633          	add	a2,a1,a2
   1730c:	00b635b3          	sltu	a1,a2,a1
   17310:	00b50533          	add	a0,a0,a1
   17314:	ed043583          	ld	a1,-304(s0)
   17318:	00b50533          	add	a0,a0,a1
   1731c:	fc843583          	ld	a1,-56(s0)
   17320:	00c5b023          	sd	a2,0(a1)
   17324:	00a5b423          	sd	a0,8(a1)
   17328:	14813083          	ld	ra,328(sp)
   1732c:	14013403          	ld	s0,320(sp)
   17330:	15010113          	addi	sp,sp,336
   17334:	00008067          	ret

0000000000017338 <wideLeftShift>:
   17338:	f5010113          	addi	sp,sp,-176
   1733c:	0a113423          	sd	ra,168(sp)
   17340:	0a813023          	sd	s0,160(sp)
   17344:	0b010413          	addi	s0,sp,176
   17348:	fea43423          	sd	a0,-24(s0)
   1734c:	feb43023          	sd	a1,-32(s0)
   17350:	fcc42e23          	sw	a2,-36(s0)
   17354:	fe843503          	ld	a0,-24(s0)
   17358:	faa43423          	sd	a0,-88(s0)
   1735c:	00053603          	ld	a2,0(a0)
   17360:	fac43823          	sd	a2,-80(s0)
   17364:	00853583          	ld	a1,8(a0)
   17368:	fdc42503          	lw	a0,-36(s0)
   1736c:	faa43c23          	sd	a0,-72(s0)
   17370:	00a595b3          	sll	a1,a1,a0
   17374:	00165693          	srli	a3,a2,0x1
   17378:	02051513          	slli	a0,a0,0x20
   1737c:	02055513          	srli	a0,a0,0x20
   17380:	fff54713          	not	a4,a0
   17384:	00e6d6b3          	srl	a3,a3,a4
   17388:	00d5e5b3          	or	a1,a1,a3
   1738c:	00a61633          	sll	a2,a2,a0
   17390:	fcc43023          	sd	a2,-64(s0)
   17394:	fc050513          	addi	a0,a0,-64
   17398:	fca43423          	sd	a0,-56(s0)
   1739c:	fcb43823          	sd	a1,-48(s0)
   173a0:	00054663          	bltz	a0,173ac <.LBB6_2>
   173a4:	fc043503          	ld	a0,-64(s0)
   173a8:	fca43823          	sd	a0,-48(s0)

00000000000173ac <.LBB6_2>:
   173ac:	fb843883          	ld	a7,-72(s0)
   173b0:	fc843503          	ld	a0,-56(s0)
   173b4:	fb043583          	ld	a1,-80(s0)
   173b8:	fd043603          	ld	a2,-48(s0)
   173bc:	f6c43c23          	sd	a2,-136(s0)
   173c0:	011595b3          	sll	a1,a1,a7
   173c4:	00052513          	slti	a0,a0,0
   173c8:	00000793          	li	a5,0
   173cc:	f8f43023          	sd	a5,-128(s0)
   173d0:	40a78533          	sub	a0,a5,a0
   173d4:	00b57533          	and	a0,a0,a1
   173d8:	f8a43423          	sd	a0,-120(s0)
   173dc:	fe043503          	ld	a0,-32(s0)
   173e0:	00053583          	ld	a1,0(a0)
   173e4:	00853603          	ld	a2,8(a0)
   173e8:	08000513          	li	a0,128
   173ec:	411506bb          	subw	a3,a0,a7
   173f0:	4110073b          	negw	a4,a7
   173f4:	00e65833          	srl	a6,a2,a4
   173f8:	f9043823          	sd	a6,-112(s0)
   173fc:	04000513          	li	a0,64
   17400:	41150533          	sub	a0,a0,a7
   17404:	00052893          	slti	a7,a0,0
   17408:	411787b3          	sub	a5,a5,a7
   1740c:	0107f7b3          	and	a5,a5,a6
   17410:	f8f43c23          	sd	a5,-104(s0)
   17414:	00e5d5b3          	srl	a1,a1,a4
   17418:	fff6c693          	not	a3,a3
   1741c:	00161613          	slli	a2,a2,0x1
   17420:	00d61633          	sll	a2,a2,a3
   17424:	00c5e5b3          	or	a1,a1,a2
   17428:	fab43023          	sd	a1,-96(s0)
   1742c:	00054663          	bltz	a0,17438 <.LBB6_4>
   17430:	f9043503          	ld	a0,-112(s0)
   17434:	faa43023          	sd	a0,-96(s0)

0000000000017438 <.LBB6_4>:
   17438:	fa843583          	ld	a1,-88(s0)
   1743c:	f7843603          	ld	a2,-136(s0)
   17440:	f9843683          	ld	a3,-104(s0)
   17444:	f8843503          	ld	a0,-120(s0)
   17448:	fa043703          	ld	a4,-96(s0)
   1744c:	00e56533          	or	a0,a0,a4
   17450:	00d66633          	or	a2,a2,a3
   17454:	00c5b423          	sd	a2,8(a1)
   17458:	00a5b023          	sd	a0,0(a1)
   1745c:	fe043503          	ld	a0,-32(s0)
   17460:	f4a43c23          	sd	a0,-168(s0)
   17464:	00053603          	ld	a2,0(a0)
   17468:	00853583          	ld	a1,8(a0)
   1746c:	fdc46503          	lwu	a0,-36(s0)
   17470:	00a595b3          	sll	a1,a1,a0
   17474:	fff54713          	not	a4,a0
   17478:	00165693          	srli	a3,a2,0x1
   1747c:	00e6d6b3          	srl	a3,a3,a4
   17480:	00d5e5b3          	or	a1,a1,a3
   17484:	00a61633          	sll	a2,a2,a0
   17488:	f6c43023          	sd	a2,-160(s0)
   1748c:	fc050513          	addi	a0,a0,-64
   17490:	f6a43423          	sd	a0,-152(s0)
   17494:	f6b43823          	sd	a1,-144(s0)
   17498:	00054663          	bltz	a0,174a4 <.LBB6_6>
   1749c:	f6043503          	ld	a0,-160(s0)
   174a0:	f6a43823          	sd	a0,-144(s0)

00000000000174a4 <.LBB6_6>:
   174a4:	f5843583          	ld	a1,-168(s0)
   174a8:	f6043683          	ld	a3,-160(s0)
   174ac:	f8043603          	ld	a2,-128(s0)
   174b0:	f6843703          	ld	a4,-152(s0)
   174b4:	f7043503          	ld	a0,-144(s0)
   174b8:	00072713          	slti	a4,a4,0
   174bc:	40e60633          	sub	a2,a2,a4
   174c0:	00d67633          	and	a2,a2,a3
   174c4:	00c5b023          	sd	a2,0(a1)
   174c8:	00a5b423          	sd	a0,8(a1)
   174cc:	0a813083          	ld	ra,168(sp)
   174d0:	0a013403          	ld	s0,160(sp)
   174d4:	0b010113          	addi	sp,sp,176
   174d8:	00008067          	ret

00000000000174dc <wideRightShiftWithSticky>:
   174dc:	f0010113          	addi	sp,sp,-256
   174e0:	0e113c23          	sd	ra,248(sp)
   174e4:	0e813823          	sd	s0,240(sp)
   174e8:	10010413          	addi	s0,sp,256
   174ec:	fea43423          	sd	a0,-24(s0)
   174f0:	feb43023          	sd	a1,-32(s0)
   174f4:	fcc42e23          	sw	a2,-36(s0)
   174f8:	fdc42583          	lw	a1,-36(s0)
   174fc:	07f00513          	li	a0,127
   17500:	1eb56e63          	bltu	a0,a1,176fc <.LBB7_10>
   17504:	0040006f          	j	17508 <.LBB7_1>

0000000000017508 <.LBB7_1>:
   17508:	fe043503          	ld	a0,-32(s0)
   1750c:	00053603          	ld	a2,0(a0)
   17510:	00853503          	ld	a0,8(a0)
   17514:	fdc46703          	lwu	a4,-36(s0)
   17518:	08000593          	li	a1,128
   1751c:	fab43823          	sd	a1,-80(s0)
   17520:	40e585bb          	subw	a1,a1,a4
   17524:	40e006bb          	negw	a3,a4
   17528:	00d51533          	sll	a0,a0,a3
   1752c:	fff5c793          	not	a5,a1
   17530:	00165593          	srli	a1,a2,0x1
   17534:	00f5d5b3          	srl	a1,a1,a5
   17538:	00b565b3          	or	a1,a0,a1
   1753c:	04000513          	li	a0,64
   17540:	faa43c23          	sd	a0,-72(s0)
   17544:	40e50533          	sub	a0,a0,a4
   17548:	fca43023          	sd	a0,-64(s0)
   1754c:	00d61633          	sll	a2,a2,a3
   17550:	fcc43423          	sd	a2,-56(s0)
   17554:	fcb43823          	sd	a1,-48(s0)
   17558:	00054663          	bltz	a0,17564 <.LBB7_3>
   1755c:	fc843503          	ld	a0,-56(s0)
   17560:	fca43823          	sd	a0,-48(s0)

0000000000017564 <.LBB7_3>:
   17564:	fb843503          	ld	a0,-72(s0)
   17568:	fb043683          	ld	a3,-80(s0)
   1756c:	fc843703          	ld	a4,-56(s0)
   17570:	fc043583          	ld	a1,-64(s0)
   17574:	fd043603          	ld	a2,-48(s0)
   17578:	0005a593          	slti	a1,a1,0
   1757c:	00000793          	li	a5,0
   17580:	f8f43423          	sd	a5,-120(s0)
   17584:	40b785b3          	sub	a1,a5,a1
   17588:	00e5f5b3          	and	a1,a1,a4
   1758c:	00c5e5b3          	or	a1,a1,a2
   17590:	00b035b3          	snez	a1,a1
   17594:	fcb40da3          	sb	a1,-37(s0)
   17598:	fe843603          	ld	a2,-24(s0)
   1759c:	00863583          	ld	a1,8(a2)
   175a0:	00063603          	ld	a2,0(a2)
   175a4:	fdc46883          	lwu	a7,-36(s0)
   175a8:	f9143823          	sd	a7,-112(s0)
   175ac:	411686bb          	subw	a3,a3,a7
   175b0:	4110073b          	negw	a4,a7
   175b4:	00e61833          	sll	a6,a2,a4
   175b8:	f9043c23          	sd	a6,-104(s0)
   175bc:	41150533          	sub	a0,a0,a7
   175c0:	00052893          	slti	a7,a0,0
   175c4:	411787b3          	sub	a5,a5,a7
   175c8:	0107f7b3          	and	a5,a5,a6
   175cc:	faf43023          	sd	a5,-96(s0)
   175d0:	00e595b3          	sll	a1,a1,a4
   175d4:	fff6c693          	not	a3,a3
   175d8:	00165613          	srli	a2,a2,0x1
   175dc:	00d65633          	srl	a2,a2,a3
   175e0:	00c5e5b3          	or	a1,a1,a2
   175e4:	fab43423          	sd	a1,-88(s0)
   175e8:	00054663          	bltz	a0,175f4 <.LBB7_5>
   175ec:	f9843503          	ld	a0,-104(s0)
   175f0:	faa43423          	sd	a0,-88(s0)

00000000000175f4 <.LBB7_5>:
   175f4:	f9043503          	ld	a0,-112(s0)
   175f8:	fa843583          	ld	a1,-88(s0)
   175fc:	f6b43023          	sd	a1,-160(s0)
   17600:	fe043583          	ld	a1,-32(s0)
   17604:	f6b43423          	sd	a1,-152(s0)
   17608:	0085b603          	ld	a2,8(a1)
   1760c:	0005b583          	ld	a1,0(a1)
   17610:	00a5d5b3          	srl	a1,a1,a0
   17614:	fff54713          	not	a4,a0
   17618:	00161693          	slli	a3,a2,0x1
   1761c:	00e696b3          	sll	a3,a3,a4
   17620:	00d5e5b3          	or	a1,a1,a3
   17624:	00a65633          	srl	a2,a2,a0
   17628:	f6c43823          	sd	a2,-144(s0)
   1762c:	fc050513          	addi	a0,a0,-64
   17630:	f6a43c23          	sd	a0,-136(s0)
   17634:	f8b43023          	sd	a1,-128(s0)
   17638:	00054663          	bltz	a0,17644 <.LBB7_7>
   1763c:	f7043503          	ld	a0,-144(s0)
   17640:	f8a43023          	sd	a0,-128(s0)

0000000000017644 <.LBB7_7>:
   17644:	f6843583          	ld	a1,-152(s0)
   17648:	fa043503          	ld	a0,-96(s0)
   1764c:	f6043603          	ld	a2,-160(s0)
   17650:	f7043783          	ld	a5,-144(s0)
   17654:	f8843703          	ld	a4,-120(s0)
   17658:	f7843803          	ld	a6,-136(s0)
   1765c:	f8043683          	ld	a3,-128(s0)
   17660:	00082813          	slti	a6,a6,0
   17664:	41070733          	sub	a4,a4,a6
   17668:	00f77733          	and	a4,a4,a5
   1766c:	00e66633          	or	a2,a2,a4
   17670:	00d56533          	or	a0,a0,a3
   17674:	fdb44683          	lbu	a3,-37(s0)
   17678:	0016f693          	andi	a3,a3,1
   1767c:	00d56533          	or	a0,a0,a3
   17680:	00c5b423          	sd	a2,8(a1)
   17684:	00a5b023          	sd	a0,0(a1)
   17688:	fe843503          	ld	a0,-24(s0)
   1768c:	f4a43023          	sd	a0,-192(s0)
   17690:	00853603          	ld	a2,8(a0)
   17694:	00053583          	ld	a1,0(a0)
   17698:	fdc46503          	lwu	a0,-36(s0)
   1769c:	00a5d5b3          	srl	a1,a1,a0
   176a0:	fff54713          	not	a4,a0
   176a4:	00161693          	slli	a3,a2,0x1
   176a8:	00e696b3          	sll	a3,a3,a4
   176ac:	00d5e5b3          	or	a1,a1,a3
   176b0:	00a65633          	srl	a2,a2,a0
   176b4:	f4c43423          	sd	a2,-184(s0)
   176b8:	fc050513          	addi	a0,a0,-64
   176bc:	f4a43823          	sd	a0,-176(s0)
   176c0:	f4b43c23          	sd	a1,-168(s0)
   176c4:	00054663          	bltz	a0,176d0 <.LBB7_9>
   176c8:	f4843503          	ld	a0,-184(s0)
   176cc:	f4a43c23          	sd	a0,-168(s0)

00000000000176d0 <.LBB7_9>:
   176d0:	f4043583          	ld	a1,-192(s0)
   176d4:	f4843683          	ld	a3,-184(s0)
   176d8:	f8843603          	ld	a2,-120(s0)
   176dc:	f5043703          	ld	a4,-176(s0)
   176e0:	f5843503          	ld	a0,-168(s0)
   176e4:	00072713          	slti	a4,a4,0
   176e8:	40e60633          	sub	a2,a2,a4
   176ec:	00d67633          	and	a2,a2,a3
   176f0:	00c5b423          	sd	a2,8(a1)
   176f4:	00a5b023          	sd	a0,0(a1)
   176f8:	1840006f          	j	1787c <.LBB7_18>

00000000000176fc <.LBB7_10>:
   176fc:	fdc42583          	lw	a1,-36(s0)
   17700:	0ff00513          	li	a0,255
   17704:	12b56063          	bltu	a0,a1,17824 <.LBB7_16>
   17708:	0040006f          	j	1770c <.LBB7_11>

000000000001770c <.LBB7_11>:
   1770c:	fe843503          	ld	a0,-24(s0)
   17710:	00053603          	ld	a2,0(a0)
   17714:	00853503          	ld	a0,8(a0)
   17718:	fdc46703          	lwu	a4,-36(s0)
   1771c:	10000593          	li	a1,256
   17720:	40e585bb          	subw	a1,a1,a4
   17724:	40e006bb          	negw	a3,a4
   17728:	00d51533          	sll	a0,a0,a3
   1772c:	fff5c793          	not	a5,a1
   17730:	00165593          	srli	a1,a2,0x1
   17734:	00f5d5b3          	srl	a1,a1,a5
   17738:	00b565b3          	or	a1,a0,a1
   1773c:	0c000513          	li	a0,192
   17740:	40e50533          	sub	a0,a0,a4
   17744:	f2a43423          	sd	a0,-216(s0)
   17748:	00d61633          	sll	a2,a2,a3
   1774c:	f2c43823          	sd	a2,-208(s0)
   17750:	f2b43c23          	sd	a1,-200(s0)
   17754:	00054663          	bltz	a0,17760 <.LBB7_13>
   17758:	f3043503          	ld	a0,-208(s0)
   1775c:	f2a43c23          	sd	a0,-200(s0)

0000000000017760 <.LBB7_13>:
   17760:	f3043603          	ld	a2,-208(s0)
   17764:	f2843503          	ld	a0,-216(s0)
   17768:	f3843583          	ld	a1,-200(s0)
   1776c:	00052513          	slti	a0,a0,0
   17770:	00000713          	li	a4,0
   17774:	f0e43423          	sd	a4,-248(s0)
   17778:	40a70533          	sub	a0,a4,a0
   1777c:	00c57533          	and	a0,a0,a2
   17780:	fe043683          	ld	a3,-32(s0)
   17784:	0086b603          	ld	a2,8(a3) # 4077008 <__global_pointer$+0x405c140>
   17788:	0006b683          	ld	a3,0(a3)
   1778c:	00d56533          	or	a0,a0,a3
   17790:	00c5e5b3          	or	a1,a1,a2
   17794:	00b56533          	or	a0,a0,a1
   17798:	00a03533          	snez	a0,a0
   1779c:	fca40d23          	sb	a0,-38(s0)
   177a0:	fe843503          	ld	a0,-24(s0)
   177a4:	00053583          	ld	a1,0(a0)
   177a8:	00853603          	ld	a2,8(a0)
   177ac:	fdc46683          	lwu	a3,-36(s0)
   177b0:	00d657b3          	srl	a5,a2,a3
   177b4:	f0f43823          	sd	a5,-240(s0)
   177b8:	f4068513          	addi	a0,a3,-192
   177bc:	00052813          	slti	a6,a0,0
   177c0:	41070733          	sub	a4,a4,a6
   177c4:	00f77733          	and	a4,a4,a5
   177c8:	f0e43c23          	sd	a4,-232(s0)
   177cc:	00d5d5b3          	srl	a1,a1,a3
   177d0:	fff6c693          	not	a3,a3
   177d4:	00161613          	slli	a2,a2,0x1
   177d8:	00d61633          	sll	a2,a2,a3
   177dc:	00c5e5b3          	or	a1,a1,a2
   177e0:	f2b43023          	sd	a1,-224(s0)
   177e4:	00054663          	bltz	a0,177f0 <.LBB7_15>
   177e8:	f1043503          	ld	a0,-240(s0)
   177ec:	f2a43023          	sd	a0,-224(s0)

00000000000177f0 <.LBB7_15>:
   177f0:	f0843503          	ld	a0,-248(s0)
   177f4:	f1843683          	ld	a3,-232(s0)
   177f8:	f2043583          	ld	a1,-224(s0)
   177fc:	fda44603          	lbu	a2,-38(s0)
   17800:	00167613          	andi	a2,a2,1
   17804:	00c5e5b3          	or	a1,a1,a2
   17808:	fe043603          	ld	a2,-32(s0)
   1780c:	00d63423          	sd	a3,8(a2)
   17810:	00b63023          	sd	a1,0(a2)
   17814:	fe843583          	ld	a1,-24(s0)
   17818:	00a5b423          	sd	a0,8(a1)
   1781c:	00a5b023          	sd	a0,0(a1)
   17820:	0580006f          	j	17878 <.LBB7_17>

0000000000017824 <.LBB7_16>:
   17824:	fe843583          	ld	a1,-24(s0)
   17828:	0005b503          	ld	a0,0(a1)
   1782c:	0085b583          	ld	a1,8(a1)
   17830:	fe043683          	ld	a3,-32(s0)
   17834:	0006b603          	ld	a2,0(a3)
   17838:	0086b683          	ld	a3,8(a3)
   1783c:	00d5e5b3          	or	a1,a1,a3
   17840:	00c56533          	or	a0,a0,a2
   17844:	00b56533          	or	a0,a0,a1
   17848:	00a03533          	snez	a0,a0
   1784c:	fca40ca3          	sb	a0,-39(s0)
   17850:	fd944503          	lbu	a0,-39(s0)
   17854:	00157593          	andi	a1,a0,1
   17858:	fe043603          	ld	a2,-32(s0)
   1785c:	00000513          	li	a0,0
   17860:	00a63423          	sd	a0,8(a2)
   17864:	00b63023          	sd	a1,0(a2)
   17868:	fe843583          	ld	a1,-24(s0)
   1786c:	00a5b423          	sd	a0,8(a1)
   17870:	00a5b023          	sd	a0,0(a1)
   17874:	0040006f          	j	17878 <.LBB7_17>

0000000000017878 <.LBB7_17>:
   17878:	0040006f          	j	1787c <.LBB7_18>

000000000001787c <.LBB7_18>:
   1787c:	0f813083          	ld	ra,248(sp)
   17880:	0f013403          	ld	s0,240(sp)
   17884:	10010113          	addi	sp,sp,256
   17888:	00008067          	ret

000000000001788c <rep_clz>:
   1788c:	fc010113          	addi	sp,sp,-64
   17890:	02113c23          	sd	ra,56(sp)
   17894:	02813823          	sd	s0,48(sp)
   17898:	04010413          	addi	s0,sp,64
   1789c:	feb43423          	sd	a1,-24(s0)
   178a0:	fea43023          	sd	a0,-32(s0)
   178a4:	fe043503          	ld	a0,-32(s0)
   178a8:	fe843583          	ld	a1,-24(s0)
   178ac:	fcb43c23          	sd	a1,-40(s0)
   178b0:	fca43823          	sd	a0,-48(s0)
   178b4:	fd843503          	ld	a0,-40(s0)
   178b8:	00050e63          	beqz	a0,178d4 <.LBB8_2>
   178bc:	0040006f          	j	178c0 <.LBB8_1>

00000000000178c0 <.LBB8_1>:
   178c0:	fd843503          	ld	a0,-40(s0)
   178c4:	fca43423          	sd	a0,-56(s0)
   178c8:	00000513          	li	a0,0
   178cc:	fca43023          	sd	a0,-64(s0)
   178d0:	0180006f          	j	178e8 <.LBB8_3>

00000000000178d4 <.LBB8_2>:
   178d4:	fd043503          	ld	a0,-48(s0)
   178d8:	fca43423          	sd	a0,-56(s0)
   178dc:	04000513          	li	a0,64
   178e0:	fca43023          	sd	a0,-64(s0)
   178e4:	0040006f          	j	178e8 <.LBB8_3>

00000000000178e8 <.LBB8_3>:
   178e8:	fc843503          	ld	a0,-56(s0)
   178ec:	00155593          	srli	a1,a0,0x1
   178f0:	00b56533          	or	a0,a0,a1
   178f4:	00255593          	srli	a1,a0,0x2
   178f8:	00b56533          	or	a0,a0,a1
   178fc:	00455593          	srli	a1,a0,0x4
   17900:	00b56533          	or	a0,a0,a1
   17904:	00855593          	srli	a1,a0,0x8
   17908:	00b56533          	or	a0,a0,a1
   1790c:	01055593          	srli	a1,a0,0x10
   17910:	00b56533          	or	a0,a0,a1
   17914:	02055593          	srli	a1,a0,0x20
   17918:	00b56533          	or	a0,a0,a1
   1791c:	fff54513          	not	a0,a0
   17920:	00155593          	srli	a1,a0,0x1

0000000000017924 <.Lpcrel_hi0>:
   17924:	ffff9617          	auipc	a2,0xffff9
   17928:	39c60613          	addi	a2,a2,924 # 10cc0 <errmsg+0x738>
   1792c:	00063603          	ld	a2,0(a2)
   17930:	00c5f5b3          	and	a1,a1,a2
   17934:	40b505b3          	sub	a1,a0,a1

0000000000017938 <.Lpcrel_hi1>:
   17938:	ffff9517          	auipc	a0,0xffff9
   1793c:	37050513          	addi	a0,a0,880 # 10ca8 <errmsg+0x720>
   17940:	00053603          	ld	a2,0(a0)
   17944:	00c5f533          	and	a0,a1,a2
   17948:	0025d593          	srli	a1,a1,0x2
   1794c:	00c5f5b3          	and	a1,a1,a2
   17950:	00b50533          	add	a0,a0,a1
   17954:	00455593          	srli	a1,a0,0x4
   17958:	00b50533          	add	a0,a0,a1

000000000001795c <.Lpcrel_hi2>:
   1795c:	ffff9597          	auipc	a1,0xffff9
   17960:	35458593          	addi	a1,a1,852 # 10cb0 <errmsg+0x728>
   17964:	0005b583          	ld	a1,0(a1)
   17968:	00b57533          	and	a0,a0,a1

000000000001796c <.Lpcrel_hi3>:
   1796c:	ffff9597          	auipc	a1,0xffff9
   17970:	34c58593          	addi	a1,a1,844 # 10cb8 <errmsg+0x730>
   17974:	0005b583          	ld	a1,0(a1)
   17978:	f5dfa0ef          	jal	ra,128d4 <__muldi3>
   1797c:	03855513          	srli	a0,a0,0x38
   17980:	fc043583          	ld	a1,-64(s0)
   17984:	00b5053b          	addw	a0,a0,a1
   17988:	03813083          	ld	ra,56(sp)
   1798c:	03013403          	ld	s0,48(sp)
   17990:	04010113          	addi	sp,sp,64
   17994:	00008067          	ret

0000000000017998 <__addtf3>:
   17998:	fd010113          	addi	sp,sp,-48
   1799c:	02113423          	sd	ra,40(sp)
   179a0:	02813023          	sd	s0,32(sp)
   179a4:	03010413          	addi	s0,sp,48
   179a8:	feb43423          	sd	a1,-24(s0)
   179ac:	fea43023          	sd	a0,-32(s0)
   179b0:	fcd43c23          	sd	a3,-40(s0)
   179b4:	fcc43823          	sd	a2,-48(s0)
   179b8:	fd843683          	ld	a3,-40(s0)
   179bc:	fd043603          	ld	a2,-48(s0)
   179c0:	fe843583          	ld	a1,-24(s0)
   179c4:	fe043503          	ld	a0,-32(s0)
   179c8:	014000ef          	jal	ra,179dc <__addXf3__>
   179cc:	02813083          	ld	ra,40(sp)
   179d0:	02013403          	ld	s0,32(sp)
   179d4:	03010113          	addi	sp,sp,48
   179d8:	00008067          	ret

00000000000179dc <__addXf3__>:
   179dc:	df010113          	addi	sp,sp,-528
   179e0:	20113423          	sd	ra,520(sp)
   179e4:	20813023          	sd	s0,512(sp)
   179e8:	21010413          	addi	s0,sp,528
   179ec:	fcb43c23          	sd	a1,-40(s0)
   179f0:	fca43823          	sd	a0,-48(s0)
   179f4:	fcd43423          	sd	a3,-56(s0)
   179f8:	fcc43023          	sd	a2,-64(s0)
   179fc:	fd843583          	ld	a1,-40(s0)
   17a00:	fd043503          	ld	a0,-48(s0)
   17a04:	2b1000ef          	jal	ra,184b4 <toRep>
   17a08:	fab43c23          	sd	a1,-72(s0)
   17a0c:	faa43823          	sd	a0,-80(s0)
   17a10:	fc843583          	ld	a1,-56(s0)
   17a14:	fc043503          	ld	a0,-64(s0)
   17a18:	29d000ef          	jal	ra,184b4 <toRep>
   17a1c:	fab43423          	sd	a1,-88(s0)
   17a20:	faa43023          	sd	a0,-96(s0)
   17a24:	fb043583          	ld	a1,-80(s0)
   17a28:	fb843503          	ld	a0,-72(s0)
   17a2c:	fff00613          	li	a2,-1
   17a30:	00165613          	srli	a2,a2,0x1
   17a34:	00c57533          	and	a0,a0,a2
   17a38:	f8b43823          	sd	a1,-112(s0)
   17a3c:	f8a43c23          	sd	a0,-104(s0)
   17a40:	fa043583          	ld	a1,-96(s0)
   17a44:	fa843503          	ld	a0,-88(s0)
   17a48:	00c57533          	and	a0,a0,a2
   17a4c:	f8b43023          	sd	a1,-128(s0)
   17a50:	f8a43423          	sd	a0,-120(s0)
   17a54:	f9843503          	ld	a0,-104(s0)
   17a58:	f9043583          	ld	a1,-112(s0)
   17a5c:	fff58613          	addi	a2,a1,-1
   17a60:	00b635b3          	sltu	a1,a2,a1
   17a64:	00b50533          	add	a0,a0,a1
   17a68:	fff50513          	addi	a0,a0,-1
   17a6c:	07fff5b7          	lui	a1,0x7fff
   17a70:	02459593          	slli	a1,a1,0x24
   17a74:	fff58593          	addi	a1,a1,-1 # 7ffefff <__global_pointer$+0x7fe4137>
   17a78:	00a5b6b3          	sltu	a3,a1,a0
   17a7c:	eed43823          	sd	a3,-272(s0)
   17a80:	00160613          	addi	a2,a2,1
   17a84:	00163613          	seqz	a2,a2
   17a88:	eec43c23          	sd	a2,-264(s0)
   17a8c:	00b50663          	beq	a0,a1,17a98 <.LBB1_2>
   17a90:	ef043503          	ld	a0,-272(s0)
   17a94:	eea43c23          	sd	a0,-264(s0)

0000000000017a98 <.LBB1_2>:
   17a98:	ef843503          	ld	a0,-264(s0)
   17a9c:	04051a63          	bnez	a0,17af0 <.LBB1_6>
   17aa0:	0040006f          	j	17aa4 <.LBB1_3>

0000000000017aa4 <.LBB1_3>:
   17aa4:	f8843503          	ld	a0,-120(s0)
   17aa8:	f8043583          	ld	a1,-128(s0)
   17aac:	fff58613          	addi	a2,a1,-1
   17ab0:	00b635b3          	sltu	a1,a2,a1
   17ab4:	00b50533          	add	a0,a0,a1
   17ab8:	fff50513          	addi	a0,a0,-1
   17abc:	07fff5b7          	lui	a1,0x7fff
   17ac0:	02459593          	slli	a1,a1,0x24
   17ac4:	fff58593          	addi	a1,a1,-1 # 7ffefff <__global_pointer$+0x7fe4137>
   17ac8:	00b536b3          	sltu	a3,a0,a1
   17acc:	eed43023          	sd	a3,-288(s0)
   17ad0:	fff63613          	sltiu	a2,a2,-1
   17ad4:	eec43423          	sd	a2,-280(s0)
   17ad8:	00b50663          	beq	a0,a1,17ae4 <.LBB1_5>
   17adc:	ee043503          	ld	a0,-288(s0)
   17ae0:	eea43423          	sd	a0,-280(s0)

0000000000017ae4 <.LBB1_5>:
   17ae4:	ee843503          	ld	a0,-280(s0)
   17ae8:	24051663          	bnez	a0,17d34 <.LBB1_27>
   17aec:	0040006f          	j	17af0 <.LBB1_6>

0000000000017af0 <.LBB1_6>:
   17af0:	f9043603          	ld	a2,-112(s0)
   17af4:	f9843503          	ld	a0,-104(s0)
   17af8:	07fff5b7          	lui	a1,0x7fff
   17afc:	02459593          	slli	a1,a1,0x24
   17b00:	00b536b3          	sltu	a3,a0,a1
   17b04:	ecd43823          	sd	a3,-304(s0)
   17b08:	00163613          	seqz	a2,a2
   17b0c:	ecc43c23          	sd	a2,-296(s0)
   17b10:	00b50663          	beq	a0,a1,17b1c <.LBB1_8>
   17b14:	ed043503          	ld	a0,-304(s0)
   17b18:	eca43c23          	sd	a0,-296(s0)

0000000000017b1c <.LBB1_8>:
   17b1c:	ed843503          	ld	a0,-296(s0)
   17b20:	02051863          	bnez	a0,17b50 <.LBB1_10>
   17b24:	0040006f          	j	17b28 <.LBB1_9>

0000000000017b28 <.LBB1_9>:
   17b28:	fd843583          	ld	a1,-40(s0)
   17b2c:	fd043503          	ld	a0,-48(s0)
   17b30:	185000ef          	jal	ra,184b4 <toRep>
   17b34:	00100613          	li	a2,1
   17b38:	02f61613          	slli	a2,a2,0x2f
   17b3c:	00c5e5b3          	or	a1,a1,a2
   17b40:	1b5000ef          	jal	ra,184f4 <fromRep>
   17b44:	feb43423          	sd	a1,-24(s0)
   17b48:	fea43023          	sd	a0,-32(s0)
   17b4c:	1510006f          	j	1849c <.LBB1_84>

0000000000017b50 <.LBB1_10>:
   17b50:	f8043603          	ld	a2,-128(s0)
   17b54:	f8843503          	ld	a0,-120(s0)
   17b58:	07fff5b7          	lui	a1,0x7fff
   17b5c:	02459593          	slli	a1,a1,0x24
   17b60:	00b536b3          	sltu	a3,a0,a1
   17b64:	ecd43023          	sd	a3,-320(s0)
   17b68:	00163613          	seqz	a2,a2
   17b6c:	ecc43423          	sd	a2,-312(s0)
   17b70:	00b50663          	beq	a0,a1,17b7c <.LBB1_12>
   17b74:	ec043503          	ld	a0,-320(s0)
   17b78:	eca43423          	sd	a0,-312(s0)

0000000000017b7c <.LBB1_12>:
   17b7c:	ec843503          	ld	a0,-312(s0)
   17b80:	02051863          	bnez	a0,17bb0 <.LBB1_14>
   17b84:	0040006f          	j	17b88 <.LBB1_13>

0000000000017b88 <.LBB1_13>:
   17b88:	fc843583          	ld	a1,-56(s0)
   17b8c:	fc043503          	ld	a0,-64(s0)
   17b90:	125000ef          	jal	ra,184b4 <toRep>
   17b94:	00100613          	li	a2,1
   17b98:	02f61613          	slli	a2,a2,0x2f
   17b9c:	00c5e5b3          	or	a1,a1,a2
   17ba0:	155000ef          	jal	ra,184f4 <fromRep>
   17ba4:	feb43423          	sd	a1,-24(s0)
   17ba8:	fea43023          	sd	a0,-32(s0)
   17bac:	0f10006f          	j	1849c <.LBB1_84>

0000000000017bb0 <.LBB1_14>:
   17bb0:	f9043503          	ld	a0,-112(s0)
   17bb4:	f9843583          	ld	a1,-104(s0)
   17bb8:	07fff637          	lui	a2,0x7fff
   17bbc:	02461613          	slli	a2,a2,0x24
   17bc0:	00c5c5b3          	xor	a1,a1,a2
   17bc4:	00b56533          	or	a0,a0,a1
   17bc8:	08051463          	bnez	a0,17c50 <.LBB1_18>
   17bcc:	0040006f          	j	17bd0 <.LBB1_15>

0000000000017bd0 <.LBB1_15>:
   17bd0:	fd843583          	ld	a1,-40(s0)
   17bd4:	fd043503          	ld	a0,-48(s0)
   17bd8:	0dd000ef          	jal	ra,184b4 <toRep>
   17bdc:	eaa43823          	sd	a0,-336(s0)
   17be0:	eab43c23          	sd	a1,-328(s0)
   17be4:	fc843583          	ld	a1,-56(s0)
   17be8:	fc043503          	ld	a0,-64(s0)
   17bec:	0c9000ef          	jal	ra,184b4 <toRep>
   17bf0:	00050693          	mv	a3,a0
   17bf4:	eb043503          	ld	a0,-336(s0)
   17bf8:	00058613          	mv	a2,a1
   17bfc:	eb843583          	ld	a1,-328(s0)
   17c00:	00d54533          	xor	a0,a0,a3
   17c04:	00c5c5b3          	xor	a1,a1,a2
   17c08:	fff00613          	li	a2,-1
   17c0c:	03f61613          	slli	a2,a2,0x3f
   17c10:	00c5c5b3          	xor	a1,a1,a2
   17c14:	00b56533          	or	a0,a0,a1
   17c18:	02051263          	bnez	a0,17c3c <.LBB1_17>
   17c1c:	0040006f          	j	17c20 <.LBB1_16>

0000000000017c20 <.LBB1_16>:
   17c20:	0ffff537          	lui	a0,0xffff
   17c24:	02351593          	slli	a1,a0,0x23
   17c28:	00000513          	li	a0,0
   17c2c:	0c9000ef          	jal	ra,184f4 <fromRep>
   17c30:	feb43423          	sd	a1,-24(s0)
   17c34:	fea43023          	sd	a0,-32(s0)
   17c38:	0650006f          	j	1849c <.LBB1_84>

0000000000017c3c <.LBB1_17>:
   17c3c:	fd043503          	ld	a0,-48(s0)
   17c40:	fd843583          	ld	a1,-40(s0)
   17c44:	feb43423          	sd	a1,-24(s0)
   17c48:	fea43023          	sd	a0,-32(s0)
   17c4c:	0510006f          	j	1849c <.LBB1_84>

0000000000017c50 <.LBB1_18>:
   17c50:	f8043503          	ld	a0,-128(s0)
   17c54:	f8843583          	ld	a1,-120(s0)
   17c58:	07fff637          	lui	a2,0x7fff
   17c5c:	02461613          	slli	a2,a2,0x24
   17c60:	00c5c5b3          	xor	a1,a1,a2
   17c64:	00b56533          	or	a0,a0,a1
   17c68:	00051e63          	bnez	a0,17c84 <.LBB1_20>
   17c6c:	0040006f          	j	17c70 <.LBB1_19>

0000000000017c70 <.LBB1_19>:
   17c70:	fc043503          	ld	a0,-64(s0)
   17c74:	fc843583          	ld	a1,-56(s0)
   17c78:	feb43423          	sd	a1,-24(s0)
   17c7c:	fea43023          	sd	a0,-32(s0)
   17c80:	01d0006f          	j	1849c <.LBB1_84>

0000000000017c84 <.LBB1_20>:
   17c84:	f9843583          	ld	a1,-104(s0)
   17c88:	f9043503          	ld	a0,-112(s0)
   17c8c:	00b56533          	or	a0,a0,a1
   17c90:	06051c63          	bnez	a0,17d08 <.LBB1_24>
   17c94:	0040006f          	j	17c98 <.LBB1_21>

0000000000017c98 <.LBB1_21>:
   17c98:	f8843583          	ld	a1,-120(s0)
   17c9c:	f8043503          	ld	a0,-128(s0)
   17ca0:	00b56533          	or	a0,a0,a1
   17ca4:	04051863          	bnez	a0,17cf4 <.LBB1_23>
   17ca8:	0040006f          	j	17cac <.LBB1_22>

0000000000017cac <.LBB1_22>:
   17cac:	fd843583          	ld	a1,-40(s0)
   17cb0:	fd043503          	ld	a0,-48(s0)
   17cb4:	001000ef          	jal	ra,184b4 <toRep>
   17cb8:	eaa43023          	sd	a0,-352(s0)
   17cbc:	eab43423          	sd	a1,-344(s0)
   17cc0:	fc843583          	ld	a1,-56(s0)
   17cc4:	fc043503          	ld	a0,-64(s0)
   17cc8:	7ec000ef          	jal	ra,184b4 <toRep>
   17ccc:	00050693          	mv	a3,a0
   17cd0:	ea043503          	ld	a0,-352(s0)
   17cd4:	00058613          	mv	a2,a1
   17cd8:	ea843583          	ld	a1,-344(s0)
   17cdc:	00d57533          	and	a0,a0,a3
   17ce0:	00c5f5b3          	and	a1,a1,a2
   17ce4:	011000ef          	jal	ra,184f4 <fromRep>
   17ce8:	feb43423          	sd	a1,-24(s0)
   17cec:	fea43023          	sd	a0,-32(s0)
   17cf0:	7ac0006f          	j	1849c <.LBB1_84>

0000000000017cf4 <.LBB1_23>:
   17cf4:	fc043503          	ld	a0,-64(s0)
   17cf8:	fc843583          	ld	a1,-56(s0)
   17cfc:	feb43423          	sd	a1,-24(s0)
   17d00:	fea43023          	sd	a0,-32(s0)
   17d04:	7980006f          	j	1849c <.LBB1_84>

0000000000017d08 <.LBB1_24>:
   17d08:	f8843583          	ld	a1,-120(s0)
   17d0c:	f8043503          	ld	a0,-128(s0)
   17d10:	00b56533          	or	a0,a0,a1
   17d14:	00051e63          	bnez	a0,17d30 <.LBB1_26>
   17d18:	0040006f          	j	17d1c <.LBB1_25>

0000000000017d1c <.LBB1_25>:
   17d1c:	fd043503          	ld	a0,-48(s0)
   17d20:	fd843583          	ld	a1,-40(s0)
   17d24:	feb43423          	sd	a1,-24(s0)
   17d28:	fea43023          	sd	a0,-32(s0)
   17d2c:	7700006f          	j	1849c <.LBB1_84>

0000000000017d30 <.LBB1_26>:
   17d30:	0040006f          	j	17d34 <.LBB1_27>

0000000000017d34 <.LBB1_27>:
   17d34:	f8043683          	ld	a3,-128(s0)
   17d38:	f8843503          	ld	a0,-120(s0)
   17d3c:	f9043603          	ld	a2,-112(s0)
   17d40:	f9843583          	ld	a1,-104(s0)
   17d44:	00a5b733          	sltu	a4,a1,a0
   17d48:	00174713          	xori	a4,a4,1
   17d4c:	e8e43823          	sd	a4,-368(s0)
   17d50:	00d63633          	sltu	a2,a2,a3
   17d54:	00164613          	xori	a2,a2,1
   17d58:	e8c43c23          	sd	a2,-360(s0)
   17d5c:	00b50663          	beq	a0,a1,17d68 <.LBB1_29>
   17d60:	e9043503          	ld	a0,-368(s0)
   17d64:	e8a43c23          	sd	a0,-360(s0)

0000000000017d68 <.LBB1_29>:
   17d68:	e9843503          	ld	a0,-360(s0)
   17d6c:	02051e63          	bnez	a0,17da8 <.LBB1_31>
   17d70:	0040006f          	j	17d74 <.LBB1_30>

0000000000017d74 <.LBB1_30>:
   17d74:	fb043503          	ld	a0,-80(s0)
   17d78:	fb843583          	ld	a1,-72(s0)
   17d7c:	f6b43c23          	sd	a1,-136(s0)
   17d80:	f6a43823          	sd	a0,-144(s0)
   17d84:	fa043503          	ld	a0,-96(s0)
   17d88:	fa843583          	ld	a1,-88(s0)
   17d8c:	fab43c23          	sd	a1,-72(s0)
   17d90:	faa43823          	sd	a0,-80(s0)
   17d94:	f7043503          	ld	a0,-144(s0)
   17d98:	f7843583          	ld	a1,-136(s0)
   17d9c:	fab43423          	sd	a1,-88(s0)
   17da0:	faa43023          	sd	a0,-96(s0)
   17da4:	0040006f          	j	17da8 <.LBB1_31>

0000000000017da8 <.LBB1_31>:
   17da8:	fbe45503          	lhu	a0,-66(s0)
   17dac:	000085b7          	lui	a1,0x8
   17db0:	fff5859b          	addiw	a1,a1,-1 # 7fff <.Lline_table_start0+0x7fff>
   17db4:	00b57533          	and	a0,a0,a1
   17db8:	f6a42623          	sw	a0,-148(s0)
   17dbc:	fae45503          	lhu	a0,-82(s0)
   17dc0:	00b57533          	and	a0,a0,a1
   17dc4:	f6a42423          	sw	a0,-152(s0)
   17dc8:	fb043583          	ld	a1,-80(s0)
   17dcc:	fb843503          	ld	a0,-72(s0)
   17dd0:	fff00613          	li	a2,-1
   17dd4:	01065613          	srli	a2,a2,0x10
   17dd8:	00c57533          	and	a0,a0,a2
   17ddc:	f4b43823          	sd	a1,-176(s0)
   17de0:	f4a43c23          	sd	a0,-168(s0)
   17de4:	fa043583          	ld	a1,-96(s0)
   17de8:	fa843503          	ld	a0,-88(s0)
   17dec:	00c57533          	and	a0,a0,a2
   17df0:	f4b43023          	sd	a1,-192(s0)
   17df4:	f4a43423          	sd	a0,-184(s0)
   17df8:	f6c42503          	lw	a0,-148(s0)
   17dfc:	00051c63          	bnez	a0,17e14 <.LBB1_33>
   17e00:	0040006f          	j	17e04 <.LBB1_32>

0000000000017e04 <.LBB1_32>:
   17e04:	f5040513          	addi	a0,s0,-176
   17e08:	72c000ef          	jal	ra,18534 <normalize>
   17e0c:	f6a42623          	sw	a0,-148(s0)
   17e10:	0040006f          	j	17e14 <.LBB1_33>

0000000000017e14 <.LBB1_33>:
   17e14:	f6842503          	lw	a0,-152(s0)
   17e18:	00051c63          	bnez	a0,17e30 <.LBB1_35>
   17e1c:	0040006f          	j	17e20 <.LBB1_34>

0000000000017e20 <.LBB1_34>:
   17e20:	f4040513          	addi	a0,s0,-192
   17e24:	710000ef          	jal	ra,18534 <normalize>
   17e28:	f6a42423          	sw	a0,-152(s0)
   17e2c:	0040006f          	j	17e30 <.LBB1_35>

0000000000017e30 <.LBB1_35>:
   17e30:	fb843503          	ld	a0,-72(s0)
   17e34:	03f55513          	srli	a0,a0,0x3f
   17e38:	03f51513          	slli	a0,a0,0x3f
   17e3c:	00000593          	li	a1,0
   17e40:	f2b43823          	sd	a1,-208(s0)
   17e44:	f2a43c23          	sd	a0,-200(s0)
   17e48:	fb843503          	ld	a0,-72(s0)
   17e4c:	fa843583          	ld	a1,-88(s0)
   17e50:	00b54533          	xor	a0,a0,a1
   17e54:	03f55513          	srli	a0,a0,0x3f
   17e58:	f2a407a3          	sb	a0,-209(s0)
   17e5c:	f5843503          	ld	a0,-168(s0)
   17e60:	f5043583          	ld	a1,-176(s0)
   17e64:	03d5d613          	srli	a2,a1,0x3d
   17e68:	00351513          	slli	a0,a0,0x3
   17e6c:	00c56533          	or	a0,a0,a2
   17e70:	00359593          	slli	a1,a1,0x3
   17e74:	00100613          	li	a2,1
   17e78:	03361613          	slli	a2,a2,0x33
   17e7c:	00c56533          	or	a0,a0,a2
   17e80:	f4b43823          	sd	a1,-176(s0)
   17e84:	f4a43c23          	sd	a0,-168(s0)
   17e88:	f4843503          	ld	a0,-184(s0)
   17e8c:	f4043583          	ld	a1,-192(s0)
   17e90:	03d5d693          	srli	a3,a1,0x3d
   17e94:	00351513          	slli	a0,a0,0x3
   17e98:	00d56533          	or	a0,a0,a3
   17e9c:	00359593          	slli	a1,a1,0x3
   17ea0:	00c56533          	or	a0,a0,a2
   17ea4:	f4b43023          	sd	a1,-192(s0)
   17ea8:	f4a43423          	sd	a0,-184(s0)
   17eac:	f6c42503          	lw	a0,-148(s0)
   17eb0:	f6842583          	lw	a1,-152(s0)
   17eb4:	40b5053b          	subw	a0,a0,a1
   17eb8:	f2a42423          	sw	a0,-216(s0)
   17ebc:	f2842503          	lw	a0,-216(s0)
   17ec0:	10050a63          	beqz	a0,17fd4 <.LBB1_44>
   17ec4:	0040006f          	j	17ec8 <.LBB1_36>

0000000000017ec8 <.LBB1_36>:
   17ec8:	f2842583          	lw	a1,-216(s0)
   17ecc:	07f00513          	li	a0,127
   17ed0:	0eb56663          	bltu	a0,a1,17fbc <.LBB1_42>
   17ed4:	0040006f          	j	17ed8 <.LBB1_37>

0000000000017ed8 <.LBB1_37>:
   17ed8:	f4043603          	ld	a2,-192(s0)
   17edc:	f4843503          	ld	a0,-184(s0)
   17ee0:	f2846703          	lwu	a4,-216(s0)
   17ee4:	08000593          	li	a1,128
   17ee8:	40e585bb          	subw	a1,a1,a4
   17eec:	40e006bb          	negw	a3,a4
   17ef0:	00d51533          	sll	a0,a0,a3
   17ef4:	fff5c793          	not	a5,a1
   17ef8:	00165593          	srli	a1,a2,0x1
   17efc:	00f5d5b3          	srl	a1,a1,a5
   17f00:	00b565b3          	or	a1,a0,a1
   17f04:	04000513          	li	a0,64
   17f08:	40e50533          	sub	a0,a0,a4
   17f0c:	e6a43c23          	sd	a0,-392(s0)
   17f10:	00d61633          	sll	a2,a2,a3
   17f14:	e8c43023          	sd	a2,-384(s0)
   17f18:	e8b43423          	sd	a1,-376(s0)
   17f1c:	00054663          	bltz	a0,17f28 <.LBB1_39>
   17f20:	e8043503          	ld	a0,-384(s0)
   17f24:	e8a43423          	sd	a0,-376(s0)

0000000000017f28 <.LBB1_39>:
   17f28:	e8043603          	ld	a2,-384(s0)
   17f2c:	e7843503          	ld	a0,-392(s0)
   17f30:	e8843583          	ld	a1,-376(s0)
   17f34:	00052513          	slti	a0,a0,0
   17f38:	00000713          	li	a4,0
   17f3c:	40a70533          	sub	a0,a4,a0
   17f40:	00c57533          	and	a0,a0,a2
   17f44:	00b56533          	or	a0,a0,a1
   17f48:	00a03533          	snez	a0,a0
   17f4c:	f2a403a3          	sb	a0,-217(s0)
   17f50:	f4043583          	ld	a1,-192(s0)
   17f54:	f4843603          	ld	a2,-184(s0)
   17f58:	f2846683          	lwu	a3,-216(s0)
   17f5c:	00d657b3          	srl	a5,a2,a3
   17f60:	e6f43023          	sd	a5,-416(s0)
   17f64:	fc068513          	addi	a0,a3,-64
   17f68:	00052813          	slti	a6,a0,0
   17f6c:	41070733          	sub	a4,a4,a6
   17f70:	00f77733          	and	a4,a4,a5
   17f74:	e6e43423          	sd	a4,-408(s0)
   17f78:	00d5d5b3          	srl	a1,a1,a3
   17f7c:	fff6c693          	not	a3,a3
   17f80:	00161613          	slli	a2,a2,0x1
   17f84:	00d61633          	sll	a2,a2,a3
   17f88:	00c5e5b3          	or	a1,a1,a2
   17f8c:	e6b43823          	sd	a1,-400(s0)
   17f90:	00054663          	bltz	a0,17f9c <.LBB1_41>
   17f94:	e6043503          	ld	a0,-416(s0)
   17f98:	e6a43823          	sd	a0,-400(s0)

0000000000017f9c <.LBB1_41>:
   17f9c:	e6843583          	ld	a1,-408(s0)
   17fa0:	e7043503          	ld	a0,-400(s0)
   17fa4:	f2744603          	lbu	a2,-217(s0)
   17fa8:	00167613          	andi	a2,a2,1
   17fac:	00c56533          	or	a0,a0,a2
   17fb0:	f4b43423          	sd	a1,-184(s0)
   17fb4:	f4a43023          	sd	a0,-192(s0)
   17fb8:	0180006f          	j	17fd0 <.LBB1_43>

0000000000017fbc <.LBB1_42>:
   17fbc:	00000513          	li	a0,0
   17fc0:	f4a43423          	sd	a0,-184(s0)
   17fc4:	00100513          	li	a0,1
   17fc8:	f4a43023          	sd	a0,-192(s0)
   17fcc:	0040006f          	j	17fd0 <.LBB1_43>

0000000000017fd0 <.LBB1_43>:
   17fd0:	0040006f          	j	17fd4 <.LBB1_44>

0000000000017fd4 <.LBB1_44>:
   17fd4:	f2f44503          	lbu	a0,-209(s0)
   17fd8:	00157513          	andi	a0,a0,1
   17fdc:	10050c63          	beqz	a0,180f4 <.LBB1_52>
   17fe0:	0040006f          	j	17fe4 <.LBB1_45>

0000000000017fe4 <.LBB1_45>:
   17fe4:	f4843703          	ld	a4,-184(s0)
   17fe8:	f4043603          	ld	a2,-192(s0)
   17fec:	f5843503          	ld	a0,-168(s0)
   17ff0:	f5043583          	ld	a1,-176(s0)
   17ff4:	00c5b6b3          	sltu	a3,a1,a2
   17ff8:	40e50533          	sub	a0,a0,a4
   17ffc:	40d50533          	sub	a0,a0,a3
   18000:	40c585b3          	sub	a1,a1,a2
   18004:	f4b43823          	sd	a1,-176(s0)
   18008:	f4a43c23          	sd	a0,-168(s0)
   1800c:	f5843583          	ld	a1,-168(s0)
   18010:	f5043503          	ld	a0,-176(s0)
   18014:	00b56533          	or	a0,a0,a1
   18018:	02051063          	bnez	a0,18038 <.LBB1_47>
   1801c:	0040006f          	j	18020 <.LBB1_46>

0000000000018020 <.LBB1_46>:
   18020:	00000593          	li	a1,0
   18024:	00058513          	mv	a0,a1
   18028:	4cc000ef          	jal	ra,184f4 <fromRep>
   1802c:	feb43423          	sd	a1,-24(s0)
   18030:	fea43023          	sd	a0,-32(s0)
   18034:	4680006f          	j	1849c <.LBB1_84>

0000000000018038 <.LBB1_47>:
   18038:	f5843503          	ld	a0,-168(s0)
   1803c:	03355513          	srli	a0,a0,0x33
   18040:	0a051863          	bnez	a0,180f0 <.LBB1_51>
   18044:	0040006f          	j	18048 <.LBB1_48>

0000000000018048 <.LBB1_48>:
   18048:	f5843583          	ld	a1,-168(s0)
   1804c:	f5043503          	ld	a0,-176(s0)
   18050:	5c0000ef          	jal	ra,18610 <rep_clz>
   18054:	e4a43023          	sd	a0,-448(s0)
   18058:	00100513          	li	a0,1
   1805c:	03351593          	slli	a1,a0,0x33
   18060:	00000513          	li	a0,0
   18064:	e2a43c23          	sd	a0,-456(s0)
   18068:	5a8000ef          	jal	ra,18610 <rep_clz>
   1806c:	e3843703          	ld	a4,-456(s0)
   18070:	00050593          	mv	a1,a0
   18074:	e4043503          	ld	a0,-448(s0)
   18078:	40b5053b          	subw	a0,a0,a1
   1807c:	f2a42023          	sw	a0,-224(s0)
   18080:	f2046683          	lwu	a3,-224(s0)
   18084:	f5843583          	ld	a1,-168(s0)
   18088:	f5043603          	ld	a2,-176(s0)
   1808c:	00d617b3          	sll	a5,a2,a3
   18090:	e4f43423          	sd	a5,-440(s0)
   18094:	fc068513          	addi	a0,a3,-64
   18098:	00052813          	slti	a6,a0,0
   1809c:	41070733          	sub	a4,a4,a6
   180a0:	00f77733          	and	a4,a4,a5
   180a4:	e4e43823          	sd	a4,-432(s0)
   180a8:	00d595b3          	sll	a1,a1,a3
   180ac:	fff6c693          	not	a3,a3
   180b0:	00165613          	srli	a2,a2,0x1
   180b4:	00d65633          	srl	a2,a2,a3
   180b8:	00c5e5b3          	or	a1,a1,a2
   180bc:	e4b43c23          	sd	a1,-424(s0)
   180c0:	00054663          	bltz	a0,180cc <.LBB1_50>
   180c4:	e4843503          	ld	a0,-440(s0)
   180c8:	e4a43c23          	sd	a0,-424(s0)

00000000000180cc <.LBB1_50>:
   180cc:	e5043503          	ld	a0,-432(s0)
   180d0:	e5843583          	ld	a1,-424(s0)
   180d4:	f4b43c23          	sd	a1,-168(s0)
   180d8:	f4a43823          	sd	a0,-176(s0)
   180dc:	f2042583          	lw	a1,-224(s0)
   180e0:	f6c42503          	lw	a0,-148(s0)
   180e4:	40b5053b          	subw	a0,a0,a1
   180e8:	f6a42623          	sw	a0,-148(s0)
   180ec:	0040006f          	j	180f0 <.LBB1_51>

00000000000180f0 <.LBB1_51>:
   180f0:	0880006f          	j	18178 <.LBB1_55>

00000000000180f4 <.LBB1_52>:
   180f4:	f4043583          	ld	a1,-192(s0)
   180f8:	f4843683          	ld	a3,-184(s0)
   180fc:	f5043603          	ld	a2,-176(s0)
   18100:	f5843503          	ld	a0,-168(s0)
   18104:	00d50533          	add	a0,a0,a3
   18108:	00b605b3          	add	a1,a2,a1
   1810c:	00c5b633          	sltu	a2,a1,a2
   18110:	00c50533          	add	a0,a0,a2
   18114:	f4b43823          	sd	a1,-176(s0)
   18118:	f4a43c23          	sd	a0,-168(s0)
   1811c:	f5e44503          	lbu	a0,-162(s0)
   18120:	01057513          	andi	a0,a0,16
   18124:	04050863          	beqz	a0,18174 <.LBB1_54>
   18128:	0040006f          	j	1812c <.LBB1_53>

000000000001812c <.LBB1_53>:
   1812c:	f5044503          	lbu	a0,-176(s0)
   18130:	00157513          	andi	a0,a0,1
   18134:	f0a40fa3          	sb	a0,-225(s0)
   18138:	f5043503          	ld	a0,-176(s0)
   1813c:	f5843583          	ld	a1,-168(s0)
   18140:	03f59613          	slli	a2,a1,0x3f
   18144:	00155513          	srli	a0,a0,0x1
   18148:	00c56533          	or	a0,a0,a2
   1814c:	0015d593          	srli	a1,a1,0x1
   18150:	f1f44603          	lbu	a2,-225(s0)
   18154:	00167613          	andi	a2,a2,1
   18158:	00c56533          	or	a0,a0,a2
   1815c:	f4b43c23          	sd	a1,-168(s0)
   18160:	f4a43823          	sd	a0,-176(s0)
   18164:	f6c42503          	lw	a0,-148(s0)
   18168:	0015051b          	addiw	a0,a0,1 # ffff001 <__global_pointer$+0xffe4139>
   1816c:	f6a42623          	sw	a0,-148(s0)
   18170:	0040006f          	j	18174 <.LBB1_54>

0000000000018174 <.LBB1_54>:
   18174:	0040006f          	j	18178 <.LBB1_55>

0000000000018178 <.LBB1_55>:
   18178:	f6c42503          	lw	a0,-148(s0)
   1817c:	000085b7          	lui	a1,0x8
   18180:	fff5859b          	addiw	a1,a1,-1 # 7fff <.Lline_table_start0+0x7fff>
   18184:	02b54663          	blt	a0,a1,181b0 <.LBB1_57>
   18188:	0040006f          	j	1818c <.LBB1_56>

000000000001818c <.LBB1_56>:
   1818c:	f3043503          	ld	a0,-208(s0)
   18190:	f3843583          	ld	a1,-200(s0)
   18194:	07fff637          	lui	a2,0x7fff
   18198:	02461613          	slli	a2,a2,0x24
   1819c:	00c5e5b3          	or	a1,a1,a2
   181a0:	354000ef          	jal	ra,184f4 <fromRep>
   181a4:	feb43423          	sd	a1,-24(s0)
   181a8:	fea43023          	sd	a0,-32(s0)
   181ac:	2f00006f          	j	1849c <.LBB1_84>

00000000000181b0 <.LBB1_57>:
   181b0:	f6c42583          	lw	a1,-148(s0)
   181b4:	00000513          	li	a0,0
   181b8:	10b54463          	blt	a0,a1,182c0 <.LBB1_63>
   181bc:	0040006f          	j	181c0 <.LBB1_58>

00000000000181c0 <.LBB1_58>:
   181c0:	f6c42583          	lw	a1,-148(s0)
   181c4:	00100513          	li	a0,1
   181c8:	40b5053b          	subw	a0,a0,a1
   181cc:	f0a42c23          	sw	a0,-232(s0)
   181d0:	f5043603          	ld	a2,-176(s0)
   181d4:	f5843503          	ld	a0,-168(s0)
   181d8:	f1842703          	lw	a4,-232(s0)
   181dc:	08000593          	li	a1,128
   181e0:	40e585bb          	subw	a1,a1,a4
   181e4:	40e006bb          	negw	a3,a4
   181e8:	00d51533          	sll	a0,a0,a3
   181ec:	fff5c793          	not	a5,a1
   181f0:	00165593          	srli	a1,a2,0x1
   181f4:	00f5d5b3          	srl	a1,a1,a5
   181f8:	00b565b3          	or	a1,a0,a1
   181fc:	04000513          	li	a0,64
   18200:	40e50533          	sub	a0,a0,a4
   18204:	e2a43023          	sd	a0,-480(s0)
   18208:	00d61633          	sll	a2,a2,a3
   1820c:	e2c43423          	sd	a2,-472(s0)
   18210:	e2b43823          	sd	a1,-464(s0)
   18214:	00054663          	bltz	a0,18220 <.LBB1_60>
   18218:	e2843503          	ld	a0,-472(s0)
   1821c:	e2a43823          	sd	a0,-464(s0)

0000000000018220 <.LBB1_60>:
   18220:	e2843603          	ld	a2,-472(s0)
   18224:	e2043503          	ld	a0,-480(s0)
   18228:	e3043583          	ld	a1,-464(s0)
   1822c:	00052513          	slti	a0,a0,0
   18230:	00000713          	li	a4,0
   18234:	e0e43023          	sd	a4,-512(s0)
   18238:	40a70533          	sub	a0,a4,a0
   1823c:	00c57533          	and	a0,a0,a2
   18240:	00b56533          	or	a0,a0,a1
   18244:	00a03533          	snez	a0,a0
   18248:	f0a40ba3          	sb	a0,-233(s0)
   1824c:	f5043583          	ld	a1,-176(s0)
   18250:	f5843603          	ld	a2,-168(s0)
   18254:	f1846683          	lwu	a3,-232(s0)
   18258:	00d657b3          	srl	a5,a2,a3
   1825c:	e0f43423          	sd	a5,-504(s0)
   18260:	fc068513          	addi	a0,a3,-64
   18264:	00052813          	slti	a6,a0,0
   18268:	41070733          	sub	a4,a4,a6
   1826c:	00f77733          	and	a4,a4,a5
   18270:	e0e43823          	sd	a4,-496(s0)
   18274:	00d5d5b3          	srl	a1,a1,a3
   18278:	fff6c693          	not	a3,a3
   1827c:	00161613          	slli	a2,a2,0x1
   18280:	00d61633          	sll	a2,a2,a3
   18284:	00c5e5b3          	or	a1,a1,a2
   18288:	e0b43c23          	sd	a1,-488(s0)
   1828c:	00054663          	bltz	a0,18298 <.LBB1_62>
   18290:	e0843503          	ld	a0,-504(s0)
   18294:	e0a43c23          	sd	a0,-488(s0)

0000000000018298 <.LBB1_62>:
   18298:	e0043503          	ld	a0,-512(s0)
   1829c:	e1043603          	ld	a2,-496(s0)
   182a0:	e1843583          	ld	a1,-488(s0)
   182a4:	f1744683          	lbu	a3,-233(s0)
   182a8:	0016f693          	andi	a3,a3,1
   182ac:	00d5e5b3          	or	a1,a1,a3
   182b0:	f4c43c23          	sd	a2,-168(s0)
   182b4:	f4b43823          	sd	a1,-176(s0)
   182b8:	f6a42623          	sw	a0,-148(s0)
   182bc:	0040006f          	j	182c0 <.LBB1_63>

00000000000182c0 <.LBB1_63>:
   182c0:	f5046503          	lwu	a0,-176(s0)
   182c4:	00757513          	andi	a0,a0,7
   182c8:	f0a42823          	sw	a0,-240(s0)
   182cc:	f5043503          	ld	a0,-176(s0)
   182d0:	f5843583          	ld	a1,-168(s0)
   182d4:	03d59613          	slli	a2,a1,0x3d
   182d8:	00355513          	srli	a0,a0,0x3
   182dc:	00c56533          	or	a0,a0,a2
   182e0:	00d59593          	slli	a1,a1,0xd
   182e4:	0105d593          	srli	a1,a1,0x10
   182e8:	f0b43423          	sd	a1,-248(s0)
   182ec:	f0a43023          	sd	a0,-256(s0)
   182f0:	f6c42503          	lw	a0,-148(s0)
   182f4:	03051613          	slli	a2,a0,0x30
   182f8:	f0043583          	ld	a1,-256(s0)
   182fc:	f0843503          	ld	a0,-248(s0)
   18300:	00c56533          	or	a0,a0,a2
   18304:	f0b43023          	sd	a1,-256(s0)
   18308:	f0a43423          	sd	a0,-248(s0)
   1830c:	f3843603          	ld	a2,-200(s0)
   18310:	f3043683          	ld	a3,-208(s0)
   18314:	f0843583          	ld	a1,-248(s0)
   18318:	f0043503          	ld	a0,-256(s0)
   1831c:	00d56533          	or	a0,a0,a3
   18320:	00c5e5b3          	or	a1,a1,a2
   18324:	f0b43423          	sd	a1,-248(s0)
   18328:	f0a43023          	sd	a0,-256(s0)
   1832c:	3f0000ef          	jal	ra,1871c <__fe_getround>
   18330:	00050593          	mv	a1,a0
   18334:	deb43c23          	sd	a1,-520(s0)
   18338:	04050263          	beqz	a0,1837c <.LBB1_67>
   1833c:	0040006f          	j	18340 <.LBB1_64>

0000000000018340 <.LBB1_64>:
   18340:	df843503          	ld	a0,-520(s0)
   18344:	0005051b          	sext.w	a0,a0
   18348:	00100593          	li	a1,1
   1834c:	08b50c63          	beq	a0,a1,183e4 <.LBB1_72>
   18350:	0040006f          	j	18354 <.LBB1_65>

0000000000018354 <.LBB1_65>:
   18354:	df843503          	ld	a0,-520(s0)
   18358:	0005051b          	sext.w	a0,a0
   1835c:	00200593          	li	a1,2
   18360:	0cb50463          	beq	a0,a1,18428 <.LBB1_76>
   18364:	0040006f          	j	18368 <.LBB1_66>

0000000000018368 <.LBB1_66>:
   18368:	df843503          	ld	a0,-520(s0)
   1836c:	0005051b          	sext.w	a0,a0
   18370:	00300593          	li	a1,3
   18374:	0eb50c63          	beq	a0,a1,1846c <.LBB1_80>
   18378:	0f80006f          	j	18470 <.LBB1_81>

000000000001837c <.LBB1_67>:
   1837c:	f1042503          	lw	a0,-240(s0)
   18380:	00500593          	li	a1,5
   18384:	02b54463          	blt	a0,a1,183ac <.LBB1_69>
   18388:	0040006f          	j	1838c <.LBB1_68>

000000000001838c <.LBB1_68>:
   1838c:	f0843503          	ld	a0,-248(s0)
   18390:	f0043603          	ld	a2,-256(s0)
   18394:	00160593          	addi	a1,a2,1 # 7fff001 <__global_pointer$+0x7fe4139>
   18398:	00c5b633          	sltu	a2,a1,a2
   1839c:	00c50533          	add	a0,a0,a2
   183a0:	f0b43023          	sd	a1,-256(s0)
   183a4:	f0a43423          	sd	a0,-248(s0)
   183a8:	0040006f          	j	183ac <.LBB1_69>

00000000000183ac <.LBB1_69>:
   183ac:	f1042503          	lw	a0,-240(s0)
   183b0:	00400593          	li	a1,4
   183b4:	02b51663          	bne	a0,a1,183e0 <.LBB1_71>
   183b8:	0040006f          	j	183bc <.LBB1_70>

00000000000183bc <.LBB1_70>:
   183bc:	f0843503          	ld	a0,-248(s0)
   183c0:	f0043603          	ld	a2,-256(s0)
   183c4:	00167593          	andi	a1,a2,1
   183c8:	00b605b3          	add	a1,a2,a1
   183cc:	00c5b633          	sltu	a2,a1,a2
   183d0:	00c50533          	add	a0,a0,a2
   183d4:	f0b43023          	sd	a1,-256(s0)
   183d8:	f0a43423          	sd	a0,-248(s0)
   183dc:	0040006f          	j	183e0 <.LBB1_71>

00000000000183e0 <.LBB1_71>:
   183e0:	0900006f          	j	18470 <.LBB1_81>

00000000000183e4 <.LBB1_72>:
   183e4:	f3843583          	ld	a1,-200(s0)
   183e8:	f3043503          	ld	a0,-208(s0)
   183ec:	00b56533          	or	a0,a0,a1
   183f0:	02050a63          	beqz	a0,18424 <.LBB1_75>
   183f4:	0040006f          	j	183f8 <.LBB1_73>

00000000000183f8 <.LBB1_73>:
   183f8:	f1042503          	lw	a0,-240(s0)
   183fc:	02050463          	beqz	a0,18424 <.LBB1_75>
   18400:	0040006f          	j	18404 <.LBB1_74>

0000000000018404 <.LBB1_74>:
   18404:	f0843503          	ld	a0,-248(s0)
   18408:	f0043603          	ld	a2,-256(s0)
   1840c:	00160593          	addi	a1,a2,1
   18410:	00c5b633          	sltu	a2,a1,a2
   18414:	00c50533          	add	a0,a0,a2
   18418:	f0b43023          	sd	a1,-256(s0)
   1841c:	f0a43423          	sd	a0,-248(s0)
   18420:	0040006f          	j	18424 <.LBB1_75>

0000000000018424 <.LBB1_75>:
   18424:	04c0006f          	j	18470 <.LBB1_81>

0000000000018428 <.LBB1_76>:
   18428:	f3843583          	ld	a1,-200(s0)
   1842c:	f3043503          	ld	a0,-208(s0)
   18430:	00b56533          	or	a0,a0,a1
   18434:	02051a63          	bnez	a0,18468 <.LBB1_79>
   18438:	0040006f          	j	1843c <.LBB1_77>

000000000001843c <.LBB1_77>:
   1843c:	f1042503          	lw	a0,-240(s0)
   18440:	02050463          	beqz	a0,18468 <.LBB1_79>
   18444:	0040006f          	j	18448 <.LBB1_78>

0000000000018448 <.LBB1_78>:
   18448:	f0843503          	ld	a0,-248(s0)
   1844c:	f0043603          	ld	a2,-256(s0)
   18450:	00160593          	addi	a1,a2,1
   18454:	00c5b633          	sltu	a2,a1,a2
   18458:	00c50533          	add	a0,a0,a2
   1845c:	f0b43023          	sd	a1,-256(s0)
   18460:	f0a43423          	sd	a0,-248(s0)
   18464:	0040006f          	j	18468 <.LBB1_79>

0000000000018468 <.LBB1_79>:
   18468:	0080006f          	j	18470 <.LBB1_81>

000000000001846c <.LBB1_80>:
   1846c:	0040006f          	j	18470 <.LBB1_81>

0000000000018470 <.LBB1_81>:
   18470:	f1042503          	lw	a0,-240(s0)
   18474:	00050863          	beqz	a0,18484 <.LBB1_83>
   18478:	0040006f          	j	1847c <.LBB1_82>

000000000001847c <.LBB1_82>:
   1847c:	2c4000ef          	jal	ra,18740 <__fe_raise_inexact>
   18480:	0040006f          	j	18484 <.LBB1_83>

0000000000018484 <.LBB1_83>:
   18484:	f0843583          	ld	a1,-248(s0)
   18488:	f0043503          	ld	a0,-256(s0)
   1848c:	068000ef          	jal	ra,184f4 <fromRep>
   18490:	feb43423          	sd	a1,-24(s0)
   18494:	fea43023          	sd	a0,-32(s0)
   18498:	0040006f          	j	1849c <.LBB1_84>

000000000001849c <.LBB1_84>:
   1849c:	fe043503          	ld	a0,-32(s0)
   184a0:	fe843583          	ld	a1,-24(s0)
   184a4:	20813083          	ld	ra,520(sp)
   184a8:	20013403          	ld	s0,512(sp)
   184ac:	21010113          	addi	sp,sp,528
   184b0:	00008067          	ret

00000000000184b4 <toRep>:
   184b4:	fd010113          	addi	sp,sp,-48
   184b8:	02113423          	sd	ra,40(sp)
   184bc:	02813023          	sd	s0,32(sp)
   184c0:	03010413          	addi	s0,sp,48
   184c4:	feb43423          	sd	a1,-24(s0)
   184c8:	fea43023          	sd	a0,-32(s0)
   184cc:	fe043503          	ld	a0,-32(s0)
   184d0:	fe843583          	ld	a1,-24(s0)
   184d4:	fcb43c23          	sd	a1,-40(s0)
   184d8:	fca43823          	sd	a0,-48(s0)
   184dc:	fd043503          	ld	a0,-48(s0)
   184e0:	fd843583          	ld	a1,-40(s0)
   184e4:	02813083          	ld	ra,40(sp)
   184e8:	02013403          	ld	s0,32(sp)
   184ec:	03010113          	addi	sp,sp,48
   184f0:	00008067          	ret

00000000000184f4 <fromRep>:
   184f4:	fd010113          	addi	sp,sp,-48
   184f8:	02113423          	sd	ra,40(sp)
   184fc:	02813023          	sd	s0,32(sp)
   18500:	03010413          	addi	s0,sp,48
   18504:	feb43423          	sd	a1,-24(s0)
   18508:	fea43023          	sd	a0,-32(s0)
   1850c:	fe043503          	ld	a0,-32(s0)
   18510:	fe843583          	ld	a1,-24(s0)
   18514:	fcb43c23          	sd	a1,-40(s0)
   18518:	fca43823          	sd	a0,-48(s0)
   1851c:	fd043503          	ld	a0,-48(s0)
   18520:	fd843583          	ld	a1,-40(s0)
   18524:	02813083          	ld	ra,40(sp)
   18528:	02013403          	ld	s0,32(sp)
   1852c:	03010113          	addi	sp,sp,48
   18530:	00008067          	ret

0000000000018534 <normalize>:
   18534:	fa010113          	addi	sp,sp,-96
   18538:	04113c23          	sd	ra,88(sp)
   1853c:	04813823          	sd	s0,80(sp)
   18540:	06010413          	addi	s0,sp,96
   18544:	fea43423          	sd	a0,-24(s0)
   18548:	fe843503          	ld	a0,-24(s0)
   1854c:	00853583          	ld	a1,8(a0)
   18550:	00053503          	ld	a0,0(a0)
   18554:	0bc000ef          	jal	ra,18610 <rep_clz>
   18558:	faa43c23          	sd	a0,-72(s0)
   1855c:	00100513          	li	a0,1
   18560:	faa43423          	sd	a0,-88(s0)
   18564:	03051593          	slli	a1,a0,0x30
   18568:	00000513          	li	a0,0
   1856c:	faa43823          	sd	a0,-80(s0)
   18570:	0a0000ef          	jal	ra,18610 <rep_clz>
   18574:	00050593          	mv	a1,a0
   18578:	fb843503          	ld	a0,-72(s0)
   1857c:	40b5053b          	subw	a0,a0,a1
   18580:	fea42223          	sw	a0,-28(s0)
   18584:	fe446503          	lwu	a0,-28(s0)
   18588:	fe843583          	ld	a1,-24(s0)
   1858c:	fcb43023          	sd	a1,-64(s0)
   18590:	0005b603          	ld	a2,0(a1)
   18594:	0085b583          	ld	a1,8(a1)
   18598:	00a595b3          	sll	a1,a1,a0
   1859c:	fff54713          	not	a4,a0
   185a0:	00165693          	srli	a3,a2,0x1
   185a4:	00e6d6b3          	srl	a3,a3,a4
   185a8:	00d5e5b3          	or	a1,a1,a3
   185ac:	00a61633          	sll	a2,a2,a0
   185b0:	fcc43423          	sd	a2,-56(s0)
   185b4:	fc050513          	addi	a0,a0,-64
   185b8:	fca43823          	sd	a0,-48(s0)
   185bc:	fcb43c23          	sd	a1,-40(s0)
   185c0:	00054663          	bltz	a0,185cc <.LBB4_2>
   185c4:	fc843503          	ld	a0,-56(s0)
   185c8:	fca43c23          	sd	a0,-40(s0)

00000000000185cc <.LBB4_2>:
   185cc:	fa843503          	ld	a0,-88(s0)
   185d0:	fc043603          	ld	a2,-64(s0)
   185d4:	fc843703          	ld	a4,-56(s0)
   185d8:	fb043683          	ld	a3,-80(s0)
   185dc:	fd043783          	ld	a5,-48(s0)
   185e0:	fd843583          	ld	a1,-40(s0)
   185e4:	0007a793          	slti	a5,a5,0
   185e8:	40f686b3          	sub	a3,a3,a5
   185ec:	00e6f6b3          	and	a3,a3,a4
   185f0:	00d63023          	sd	a3,0(a2)
   185f4:	00b63423          	sd	a1,8(a2)
   185f8:	fe442583          	lw	a1,-28(s0)
   185fc:	40b5053b          	subw	a0,a0,a1
   18600:	05813083          	ld	ra,88(sp)
   18604:	05013403          	ld	s0,80(sp)
   18608:	06010113          	addi	sp,sp,96
   1860c:	00008067          	ret

0000000000018610 <rep_clz>:
   18610:	fc010113          	addi	sp,sp,-64
   18614:	02113c23          	sd	ra,56(sp)
   18618:	02813823          	sd	s0,48(sp)
   1861c:	04010413          	addi	s0,sp,64
   18620:	feb43423          	sd	a1,-24(s0)
   18624:	fea43023          	sd	a0,-32(s0)
   18628:	fe043503          	ld	a0,-32(s0)
   1862c:	fe843583          	ld	a1,-24(s0)
   18630:	fcb43c23          	sd	a1,-40(s0)
   18634:	fca43823          	sd	a0,-48(s0)
   18638:	fd843503          	ld	a0,-40(s0)
   1863c:	00050e63          	beqz	a0,18658 <.LBB5_2>
   18640:	0040006f          	j	18644 <.LBB5_1>

0000000000018644 <.LBB5_1>:
   18644:	fd843503          	ld	a0,-40(s0)
   18648:	fca43423          	sd	a0,-56(s0)
   1864c:	00000513          	li	a0,0
   18650:	fca43023          	sd	a0,-64(s0)
   18654:	0180006f          	j	1866c <.LBB5_3>

0000000000018658 <.LBB5_2>:
   18658:	fd043503          	ld	a0,-48(s0)
   1865c:	fca43423          	sd	a0,-56(s0)
   18660:	04000513          	li	a0,64
   18664:	fca43023          	sd	a0,-64(s0)
   18668:	0040006f          	j	1866c <.LBB5_3>

000000000001866c <.LBB5_3>:
   1866c:	fc843503          	ld	a0,-56(s0)
   18670:	00155593          	srli	a1,a0,0x1
   18674:	00b56533          	or	a0,a0,a1
   18678:	00255593          	srli	a1,a0,0x2
   1867c:	00b56533          	or	a0,a0,a1
   18680:	00455593          	srli	a1,a0,0x4
   18684:	00b56533          	or	a0,a0,a1
   18688:	00855593          	srli	a1,a0,0x8
   1868c:	00b56533          	or	a0,a0,a1
   18690:	01055593          	srli	a1,a0,0x10
   18694:	00b56533          	or	a0,a0,a1
   18698:	02055593          	srli	a1,a0,0x20
   1869c:	00b56533          	or	a0,a0,a1
   186a0:	fff54513          	not	a0,a0
   186a4:	00155593          	srli	a1,a0,0x1

00000000000186a8 <.Lpcrel_hi0>:
   186a8:	ffff8617          	auipc	a2,0xffff8
   186ac:	61860613          	addi	a2,a2,1560 # 10cc0 <errmsg+0x738>
   186b0:	00063603          	ld	a2,0(a2)
   186b4:	00c5f5b3          	and	a1,a1,a2
   186b8:	40b505b3          	sub	a1,a0,a1

00000000000186bc <.Lpcrel_hi1>:
   186bc:	ffff8517          	auipc	a0,0xffff8
   186c0:	5ec50513          	addi	a0,a0,1516 # 10ca8 <errmsg+0x720>
   186c4:	00053603          	ld	a2,0(a0)
   186c8:	00c5f533          	and	a0,a1,a2
   186cc:	0025d593          	srli	a1,a1,0x2
   186d0:	00c5f5b3          	and	a1,a1,a2
   186d4:	00b50533          	add	a0,a0,a1
   186d8:	00455593          	srli	a1,a0,0x4
   186dc:	00b50533          	add	a0,a0,a1

00000000000186e0 <.Lpcrel_hi2>:
   186e0:	ffff8597          	auipc	a1,0xffff8
   186e4:	5d058593          	addi	a1,a1,1488 # 10cb0 <errmsg+0x728>
   186e8:	0005b583          	ld	a1,0(a1)
   186ec:	00b57533          	and	a0,a0,a1

00000000000186f0 <.Lpcrel_hi3>:
   186f0:	ffff8597          	auipc	a1,0xffff8
   186f4:	5c858593          	addi	a1,a1,1480 # 10cb8 <errmsg+0x730>
   186f8:	0005b583          	ld	a1,0(a1)
   186fc:	9d8fa0ef          	jal	ra,128d4 <__muldi3>
   18700:	03855513          	srli	a0,a0,0x38
   18704:	fc043583          	ld	a1,-64(s0)
   18708:	00b5053b          	addw	a0,a0,a1
   1870c:	03813083          	ld	ra,56(sp)
   18710:	03013403          	ld	s0,48(sp)
   18714:	04010113          	addi	sp,sp,64
   18718:	00008067          	ret

000000000001871c <__fe_getround>:
   1871c:	ff010113          	addi	sp,sp,-16
   18720:	00113423          	sd	ra,8(sp)
   18724:	00813023          	sd	s0,0(sp)
   18728:	01010413          	addi	s0,sp,16
   1872c:	00000513          	li	a0,0
   18730:	00813083          	ld	ra,8(sp)
   18734:	00013403          	ld	s0,0(sp)
   18738:	01010113          	addi	sp,sp,16
   1873c:	00008067          	ret

0000000000018740 <__fe_raise_inexact>:
   18740:	ff010113          	addi	sp,sp,-16
   18744:	00113423          	sd	ra,8(sp)
   18748:	00813023          	sd	s0,0(sp)
   1874c:	01010413          	addi	s0,sp,16
   18750:	00000513          	li	a0,0
   18754:	00813083          	ld	ra,8(sp)
   18758:	00013403          	ld	s0,0(sp)
   1875c:	01010113          	addi	sp,sp,16
   18760:	00008067          	ret

0000000000018764 <__subtf3>:
   18764:	fc010113          	addi	sp,sp,-64
   18768:	02113c23          	sd	ra,56(sp)
   1876c:	02813823          	sd	s0,48(sp)
   18770:	04010413          	addi	s0,sp,64
   18774:	feb43423          	sd	a1,-24(s0)
   18778:	fea43023          	sd	a0,-32(s0)
   1877c:	fcd43c23          	sd	a3,-40(s0)
   18780:	fcc43823          	sd	a2,-48(s0)
   18784:	fd843583          	ld	a1,-40(s0)
   18788:	fd043503          	ld	a0,-48(s0)
   1878c:	fe843603          	ld	a2,-24(s0)
   18790:	fcc43423          	sd	a2,-56(s0)
   18794:	fe043603          	ld	a2,-32(s0)
   18798:	fcc43023          	sd	a2,-64(s0)
   1879c:	078000ef          	jal	ra,18814 <toRep>
   187a0:	fff00613          	li	a2,-1
   187a4:	03f61613          	slli	a2,a2,0x3f
   187a8:	00c5c5b3          	xor	a1,a1,a2
   187ac:	028000ef          	jal	ra,187d4 <fromRep>
   187b0:	00050613          	mv	a2,a0
   187b4:	fc043503          	ld	a0,-64(s0)
   187b8:	00058693          	mv	a3,a1
   187bc:	fc843583          	ld	a1,-56(s0)
   187c0:	9d8ff0ef          	jal	ra,17998 <__addtf3>
   187c4:	03813083          	ld	ra,56(sp)
   187c8:	03013403          	ld	s0,48(sp)
   187cc:	04010113          	addi	sp,sp,64
   187d0:	00008067          	ret

00000000000187d4 <fromRep>:
   187d4:	fd010113          	addi	sp,sp,-48
   187d8:	02113423          	sd	ra,40(sp)
   187dc:	02813023          	sd	s0,32(sp)
   187e0:	03010413          	addi	s0,sp,48
   187e4:	feb43423          	sd	a1,-24(s0)
   187e8:	fea43023          	sd	a0,-32(s0)
   187ec:	fe043503          	ld	a0,-32(s0)
   187f0:	fe843583          	ld	a1,-24(s0)
   187f4:	fcb43c23          	sd	a1,-40(s0)
   187f8:	fca43823          	sd	a0,-48(s0)
   187fc:	fd043503          	ld	a0,-48(s0)
   18800:	fd843583          	ld	a1,-40(s0)
   18804:	02813083          	ld	ra,40(sp)
   18808:	02013403          	ld	s0,32(sp)
   1880c:	03010113          	addi	sp,sp,48
   18810:	00008067          	ret

0000000000018814 <toRep>:
   18814:	fd010113          	addi	sp,sp,-48
   18818:	02113423          	sd	ra,40(sp)
   1881c:	02813023          	sd	s0,32(sp)
   18820:	03010413          	addi	s0,sp,48
   18824:	feb43423          	sd	a1,-24(s0)
   18828:	fea43023          	sd	a0,-32(s0)
   1882c:	fe043503          	ld	a0,-32(s0)
   18830:	fe843583          	ld	a1,-24(s0)
   18834:	fcb43c23          	sd	a1,-40(s0)
   18838:	fca43823          	sd	a0,-48(s0)
   1883c:	fd043503          	ld	a0,-48(s0)
   18840:	fd843583          	ld	a1,-40(s0)
   18844:	02813083          	ld	ra,40(sp)
   18848:	02013403          	ld	s0,32(sp)
   1884c:	03010113          	addi	sp,sp,48
   18850:	00008067          	ret

0000000000018854 <__fixunstfsi>:
   18854:	fe010113          	addi	sp,sp,-32
   18858:	00113c23          	sd	ra,24(sp)
   1885c:	00813823          	sd	s0,16(sp)
   18860:	02010413          	addi	s0,sp,32
   18864:	feb43423          	sd	a1,-24(s0)
   18868:	fea43023          	sd	a0,-32(s0)
   1886c:	fe843583          	ld	a1,-24(s0)
   18870:	fe043503          	ld	a0,-32(s0)
   18874:	014000ef          	jal	ra,18888 <__fixuint>
   18878:	01813083          	ld	ra,24(sp)
   1887c:	01013403          	ld	s0,16(sp)
   18880:	02010113          	addi	sp,sp,32
   18884:	00008067          	ret

0000000000018888 <__fixuint>:
   18888:	f8010113          	addi	sp,sp,-128
   1888c:	06113c23          	sd	ra,120(sp)
   18890:	06813823          	sd	s0,112(sp)
   18894:	08010413          	addi	s0,sp,128
   18898:	fcb43c23          	sd	a1,-40(s0)
   1889c:	fca43823          	sd	a0,-48(s0)
   188a0:	fd843583          	ld	a1,-40(s0)
   188a4:	fd043503          	ld	a0,-48(s0)
   188a8:	144000ef          	jal	ra,189ec <toRep>
   188ac:	fcb43423          	sd	a1,-56(s0)
   188b0:	fca43023          	sd	a0,-64(s0)
   188b4:	fc043583          	ld	a1,-64(s0)
   188b8:	fc843503          	ld	a0,-56(s0)
   188bc:	00151513          	slli	a0,a0,0x1
   188c0:	00155513          	srli	a0,a0,0x1
   188c4:	fab43823          	sd	a1,-80(s0)
   188c8:	faa43c23          	sd	a0,-72(s0)
   188cc:	fc843503          	ld	a0,-56(s0)
   188d0:	43f55513          	srai	a0,a0,0x3f
   188d4:	00156513          	ori	a0,a0,1
   188d8:	faa42623          	sw	a0,-84(s0)
   188dc:	fbe45503          	lhu	a0,-66(s0)
   188e0:	ffffc5b7          	lui	a1,0xffffc
   188e4:	0015859b          	addiw	a1,a1,1 # ffffffffffffc001 <__global_pointer$+0xfffffffffffe1139>
   188e8:	00b5053b          	addw	a0,a0,a1
   188ec:	faa42423          	sw	a0,-88(s0)
   188f0:	fb043583          	ld	a1,-80(s0)
   188f4:	fb843503          	ld	a0,-72(s0)
   188f8:	01051513          	slli	a0,a0,0x10
   188fc:	01055513          	srli	a0,a0,0x10
   18900:	00100613          	li	a2,1
   18904:	03061613          	slli	a2,a2,0x30
   18908:	00c56533          	or	a0,a0,a2
   1890c:	f8b43823          	sd	a1,-112(s0)
   18910:	f8a43c23          	sd	a0,-104(s0)
   18914:	fac42503          	lw	a0,-84(s0)
   18918:	fff00593          	li	a1,-1
   1891c:	00b50a63          	beq	a0,a1,18930 <.LBB1_2>
   18920:	0040006f          	j	18924 <.LBB1_1>

0000000000018924 <.LBB1_1>:
   18924:	fa842503          	lw	a0,-88(s0)
   18928:	00055a63          	bgez	a0,1893c <.LBB1_3>
   1892c:	0040006f          	j	18930 <.LBB1_2>

0000000000018930 <.LBB1_2>:
   18930:	00000513          	li	a0,0
   18934:	fea42623          	sw	a0,-20(s0)
   18938:	0a00006f          	j	189d8 <.LBB1_10>

000000000001893c <.LBB1_3>:
   1893c:	fa842503          	lw	a0,-88(s0)
   18940:	02000593          	li	a1,32
   18944:	00b56a63          	bltu	a0,a1,18958 <.LBB1_5>
   18948:	0040006f          	j	1894c <.LBB1_4>

000000000001894c <.LBB1_4>:
   1894c:	fff00513          	li	a0,-1
   18950:	fea42623          	sw	a0,-20(s0)
   18954:	0840006f          	j	189d8 <.LBB1_10>

0000000000018958 <.LBB1_5>:
   18958:	fa842583          	lw	a1,-88(s0)
   1895c:	06f00513          	li	a0,111
   18960:	06b54063          	blt	a0,a1,189c0 <.LBB1_9>
   18964:	0040006f          	j	18968 <.LBB1_6>

0000000000018968 <.LBB1_6>:
   18968:	f9843603          	ld	a2,-104(s0)
   1896c:	f9043583          	ld	a1,-112(s0)
   18970:	fa842683          	lw	a3,-88(s0)
   18974:	07000513          	li	a0,112
   18978:	40d5053b          	subw	a0,a0,a3
   1897c:	00a5d5b3          	srl	a1,a1,a0
   18980:	02051513          	slli	a0,a0,0x20
   18984:	02055513          	srli	a0,a0,0x20
   18988:	fff54713          	not	a4,a0
   1898c:	00161693          	slli	a3,a2,0x1
   18990:	00e696b3          	sll	a3,a3,a4
   18994:	00d5e5b3          	or	a1,a1,a3
   18998:	00a65633          	srl	a2,a2,a0
   1899c:	f8c43023          	sd	a2,-128(s0)
   189a0:	fc050513          	addi	a0,a0,-64
   189a4:	f8b43423          	sd	a1,-120(s0)
   189a8:	00054663          	bltz	a0,189b4 <.LBB1_8>
   189ac:	f8043503          	ld	a0,-128(s0)
   189b0:	f8a43423          	sd	a0,-120(s0)

00000000000189b4 <.LBB1_8>:
   189b4:	f8843503          	ld	a0,-120(s0)
   189b8:	fea42623          	sw	a0,-20(s0)
   189bc:	01c0006f          	j	189d8 <.LBB1_10>

00000000000189c0 <.LBB1_9>:
   189c0:	f9042503          	lw	a0,-112(s0)
   189c4:	fa842583          	lw	a1,-88(s0)
   189c8:	f905859b          	addiw	a1,a1,-112
   189cc:	00b5153b          	sllw	a0,a0,a1
   189d0:	fea42623          	sw	a0,-20(s0)
   189d4:	0040006f          	j	189d8 <.LBB1_10>

00000000000189d8 <.LBB1_10>:
   189d8:	fec42503          	lw	a0,-20(s0)
   189dc:	07813083          	ld	ra,120(sp)
   189e0:	07013403          	ld	s0,112(sp)
   189e4:	08010113          	addi	sp,sp,128
   189e8:	00008067          	ret

00000000000189ec <toRep>:
   189ec:	fd010113          	addi	sp,sp,-48
   189f0:	02113423          	sd	ra,40(sp)
   189f4:	02813023          	sd	s0,32(sp)
   189f8:	03010413          	addi	s0,sp,48
   189fc:	feb43423          	sd	a1,-24(s0)
   18a00:	fea43023          	sd	a0,-32(s0)
   18a04:	fe043503          	ld	a0,-32(s0)
   18a08:	fe843583          	ld	a1,-24(s0)
   18a0c:	fcb43c23          	sd	a1,-40(s0)
   18a10:	fca43823          	sd	a0,-48(s0)
   18a14:	fd043503          	ld	a0,-48(s0)
   18a18:	fd843583          	ld	a1,-40(s0)
   18a1c:	02813083          	ld	ra,40(sp)
   18a20:	02013403          	ld	s0,32(sp)
   18a24:	03010113          	addi	sp,sp,48
   18a28:	00008067          	ret

0000000000018a2c <__floatunsitf>:
   18a2c:	fa010113          	addi	sp,sp,-96
   18a30:	04113c23          	sd	ra,88(sp)
   18a34:	04813823          	sd	s0,80(sp)
   18a38:	06010413          	addi	s0,sp,96
   18a3c:	fca42e23          	sw	a0,-36(s0)
   18a40:	02000513          	li	a0,32
   18a44:	fca42c23          	sw	a0,-40(s0)
   18a48:	fdc42503          	lw	a0,-36(s0)
   18a4c:	02051063          	bnez	a0,18a6c <.LBB0_2>
   18a50:	0040006f          	j	18a54 <.LBB0_1>

0000000000018a54 <.LBB0_1>:
   18a54:	00000593          	li	a1,0
   18a58:	00058513          	mv	a0,a1
   18a5c:	164000ef          	jal	ra,18bc0 <fromRep>
   18a60:	feb43423          	sd	a1,-24(s0)
   18a64:	fea43023          	sd	a0,-32(s0)
   18a68:	1400006f          	j	18ba8 <.LBB0_5>

0000000000018a6c <.LBB0_2>:
   18a6c:	fdc42503          	lw	a0,-36(s0)
   18a70:	0015559b          	srliw	a1,a0,0x1
   18a74:	00b56533          	or	a0,a0,a1
   18a78:	0025559b          	srliw	a1,a0,0x2
   18a7c:	00b56533          	or	a0,a0,a1
   18a80:	0045559b          	srliw	a1,a0,0x4
   18a84:	00b56533          	or	a0,a0,a1
   18a88:	0085559b          	srliw	a1,a0,0x8
   18a8c:	00b56533          	or	a0,a0,a1
   18a90:	0105559b          	srliw	a1,a0,0x10
   18a94:	00b56533          	or	a0,a0,a1
   18a98:	fff54513          	not	a0,a0
   18a9c:	00155593          	srli	a1,a0,0x1
   18aa0:	55555637          	lui	a2,0x55555
   18aa4:	5556061b          	addiw	a2,a2,1365 # 55555555 <__global_pointer$+0x5553a68d>
   18aa8:	00c5f5b3          	and	a1,a1,a2
   18aac:	40b505b3          	sub	a1,a0,a1
   18ab0:	33333537          	lui	a0,0x33333
   18ab4:	3335061b          	addiw	a2,a0,819 # 33333333 <__global_pointer$+0x3331846b>
   18ab8:	00c5f533          	and	a0,a1,a2
   18abc:	0025d593          	srli	a1,a1,0x2
   18ac0:	00c5f5b3          	and	a1,a1,a2
   18ac4:	00b50533          	add	a0,a0,a1
   18ac8:	00455593          	srli	a1,a0,0x4
   18acc:	00b50533          	add	a0,a0,a1
   18ad0:	0f0f15b7          	lui	a1,0xf0f1
   18ad4:	f0f5859b          	addiw	a1,a1,-241 # f0f0f0f <__global_pointer$+0xf0d6047>
   18ad8:	00b57533          	and	a0,a0,a1
   18adc:	010105b7          	lui	a1,0x1010
   18ae0:	1015859b          	addiw	a1,a1,257 # 1010101 <__global_pointer$+0xff5239>
   18ae4:	df1f90ef          	jal	ra,128d4 <__muldi3>
   18ae8:	0185559b          	srliw	a1,a0,0x18
   18aec:	01f00513          	li	a0,31
   18af0:	40b5053b          	subw	a0,a0,a1
   18af4:	fca42a23          	sw	a0,-44(s0)
   18af8:	fd442583          	lw	a1,-44(s0)
   18afc:	07000513          	li	a0,112
   18b00:	40b5053b          	subw	a0,a0,a1
   18b04:	faa42e23          	sw	a0,-68(s0)
   18b08:	fdc46583          	lwu	a1,-36(s0)
   18b0c:	fbc46603          	lwu	a2,-68(s0)
   18b10:	00c59733          	sll	a4,a1,a2
   18b14:	fae43023          	sd	a4,-96(s0)
   18b18:	fc060513          	addi	a0,a2,-64
   18b1c:	00052793          	slti	a5,a0,0
   18b20:	00000693          	li	a3,0
   18b24:	40f686b3          	sub	a3,a3,a5
   18b28:	00e6f6b3          	and	a3,a3,a4
   18b2c:	fad43423          	sd	a3,-88(s0)
   18b30:	fff64613          	not	a2,a2
   18b34:	0015d593          	srli	a1,a1,0x1
   18b38:	00c5d5b3          	srl	a1,a1,a2
   18b3c:	fab43823          	sd	a1,-80(s0)
   18b40:	00054663          	bltz	a0,18b4c <.LBB0_4>
   18b44:	fa043503          	ld	a0,-96(s0)
   18b48:	faa43823          	sd	a0,-80(s0)

0000000000018b4c <.LBB0_4>:
   18b4c:	fa843503          	ld	a0,-88(s0)
   18b50:	fb043583          	ld	a1,-80(s0)
   18b54:	00100613          	li	a2,1
   18b58:	03061613          	slli	a2,a2,0x30
   18b5c:	00c5c5b3          	xor	a1,a1,a2
   18b60:	fcb43423          	sd	a1,-56(s0)
   18b64:	fca43023          	sd	a0,-64(s0)
   18b68:	fd442503          	lw	a0,-44(s0)
   18b6c:	03051513          	slli	a0,a0,0x30
   18b70:	fc843583          	ld	a1,-56(s0)
   18b74:	00b50533          	add	a0,a0,a1
   18b78:	fc043583          	ld	a1,-64(s0)
   18b7c:	03fff637          	lui	a2,0x3fff
   18b80:	02461613          	slli	a2,a2,0x24
   18b84:	00c50533          	add	a0,a0,a2
   18b88:	fcb43023          	sd	a1,-64(s0)
   18b8c:	fca43423          	sd	a0,-56(s0)
   18b90:	fc843583          	ld	a1,-56(s0)
   18b94:	fc043503          	ld	a0,-64(s0)
   18b98:	028000ef          	jal	ra,18bc0 <fromRep>
   18b9c:	feb43423          	sd	a1,-24(s0)
   18ba0:	fea43023          	sd	a0,-32(s0)
   18ba4:	0040006f          	j	18ba8 <.LBB0_5>

0000000000018ba8 <.LBB0_5>:
   18ba8:	fe043503          	ld	a0,-32(s0)
   18bac:	fe843583          	ld	a1,-24(s0)
   18bb0:	05813083          	ld	ra,88(sp)
   18bb4:	05013403          	ld	s0,80(sp)
   18bb8:	06010113          	addi	sp,sp,96
   18bbc:	00008067          	ret

0000000000018bc0 <fromRep>:
   18bc0:	fd010113          	addi	sp,sp,-48
   18bc4:	02113423          	sd	ra,40(sp)
   18bc8:	02813023          	sd	s0,32(sp)
   18bcc:	03010413          	addi	s0,sp,48
   18bd0:	feb43423          	sd	a1,-24(s0)
   18bd4:	fea43023          	sd	a0,-32(s0)
   18bd8:	fe043503          	ld	a0,-32(s0)
   18bdc:	fe843583          	ld	a1,-24(s0)
   18be0:	fcb43c23          	sd	a1,-40(s0)
   18be4:	fca43823          	sd	a0,-48(s0)
   18be8:	fd043503          	ld	a0,-48(s0)
   18bec:	fd843583          	ld	a1,-40(s0)
   18bf0:	02813083          	ld	ra,40(sp)
   18bf4:	02013403          	ld	s0,32(sp)
   18bf8:	03010113          	addi	sp,sp,48
   18bfc:	00008067          	ret

0000000000018c00 <__divdi3>:
   18c00:	fc010113          	addi	sp,sp,-64
   18c04:	02113c23          	sd	ra,56(sp)
   18c08:	02813823          	sd	s0,48(sp)
   18c0c:	04010413          	addi	s0,sp,64
   18c10:	fea43423          	sd	a0,-24(s0)
   18c14:	feb43023          	sd	a1,-32(s0)
   18c18:	03f00513          	li	a0,63
   18c1c:	fca42e23          	sw	a0,-36(s0)
   18c20:	fe843503          	ld	a0,-24(s0)
   18c24:	43f55513          	srai	a0,a0,0x3f
   18c28:	fca43823          	sd	a0,-48(s0)
   18c2c:	fe043503          	ld	a0,-32(s0)
   18c30:	43f55513          	srai	a0,a0,0x3f
   18c34:	fca43423          	sd	a0,-56(s0)
   18c38:	fe843503          	ld	a0,-24(s0)
   18c3c:	fd043583          	ld	a1,-48(s0)
   18c40:	00b54533          	xor	a0,a0,a1
   18c44:	40b50533          	sub	a0,a0,a1
   18c48:	fea43423          	sd	a0,-24(s0)
   18c4c:	fe043503          	ld	a0,-32(s0)
   18c50:	fc843583          	ld	a1,-56(s0)
   18c54:	00b54533          	xor	a0,a0,a1
   18c58:	40b50533          	sub	a0,a0,a1
   18c5c:	fea43023          	sd	a0,-32(s0)
   18c60:	fc843583          	ld	a1,-56(s0)
   18c64:	fd043503          	ld	a0,-48(s0)
   18c68:	00b54533          	xor	a0,a0,a1
   18c6c:	fca43823          	sd	a0,-48(s0)
   18c70:	fe843503          	ld	a0,-24(s0)
   18c74:	fe043583          	ld	a1,-32(s0)
   18c78:	00000613          	li	a2,0
   18c7c:	ff8fc0ef          	jal	ra,15474 <__udivmoddi4>
   18c80:	fd043583          	ld	a1,-48(s0)
   18c84:	00b54533          	xor	a0,a0,a1
   18c88:	40b50533          	sub	a0,a0,a1
   18c8c:	03813083          	ld	ra,56(sp)
   18c90:	03013403          	ld	s0,48(sp)
   18c94:	04010113          	addi	sp,sp,64
   18c98:	00008067          	ret

0000000000018c9c <__fixtfsi>:
   18c9c:	fe010113          	addi	sp,sp,-32
   18ca0:	00113c23          	sd	ra,24(sp)
   18ca4:	00813823          	sd	s0,16(sp)
   18ca8:	02010413          	addi	s0,sp,32
   18cac:	feb43423          	sd	a1,-24(s0)
   18cb0:	fea43023          	sd	a0,-32(s0)
   18cb4:	fe843583          	ld	a1,-24(s0)
   18cb8:	fe043503          	ld	a0,-32(s0)
   18cbc:	014000ef          	jal	ra,18cd0 <__fixint>
   18cc0:	01813083          	ld	ra,24(sp)
   18cc4:	01013403          	ld	s0,16(sp)
   18cc8:	02010113          	addi	sp,sp,32
   18ccc:	00008067          	ret

0000000000018cd0 <__fixint>:
   18cd0:	f5010113          	addi	sp,sp,-176
   18cd4:	0a113423          	sd	ra,168(sp)
   18cd8:	0a813023          	sd	s0,160(sp)
   18cdc:	0b010413          	addi	s0,sp,176
   18ce0:	fcb43c23          	sd	a1,-40(s0)
   18ce4:	fca43823          	sd	a0,-48(s0)
   18ce8:	80000537          	lui	a0,0x80000
   18cec:	fff5059b          	addiw	a1,a0,-1 # 7fffffff <__global_pointer$+0x7ffe5137>
   18cf0:	fcb42623          	sw	a1,-52(s0)
   18cf4:	fca42423          	sw	a0,-56(s0)
   18cf8:	fd843583          	ld	a1,-40(s0)
   18cfc:	fd043503          	ld	a0,-48(s0)
   18d00:	188000ef          	jal	ra,18e88 <toRep>
   18d04:	fab43c23          	sd	a1,-72(s0)
   18d08:	faa43823          	sd	a0,-80(s0)
   18d0c:	fb043583          	ld	a1,-80(s0)
   18d10:	fb843503          	ld	a0,-72(s0)
   18d14:	00151513          	slli	a0,a0,0x1
   18d18:	00155513          	srli	a0,a0,0x1
   18d1c:	fab43023          	sd	a1,-96(s0)
   18d20:	faa43423          	sd	a0,-88(s0)
   18d24:	fb843503          	ld	a0,-72(s0)
   18d28:	43f55513          	srai	a0,a0,0x3f
   18d2c:	00156513          	ori	a0,a0,1
   18d30:	f8a42e23          	sw	a0,-100(s0)
   18d34:	fae45503          	lhu	a0,-82(s0)
   18d38:	ffffc5b7          	lui	a1,0xffffc
   18d3c:	0015859b          	addiw	a1,a1,1 # ffffffffffffc001 <__global_pointer$+0xfffffffffffe1139>
   18d40:	00b5053b          	addw	a0,a0,a1
   18d44:	f8a42c23          	sw	a0,-104(s0)
   18d48:	fa043583          	ld	a1,-96(s0)
   18d4c:	fa843503          	ld	a0,-88(s0)
   18d50:	01051513          	slli	a0,a0,0x10
   18d54:	01055513          	srli	a0,a0,0x10
   18d58:	00100613          	li	a2,1
   18d5c:	03061613          	slli	a2,a2,0x30
   18d60:	00c56533          	or	a0,a0,a2
   18d64:	f8b43023          	sd	a1,-128(s0)
   18d68:	f8a43423          	sd	a0,-120(s0)
   18d6c:	f9842503          	lw	a0,-104(s0)
   18d70:	00055a63          	bgez	a0,18d84 <.LBB1_2>
   18d74:	0040006f          	j	18d78 <.LBB1_1>

0000000000018d78 <.LBB1_1>:
   18d78:	00000513          	li	a0,0
   18d7c:	fea42623          	sw	a0,-20(s0)
   18d80:	0f40006f          	j	18e74 <.LBB1_9>

0000000000018d84 <.LBB1_2>:
   18d84:	f9842503          	lw	a0,-104(s0)
   18d88:	02000593          	li	a1,32
   18d8c:	02b56263          	bltu	a0,a1,18db0 <.LBB1_4>
   18d90:	0040006f          	j	18d94 <.LBB1_3>

0000000000018d94 <.LBB1_3>:
   18d94:	f9c42503          	lw	a0,-100(s0)
   18d98:	fff50513          	addi	a0,a0,-1
   18d9c:	00153593          	seqz	a1,a0
   18da0:	80000537          	lui	a0,0x80000
   18da4:	40b5053b          	subw	a0,a0,a1
   18da8:	fea42623          	sw	a0,-20(s0)
   18dac:	0c80006f          	j	18e74 <.LBB1_9>

0000000000018db0 <.LBB1_4>:
   18db0:	f9842583          	lw	a1,-104(s0)
   18db4:	06f00513          	li	a0,111
   18db8:	08b54e63          	blt	a0,a1,18e54 <.LBB1_8>
   18dbc:	0040006f          	j	18dc0 <.LBB1_5>

0000000000018dc0 <.LBB1_5>:
   18dc0:	f9c42503          	lw	a0,-100(s0)
   18dc4:	f4a43823          	sd	a0,-176(s0)
   18dc8:	f8843603          	ld	a2,-120(s0)
   18dcc:	f4c43c23          	sd	a2,-168(s0)
   18dd0:	f8043583          	ld	a1,-128(s0)
   18dd4:	f9842683          	lw	a3,-104(s0)
   18dd8:	07000513          	li	a0,112
   18ddc:	40d5053b          	subw	a0,a0,a3
   18de0:	f6a43023          	sd	a0,-160(s0)
   18de4:	00a5d5b3          	srl	a1,a1,a0
   18de8:	02051513          	slli	a0,a0,0x20
   18dec:	02055513          	srli	a0,a0,0x20
   18df0:	fff54713          	not	a4,a0
   18df4:	00161693          	slli	a3,a2,0x1
   18df8:	00e696b3          	sll	a3,a3,a4
   18dfc:	00d5e5b3          	or	a1,a1,a3
   18e00:	00a65633          	srl	a2,a2,a0
   18e04:	f6c43423          	sd	a2,-152(s0)
   18e08:	fc050513          	addi	a0,a0,-64 # ffffffff7fffffc0 <__global_pointer$+0xffffffff7ffe50f8>
   18e0c:	f6a43823          	sd	a0,-144(s0)
   18e10:	f6b43c23          	sd	a1,-136(s0)
   18e14:	00054663          	bltz	a0,18e20 <.LBB1_7>
   18e18:	f6843503          	ld	a0,-152(s0)
   18e1c:	f6a43c23          	sd	a0,-136(s0)

0000000000018e20 <.LBB1_7>:
   18e20:	f5043503          	ld	a0,-176(s0)
   18e24:	f7043583          	ld	a1,-144(s0)
   18e28:	f5843683          	ld	a3,-168(s0)
   18e2c:	f6043703          	ld	a4,-160(s0)
   18e30:	f7843603          	ld	a2,-136(s0)
   18e34:	00e6d6b3          	srl	a3,a3,a4
   18e38:	0005a713          	slti	a4,a1,0
   18e3c:	00000593          	li	a1,0
   18e40:	40e585b3          	sub	a1,a1,a4
   18e44:	00d5f6b3          	and	a3,a1,a3
   18e48:	080000ef          	jal	ra,18ec8 <__multi3>
   18e4c:	fea42623          	sw	a0,-20(s0)
   18e50:	0240006f          	j	18e74 <.LBB1_9>

0000000000018e54 <.LBB1_8>:
   18e54:	f9c42503          	lw	a0,-100(s0)
   18e58:	f8042583          	lw	a1,-128(s0)
   18e5c:	f9842603          	lw	a2,-104(s0)
   18e60:	f906061b          	addiw	a2,a2,-112 # 3ffef90 <__global_pointer$+0x3fe40c8>
   18e64:	00c595bb          	sllw	a1,a1,a2
   18e68:	a6df90ef          	jal	ra,128d4 <__muldi3>
   18e6c:	fea42623          	sw	a0,-20(s0)
   18e70:	0040006f          	j	18e74 <.LBB1_9>

0000000000018e74 <.LBB1_9>:
   18e74:	fec42503          	lw	a0,-20(s0)
   18e78:	0a813083          	ld	ra,168(sp)
   18e7c:	0a013403          	ld	s0,160(sp)
   18e80:	0b010113          	addi	sp,sp,176
   18e84:	00008067          	ret

0000000000018e88 <toRep>:
   18e88:	fd010113          	addi	sp,sp,-48
   18e8c:	02113423          	sd	ra,40(sp)
   18e90:	02813023          	sd	s0,32(sp)
   18e94:	03010413          	addi	s0,sp,48
   18e98:	feb43423          	sd	a1,-24(s0)
   18e9c:	fea43023          	sd	a0,-32(s0)
   18ea0:	fe043503          	ld	a0,-32(s0)
   18ea4:	fe843583          	ld	a1,-24(s0)
   18ea8:	fcb43c23          	sd	a1,-40(s0)
   18eac:	fca43823          	sd	a0,-48(s0)
   18eb0:	fd043503          	ld	a0,-48(s0)
   18eb4:	fd843583          	ld	a1,-40(s0)
   18eb8:	02813083          	ld	ra,40(sp)
   18ebc:	02013403          	ld	s0,32(sp)
   18ec0:	03010113          	addi	sp,sp,48
   18ec4:	00008067          	ret

0000000000018ec8 <__multi3>:
   18ec8:	f9010113          	addi	sp,sp,-112
   18ecc:	06113423          	sd	ra,104(sp)
   18ed0:	06813023          	sd	s0,96(sp)
   18ed4:	07010413          	addi	s0,sp,112
   18ed8:	feb43423          	sd	a1,-24(s0)
   18edc:	fea43023          	sd	a0,-32(s0)
   18ee0:	fcd43c23          	sd	a3,-40(s0)
   18ee4:	fcc43823          	sd	a2,-48(s0)
   18ee8:	fe043503          	ld	a0,-32(s0)
   18eec:	fe843583          	ld	a1,-24(s0)
   18ef0:	fcb43423          	sd	a1,-56(s0)
   18ef4:	fca43023          	sd	a0,-64(s0)
   18ef8:	fd043503          	ld	a0,-48(s0)
   18efc:	fd843583          	ld	a1,-40(s0)
   18f00:	fab43c23          	sd	a1,-72(s0)
   18f04:	faa43823          	sd	a0,-80(s0)
   18f08:	fc043503          	ld	a0,-64(s0)
   18f0c:	fb043583          	ld	a1,-80(s0)
   18f10:	058000ef          	jal	ra,18f68 <__mulddi3>
   18f14:	fab43423          	sd	a1,-88(s0)
   18f18:	faa43023          	sd	a0,-96(s0)
   18f1c:	fc843503          	ld	a0,-56(s0)
   18f20:	fb043583          	ld	a1,-80(s0)
   18f24:	9b1f90ef          	jal	ra,128d4 <__muldi3>
   18f28:	f8a43c23          	sd	a0,-104(s0)
   18f2c:	fc043503          	ld	a0,-64(s0)
   18f30:	fb843583          	ld	a1,-72(s0)
   18f34:	9a1f90ef          	jal	ra,128d4 <__muldi3>
   18f38:	00050593          	mv	a1,a0
   18f3c:	f9843503          	ld	a0,-104(s0)
   18f40:	00b505b3          	add	a1,a0,a1
   18f44:	fa843503          	ld	a0,-88(s0)
   18f48:	00b50533          	add	a0,a0,a1
   18f4c:	faa43423          	sd	a0,-88(s0)
   18f50:	fa043503          	ld	a0,-96(s0)
   18f54:	fa843583          	ld	a1,-88(s0)
   18f58:	06813083          	ld	ra,104(sp)
   18f5c:	06013403          	ld	s0,96(sp)
   18f60:	07010113          	addi	sp,sp,112
   18f64:	00008067          	ret

0000000000018f68 <__mulddi3>:
   18f68:	fb010113          	addi	sp,sp,-80
   18f6c:	04113423          	sd	ra,72(sp)
   18f70:	04813023          	sd	s0,64(sp)
   18f74:	05010413          	addi	s0,sp,80
   18f78:	fea43423          	sd	a0,-24(s0)
   18f7c:	feb43023          	sd	a1,-32(s0)
   18f80:	02000513          	li	a0,32
   18f84:	fca42623          	sw	a0,-52(s0)
   18f88:	fff00513          	li	a0,-1
   18f8c:	02055513          	srli	a0,a0,0x20
   18f90:	fca43023          	sd	a0,-64(s0)
   18f94:	fe846503          	lwu	a0,-24(s0)
   18f98:	fe046583          	lwu	a1,-32(s0)
   18f9c:	939f90ef          	jal	ra,128d4 <__muldi3>
   18fa0:	fca43823          	sd	a0,-48(s0)
   18fa4:	fd446503          	lwu	a0,-44(s0)
   18fa8:	faa43c23          	sd	a0,-72(s0)
   18fac:	fd046503          	lwu	a0,-48(s0)
   18fb0:	fca43823          	sd	a0,-48(s0)
   18fb4:	fec46503          	lwu	a0,-20(s0)
   18fb8:	fe046583          	lwu	a1,-32(s0)
   18fbc:	919f90ef          	jal	ra,128d4 <__muldi3>
   18fc0:	00050593          	mv	a1,a0
   18fc4:	fb843503          	ld	a0,-72(s0)
   18fc8:	00b50533          	add	a0,a0,a1
   18fcc:	faa43c23          	sd	a0,-72(s0)
   18fd0:	fb843503          	ld	a0,-72(s0)
   18fd4:	02051593          	slli	a1,a0,0x20
   18fd8:	fd043503          	ld	a0,-48(s0)
   18fdc:	00b50533          	add	a0,a0,a1
   18fe0:	fca43823          	sd	a0,-48(s0)
   18fe4:	fbc46503          	lwu	a0,-68(s0)
   18fe8:	fca43c23          	sd	a0,-40(s0)
   18fec:	fd446503          	lwu	a0,-44(s0)
   18ff0:	faa43c23          	sd	a0,-72(s0)
   18ff4:	fd046503          	lwu	a0,-48(s0)
   18ff8:	fca43823          	sd	a0,-48(s0)
   18ffc:	fe446503          	lwu	a0,-28(s0)
   19000:	fe846583          	lwu	a1,-24(s0)
   19004:	8d1f90ef          	jal	ra,128d4 <__muldi3>
   19008:	00050593          	mv	a1,a0
   1900c:	fb843503          	ld	a0,-72(s0)
   19010:	00b50533          	add	a0,a0,a1
   19014:	faa43c23          	sd	a0,-72(s0)
   19018:	fb843503          	ld	a0,-72(s0)
   1901c:	02051593          	slli	a1,a0,0x20
   19020:	fd043503          	ld	a0,-48(s0)
   19024:	00b50533          	add	a0,a0,a1
   19028:	fca43823          	sd	a0,-48(s0)
   1902c:	fbc46583          	lwu	a1,-68(s0)
   19030:	fd843503          	ld	a0,-40(s0)
   19034:	00b50533          	add	a0,a0,a1
   19038:	fca43c23          	sd	a0,-40(s0)
   1903c:	fec46503          	lwu	a0,-20(s0)
   19040:	fe446583          	lwu	a1,-28(s0)
   19044:	891f90ef          	jal	ra,128d4 <__muldi3>
   19048:	00050593          	mv	a1,a0
   1904c:	fd843503          	ld	a0,-40(s0)
   19050:	00b50533          	add	a0,a0,a1
   19054:	fca43c23          	sd	a0,-40(s0)
   19058:	fd043503          	ld	a0,-48(s0)
   1905c:	fd843583          	ld	a1,-40(s0)
   19060:	04813083          	ld	ra,72(sp)
   19064:	04013403          	ld	s0,64(sp)
   19068:	05010113          	addi	sp,sp,80
   1906c:	00008067          	ret

0000000000019070 <__floatsitf>:
   19070:	f8010113          	addi	sp,sp,-128
   19074:	06113c23          	sd	ra,120(sp)
   19078:	06813823          	sd	s0,112(sp)
   1907c:	08010413          	addi	s0,sp,128
   19080:	fca42e23          	sw	a0,-36(s0)
   19084:	02000513          	li	a0,32
   19088:	fca42c23          	sw	a0,-40(s0)
   1908c:	fdc42503          	lw	a0,-36(s0)
   19090:	02051063          	bnez	a0,190b0 <.LBB0_2>
   19094:	0040006f          	j	19098 <.LBB0_1>

0000000000019098 <.LBB0_1>:
   19098:	00000593          	li	a1,0
   1909c:	00058513          	mv	a0,a1
   190a0:	1b8000ef          	jal	ra,19258 <fromRep>
   190a4:	feb43423          	sd	a1,-24(s0)
   190a8:	fea43023          	sd	a0,-32(s0)
   190ac:	1940006f          	j	19240 <.LBB0_7>

00000000000190b0 <.LBB0_2>:
   190b0:	00000513          	li	a0,0
   190b4:	fca43423          	sd	a0,-56(s0)
   190b8:	fca43023          	sd	a0,-64(s0)
   190bc:	fdc42503          	lw	a0,-36(s0)
   190c0:	faa42e23          	sw	a0,-68(s0)
   190c4:	fdc42503          	lw	a0,-36(s0)
   190c8:	02055663          	bgez	a0,190f4 <.LBB0_4>
   190cc:	0040006f          	j	190d0 <.LBB0_3>

00000000000190d0 <.LBB0_3>:
   190d0:	00000513          	li	a0,0
   190d4:	fca43023          	sd	a0,-64(s0)
   190d8:	fff00593          	li	a1,-1
   190dc:	03f59593          	slli	a1,a1,0x3f
   190e0:	fcb43423          	sd	a1,-56(s0)
   190e4:	fdc42583          	lw	a1,-36(s0)
   190e8:	40b5053b          	subw	a0,a0,a1
   190ec:	faa42e23          	sw	a0,-68(s0)
   190f0:	0040006f          	j	190f4 <.LBB0_4>

00000000000190f4 <.LBB0_4>:
   190f4:	fbc42503          	lw	a0,-68(s0)
   190f8:	0015559b          	srliw	a1,a0,0x1
   190fc:	00b56533          	or	a0,a0,a1
   19100:	0025559b          	srliw	a1,a0,0x2
   19104:	00b56533          	or	a0,a0,a1
   19108:	0045559b          	srliw	a1,a0,0x4
   1910c:	00b56533          	or	a0,a0,a1
   19110:	0085559b          	srliw	a1,a0,0x8
   19114:	00b56533          	or	a0,a0,a1
   19118:	0105559b          	srliw	a1,a0,0x10
   1911c:	00b56533          	or	a0,a0,a1
   19120:	fff54513          	not	a0,a0
   19124:	00155593          	srli	a1,a0,0x1
   19128:	55555637          	lui	a2,0x55555
   1912c:	5556061b          	addiw	a2,a2,1365 # 55555555 <__global_pointer$+0x5553a68d>
   19130:	00c5f5b3          	and	a1,a1,a2
   19134:	40b505b3          	sub	a1,a0,a1
   19138:	33333537          	lui	a0,0x33333
   1913c:	3335061b          	addiw	a2,a0,819 # 33333333 <__global_pointer$+0x3331846b>
   19140:	00c5f533          	and	a0,a1,a2
   19144:	0025d593          	srli	a1,a1,0x2
   19148:	00c5f5b3          	and	a1,a1,a2
   1914c:	00b50533          	add	a0,a0,a1
   19150:	00455593          	srli	a1,a0,0x4
   19154:	00b50533          	add	a0,a0,a1
   19158:	0f0f15b7          	lui	a1,0xf0f1
   1915c:	f0f5859b          	addiw	a1,a1,-241 # f0f0f0f <__global_pointer$+0xf0d6047>
   19160:	00b57533          	and	a0,a0,a1
   19164:	010105b7          	lui	a1,0x1010
   19168:	1015859b          	addiw	a1,a1,257 # 1010101 <__global_pointer$+0xff5239>
   1916c:	f68f90ef          	jal	ra,128d4 <__muldi3>
   19170:	0185559b          	srliw	a1,a0,0x18
   19174:	01f00513          	li	a0,31
   19178:	40b5053b          	subw	a0,a0,a1
   1917c:	faa42c23          	sw	a0,-72(s0)
   19180:	fb842583          	lw	a1,-72(s0)
   19184:	07000513          	li	a0,112
   19188:	40b5053b          	subw	a0,a0,a1
   1918c:	f8a42e23          	sw	a0,-100(s0)
   19190:	fbc46583          	lwu	a1,-68(s0)
   19194:	f9c46603          	lwu	a2,-100(s0)
   19198:	00c59733          	sll	a4,a1,a2
   1919c:	f8e43023          	sd	a4,-128(s0)
   191a0:	fc060513          	addi	a0,a2,-64
   191a4:	00052793          	slti	a5,a0,0
   191a8:	00000693          	li	a3,0
   191ac:	40f686b3          	sub	a3,a3,a5
   191b0:	00e6f6b3          	and	a3,a3,a4
   191b4:	f8d43423          	sd	a3,-120(s0)
   191b8:	fff64613          	not	a2,a2
   191bc:	0015d593          	srli	a1,a1,0x1
   191c0:	00c5d5b3          	srl	a1,a1,a2
   191c4:	f8b43823          	sd	a1,-112(s0)
   191c8:	00054663          	bltz	a0,191d4 <.LBB0_6>
   191cc:	f8043503          	ld	a0,-128(s0)
   191d0:	f8a43823          	sd	a0,-112(s0)

00000000000191d4 <.LBB0_6>:
   191d4:	f8843503          	ld	a0,-120(s0)
   191d8:	f9043583          	ld	a1,-112(s0)
   191dc:	00100613          	li	a2,1
   191e0:	03061613          	slli	a2,a2,0x30
   191e4:	00c5c5b3          	xor	a1,a1,a2
   191e8:	fab43423          	sd	a1,-88(s0)
   191ec:	faa43023          	sd	a0,-96(s0)
   191f0:	fb842503          	lw	a0,-72(s0)
   191f4:	03051513          	slli	a0,a0,0x30
   191f8:	fa843583          	ld	a1,-88(s0)
   191fc:	00b50533          	add	a0,a0,a1
   19200:	fa043583          	ld	a1,-96(s0)
   19204:	03fff637          	lui	a2,0x3fff
   19208:	02461613          	slli	a2,a2,0x24
   1920c:	00c50533          	add	a0,a0,a2
   19210:	fab43023          	sd	a1,-96(s0)
   19214:	faa43423          	sd	a0,-88(s0)
   19218:	fa843583          	ld	a1,-88(s0)
   1921c:	fa043503          	ld	a0,-96(s0)
   19220:	fc843603          	ld	a2,-56(s0)
   19224:	fc043683          	ld	a3,-64(s0)
   19228:	00d56533          	or	a0,a0,a3
   1922c:	00c5e5b3          	or	a1,a1,a2
   19230:	028000ef          	jal	ra,19258 <fromRep>
   19234:	feb43423          	sd	a1,-24(s0)
   19238:	fea43023          	sd	a0,-32(s0)
   1923c:	0040006f          	j	19240 <.LBB0_7>

0000000000019240 <.LBB0_7>:
   19240:	fe043503          	ld	a0,-32(s0)
   19244:	fe843583          	ld	a1,-24(s0)
   19248:	07813083          	ld	ra,120(sp)
   1924c:	07013403          	ld	s0,112(sp)
   19250:	08010113          	addi	sp,sp,128
   19254:	00008067          	ret

0000000000019258 <fromRep>:
   19258:	fd010113          	addi	sp,sp,-48
   1925c:	02113423          	sd	ra,40(sp)
   19260:	02813023          	sd	s0,32(sp)
   19264:	03010413          	addi	s0,sp,48
   19268:	feb43423          	sd	a1,-24(s0)
   1926c:	fea43023          	sd	a0,-32(s0)
   19270:	fe043503          	ld	a0,-32(s0)
   19274:	fe843583          	ld	a1,-24(s0)
   19278:	fcb43c23          	sd	a1,-40(s0)
   1927c:	fca43823          	sd	a0,-48(s0)
   19280:	fd043503          	ld	a0,-48(s0)
   19284:	fd843583          	ld	a1,-40(s0)
   19288:	02813083          	ld	ra,40(sp)
   1928c:	02013403          	ld	s0,32(sp)
   19290:	03010113          	addi	sp,sp,48
   19294:	00008067          	ret

0000000000019298 <__extenddftf2>:
   19298:	fe010113          	addi	sp,sp,-32
   1929c:	00113c23          	sd	ra,24(sp)
   192a0:	00813823          	sd	s0,16(sp)
   192a4:	02010413          	addi	s0,sp,32
   192a8:	fea43423          	sd	a0,-24(s0)
   192ac:	fe843503          	ld	a0,-24(s0)
   192b0:	014000ef          	jal	ra,192c4 <__extendXfYf2__>
   192b4:	01813083          	ld	ra,24(sp)
   192b8:	01013403          	ld	s0,16(sp)
   192bc:	02010113          	addi	sp,sp,32
   192c0:	00008067          	ret

00000000000192c4 <__extendXfYf2__>:
   192c4:	ef010113          	addi	sp,sp,-272
   192c8:	10113423          	sd	ra,264(sp)
   192cc:	10813023          	sd	s0,256(sp)
   192d0:	11010413          	addi	s0,sp,272
   192d4:	fea43423          	sd	a0,-24(s0)
   192d8:	04000513          	li	a0,64
   192dc:	fea42223          	sw	a0,-28(s0)
   192e0:	00b00513          	li	a0,11
   192e4:	fea42023          	sw	a0,-32(s0)
   192e8:	7ff00593          	li	a1,2047
   192ec:	fcb42e23          	sw	a1,-36(s0)
   192f0:	3ff00513          	li	a0,1023
   192f4:	fca42c23          	sw	a0,-40(s0)
   192f8:	00100513          	li	a0,1
   192fc:	03451613          	slli	a2,a0,0x34
   19300:	fcc43823          	sd	a2,-48(s0)
   19304:	03459593          	slli	a1,a1,0x34
   19308:	fcb43423          	sd	a1,-56(s0)
   1930c:	fff00593          	li	a1,-1
   19310:	f2b43423          	sd	a1,-216(s0)
   19314:	03f59613          	slli	a2,a1,0x3f
   19318:	f2c43023          	sd	a2,-224(s0)
   1931c:	fcc43023          	sd	a2,-64(s0)
   19320:	0015d613          	srli	a2,a1,0x1
   19324:	f0c43c23          	sd	a2,-232(s0)
   19328:	fac43c23          	sd	a2,-72(s0)
   1932c:	03351613          	slli	a2,a0,0x33
   19330:	fac43823          	sd	a2,-80(s0)
   19334:	00d5d593          	srli	a1,a1,0xd
   19338:	fab43423          	sd	a1,-88(s0)
   1933c:	08000593          	li	a1,128
   19340:	fab42223          	sw	a1,-92(s0)
   19344:	00f00593          	li	a1,15
   19348:	fab42023          	sw	a1,-96(s0)
   1934c:	000085b7          	lui	a1,0x8
   19350:	fff5859b          	addiw	a1,a1,-1 # 7fff <.Lline_table_start0+0x7fff>
   19354:	f8b42e23          	sw	a1,-100(s0)
   19358:	000045b7          	lui	a1,0x4
   1935c:	fff5859b          	addiw	a1,a1,-1 # 3fff <.Lline_table_start0+0x3fff>
   19360:	f8b42c23          	sw	a1,-104(s0)
   19364:	03051513          	slli	a0,a0,0x30
   19368:	f8a43423          	sd	a0,-120(s0)
   1936c:	00000513          	li	a0,0
   19370:	f8a43023          	sd	a0,-128(s0)
   19374:	fe843503          	ld	a0,-24(s0)
   19378:	220000ef          	jal	ra,19598 <srcToRep>
   1937c:	f1843683          	ld	a3,-232(s0)
   19380:	f2043603          	ld	a2,-224(s0)
   19384:	f2843583          	ld	a1,-216(s0)
   19388:	f6a43c23          	sd	a0,-136(s0)
   1938c:	f7843503          	ld	a0,-136(s0)
   19390:	00d57533          	and	a0,a0,a3
   19394:	f6a43823          	sd	a0,-144(s0)
   19398:	f7843503          	ld	a0,-136(s0)
   1939c:	00c57533          	and	a0,a0,a2
   193a0:	f6a43423          	sd	a0,-152(s0)
   193a4:	f7043503          	ld	a0,-144(s0)
   193a8:	03459593          	slli	a1,a1,0x34
   193ac:	00b50533          	add	a0,a0,a1
   193b0:	03555593          	srli	a1,a0,0x35
   193b4:	3fe00513          	li	a0,1022
   193b8:	02b56a63          	bltu	a0,a1,193ec <.LBB1_2>
   193bc:	0040006f          	j	193c0 <.LBB1_1>

00000000000193c0 <.LBB1_1>:
   193c0:	f7043583          	ld	a1,-144(s0)
   193c4:	03c59513          	slli	a0,a1,0x3c
   193c8:	0045d593          	srli	a1,a1,0x4
   193cc:	f4b43c23          	sd	a1,-168(s0)
   193d0:	f4a43823          	sd	a0,-176(s0)
   193d4:	f5843503          	ld	a0,-168(s0)
   193d8:	00f00593          	li	a1,15
   193dc:	03a59593          	slli	a1,a1,0x3a
   193e0:	00b50533          	add	a0,a0,a1
   193e4:	f4a43c23          	sd	a0,-168(s0)
   193e8:	17c0006f          	j	19564 <.LBB1_11>

00000000000193ec <.LBB1_2>:
   193ec:	f7043503          	ld	a0,-144(s0)
   193f0:	03455513          	srli	a0,a0,0x34
   193f4:	7ff00593          	li	a1,2047
   193f8:	06b56863          	bltu	a0,a1,19468 <.LBB1_4>
   193fc:	0040006f          	j	19400 <.LBB1_3>

0000000000019400 <.LBB1_3>:
   19400:	00000513          	li	a0,0
   19404:	f4a43823          	sd	a0,-176(s0)
   19408:	07fff537          	lui	a0,0x7fff
   1940c:	02451513          	slli	a0,a0,0x24
   19410:	f4a43c23          	sd	a0,-168(s0)
   19414:	f7043503          	ld	a0,-144(s0)
   19418:	00100593          	li	a1,1
   1941c:	03359593          	slli	a1,a1,0x33
   19420:	00b57533          	and	a0,a0,a1
   19424:	00455613          	srli	a2,a0,0x4
   19428:	f5043583          	ld	a1,-176(s0)
   1942c:	f5843503          	ld	a0,-168(s0)
   19430:	00c56533          	or	a0,a0,a2
   19434:	f4b43823          	sd	a1,-176(s0)
   19438:	f4a43c23          	sd	a0,-168(s0)
   1943c:	f7043503          	ld	a0,-144(s0)
   19440:	03c51613          	slli	a2,a0,0x3c
   19444:	00d51513          	slli	a0,a0,0xd
   19448:	01155693          	srli	a3,a0,0x11
   1944c:	f5043583          	ld	a1,-176(s0)
   19450:	f5843503          	ld	a0,-168(s0)
   19454:	00d56533          	or	a0,a0,a3
   19458:	00c5e5b3          	or	a1,a1,a2
   1945c:	f4b43823          	sd	a1,-176(s0)
   19460:	f4a43c23          	sd	a0,-168(s0)
   19464:	0fc0006f          	j	19560 <.LBB1_10>

0000000000019468 <.LBB1_4>:
   19468:	f7043503          	ld	a0,-144(s0)
   1946c:	0e050063          	beqz	a0,1954c <.LBB1_8>
   19470:	0040006f          	j	19474 <.LBB1_5>

0000000000019474 <.LBB1_5>:
   19474:	f7043503          	ld	a0,-144(s0)
   19478:	150000ef          	jal	ra,195c8 <src_rep_t_clz>
   1947c:	eea43c23          	sd	a0,-264(s0)
   19480:	00100513          	li	a0,1
   19484:	eea43823          	sd	a0,-272(s0)
   19488:	03451513          	slli	a0,a0,0x34
   1948c:	13c000ef          	jal	ra,195c8 <src_rep_t_clz>
   19490:	00050593          	mv	a1,a0
   19494:	ef843503          	ld	a0,-264(s0)
   19498:	40b5053b          	subw	a0,a0,a1
   1949c:	f4a42623          	sw	a0,-180(s0)
   194a0:	f7043583          	ld	a1,-144(s0)
   194a4:	f4c42503          	lw	a0,-180(s0)
   194a8:	03c5051b          	addiw	a0,a0,60 # 7fff03c <__global_pointer$+0x7fe4174>
   194ac:	00a59733          	sll	a4,a1,a0
   194b0:	02051513          	slli	a0,a0,0x20
   194b4:	02055613          	srli	a2,a0,0x20
   194b8:	fc060513          	addi	a0,a2,-64 # 3ffefc0 <__global_pointer$+0x3fe40f8>
   194bc:	00052793          	slti	a5,a0,0
   194c0:	00000693          	li	a3,0
   194c4:	40f686b3          	sub	a3,a3,a5
   194c8:	00e6f6b3          	and	a3,a3,a4
   194cc:	f0d43023          	sd	a3,-256(s0)
   194d0:	00c596b3          	sll	a3,a1,a2
   194d4:	f0d43423          	sd	a3,-248(s0)
   194d8:	0015d593          	srli	a1,a1,0x1
   194dc:	fff64613          	not	a2,a2
   194e0:	00c5d5b3          	srl	a1,a1,a2
   194e4:	f0b43823          	sd	a1,-240(s0)
   194e8:	00054663          	bltz	a0,194f4 <.LBB1_7>
   194ec:	f0843503          	ld	a0,-248(s0)
   194f0:	f0a43823          	sd	a0,-240(s0)

00000000000194f4 <.LBB1_7>:
   194f4:	ef043583          	ld	a1,-272(s0)
   194f8:	f0043503          	ld	a0,-256(s0)
   194fc:	f1043603          	ld	a2,-240(s0)
   19500:	f4c43c23          	sd	a2,-168(s0)
   19504:	f4a43823          	sd	a0,-176(s0)
   19508:	f5843503          	ld	a0,-168(s0)
   1950c:	03059593          	slli	a1,a1,0x30
   19510:	00b54533          	xor	a0,a0,a1
   19514:	f4a43c23          	sd	a0,-168(s0)
   19518:	f4c42583          	lw	a1,-180(s0)
   1951c:	00004537          	lui	a0,0x4
   19520:	c015051b          	addiw	a0,a0,-1023 # 3c01 <.Lline_table_start0+0x3c01>
   19524:	40b5053b          	subw	a0,a0,a1
   19528:	f4a42423          	sw	a0,-184(s0)
   1952c:	f4842503          	lw	a0,-184(s0)
   19530:	03051613          	slli	a2,a0,0x30
   19534:	f5043583          	ld	a1,-176(s0)
   19538:	f5843503          	ld	a0,-168(s0)
   1953c:	00c56533          	or	a0,a0,a2
   19540:	f4b43823          	sd	a1,-176(s0)
   19544:	f4a43c23          	sd	a0,-168(s0)
   19548:	0140006f          	j	1955c <.LBB1_9>

000000000001954c <.LBB1_8>:
   1954c:	00000513          	li	a0,0
   19550:	f4a43c23          	sd	a0,-168(s0)
   19554:	f4a43823          	sd	a0,-176(s0)
   19558:	0040006f          	j	1955c <.LBB1_9>

000000000001955c <.LBB1_9>:
   1955c:	0040006f          	j	19560 <.LBB1_10>

0000000000019560 <.LBB1_10>:
   19560:	0040006f          	j	19564 <.LBB1_11>

0000000000019564 <.LBB1_11>:
   19564:	f5043583          	ld	a1,-176(s0)
   19568:	f5843503          	ld	a0,-168(s0)
   1956c:	f6843603          	ld	a2,-152(s0)
   19570:	00c56533          	or	a0,a0,a2
   19574:	f2b43823          	sd	a1,-208(s0)
   19578:	f2a43c23          	sd	a0,-200(s0)
   1957c:	f3843583          	ld	a1,-200(s0)
   19580:	f3043503          	ld	a0,-208(s0)
   19584:	100000ef          	jal	ra,19684 <dstFromRep>
   19588:	10813083          	ld	ra,264(sp)
   1958c:	10013403          	ld	s0,256(sp)
   19590:	11010113          	addi	sp,sp,272
   19594:	00008067          	ret

0000000000019598 <srcToRep>:
   19598:	fe010113          	addi	sp,sp,-32
   1959c:	00113c23          	sd	ra,24(sp)
   195a0:	00813823          	sd	s0,16(sp)
   195a4:	02010413          	addi	s0,sp,32
   195a8:	fea43423          	sd	a0,-24(s0)
   195ac:	fe843503          	ld	a0,-24(s0)
   195b0:	fea43023          	sd	a0,-32(s0)
   195b4:	fe043503          	ld	a0,-32(s0)
   195b8:	01813083          	ld	ra,24(sp)
   195bc:	01013403          	ld	s0,16(sp)
   195c0:	02010113          	addi	sp,sp,32
   195c4:	00008067          	ret

00000000000195c8 <src_rep_t_clz>:
   195c8:	fe010113          	addi	sp,sp,-32
   195cc:	00113c23          	sd	ra,24(sp)
   195d0:	00813823          	sd	s0,16(sp)
   195d4:	02010413          	addi	s0,sp,32
   195d8:	fea43423          	sd	a0,-24(s0)
   195dc:	fe843503          	ld	a0,-24(s0)
   195e0:	00155593          	srli	a1,a0,0x1
   195e4:	00b56533          	or	a0,a0,a1
   195e8:	00255593          	srli	a1,a0,0x2
   195ec:	00b56533          	or	a0,a0,a1
   195f0:	00455593          	srli	a1,a0,0x4
   195f4:	00b56533          	or	a0,a0,a1
   195f8:	00855593          	srli	a1,a0,0x8
   195fc:	00b56533          	or	a0,a0,a1
   19600:	01055593          	srli	a1,a0,0x10
   19604:	00b56533          	or	a0,a0,a1
   19608:	02055593          	srli	a1,a0,0x20
   1960c:	00b56533          	or	a0,a0,a1
   19610:	fff54513          	not	a0,a0
   19614:	00155593          	srli	a1,a0,0x1

0000000000019618 <.Lpcrel_hi0>:
   19618:	ffff7617          	auipc	a2,0xffff7
   1961c:	6a860613          	addi	a2,a2,1704 # 10cc0 <errmsg+0x738>
   19620:	00063603          	ld	a2,0(a2)
   19624:	00c5f5b3          	and	a1,a1,a2
   19628:	40b505b3          	sub	a1,a0,a1

000000000001962c <.Lpcrel_hi1>:
   1962c:	ffff7517          	auipc	a0,0xffff7
   19630:	67c50513          	addi	a0,a0,1660 # 10ca8 <errmsg+0x720>
   19634:	00053603          	ld	a2,0(a0)
   19638:	00c5f533          	and	a0,a1,a2
   1963c:	0025d593          	srli	a1,a1,0x2
   19640:	00c5f5b3          	and	a1,a1,a2
   19644:	00b50533          	add	a0,a0,a1
   19648:	00455593          	srli	a1,a0,0x4
   1964c:	00b50533          	add	a0,a0,a1

0000000000019650 <.Lpcrel_hi2>:
   19650:	ffff7597          	auipc	a1,0xffff7
   19654:	66058593          	addi	a1,a1,1632 # 10cb0 <errmsg+0x728>
   19658:	0005b583          	ld	a1,0(a1)
   1965c:	00b57533          	and	a0,a0,a1

0000000000019660 <.Lpcrel_hi3>:
   19660:	ffff7597          	auipc	a1,0xffff7
   19664:	65858593          	addi	a1,a1,1624 # 10cb8 <errmsg+0x730>
   19668:	0005b583          	ld	a1,0(a1)
   1966c:	a68f90ef          	jal	ra,128d4 <__muldi3>
   19670:	03855513          	srli	a0,a0,0x38
   19674:	01813083          	ld	ra,24(sp)
   19678:	01013403          	ld	s0,16(sp)
   1967c:	02010113          	addi	sp,sp,32
   19680:	00008067          	ret

0000000000019684 <dstFromRep>:
   19684:	fd010113          	addi	sp,sp,-48
   19688:	02113423          	sd	ra,40(sp)
   1968c:	02813023          	sd	s0,32(sp)
   19690:	03010413          	addi	s0,sp,48
   19694:	feb43423          	sd	a1,-24(s0)
   19698:	fea43023          	sd	a0,-32(s0)
   1969c:	fe043503          	ld	a0,-32(s0)
   196a0:	fe843583          	ld	a1,-24(s0)
   196a4:	fcb43c23          	sd	a1,-40(s0)
   196a8:	fca43823          	sd	a0,-48(s0)
   196ac:	fd043503          	ld	a0,-48(s0)
   196b0:	fd843583          	ld	a1,-40(s0)
   196b4:	02813083          	ld	ra,40(sp)
   196b8:	02013403          	ld	s0,32(sp)
   196bc:	03010113          	addi	sp,sp,48
   196c0:	00008067          	ret

Disassembly of section .sdata:

000000000001a6c8 <__default_stacksize>:
   1a6c8:	0000                	.2byte	0x0
   1a6ca:	0002                	.2byte	0x2

000000000001a6cc <__default_guardsize>:
   1a6cc:	2000                	.2byte	0x2000
	...

000000000001a6d0 <__stdout_used>:
   1a6d0:	a6f0                	.2byte	0xa6f0
   1a6d2:	0001                	.2byte	0x1
   1a6d4:	0000                	.2byte	0x0
	...

000000000001a6d8 <.LCPI0_0>:
   1a6d8:	0101                	.2byte	0x101
   1a6da:	0101                	.2byte	0x101
   1a6dc:	0101                	.2byte	0x101
   1a6de:	0101                	.2byte	0x101

000000000001a6e0 <.LCPI0_1>:
   1a6e0:	8080                	.2byte	0x8080
   1a6e2:	8080                	.2byte	0x8080
   1a6e4:	8080                	.2byte	0x8080
   1a6e6:	8080                	.2byte	0x8080

000000000001a6e8 <.LCPI0_2>:
   1a6e8:	feff                	.2byte	0xfeff
   1a6ea:	fefe                	.2byte	0xfefe
   1a6ec:	fefe                	.2byte	0xfefe
   1a6ee:	fefe                	.2byte	0xfefe

Disassembly of section .data:

000000000001a6f0 <__stdout_FILE>:
   1a6f0:	0005                	.2byte	0x5
	...
   1a706:	0000                	.2byte	0x0
   1a708:	2a34                	.2byte	0x2a34
   1a70a:	0001                	.2byte	0x1
	...
   1a738:	2a60                	.2byte	0x2a60
   1a73a:	0001                	.2byte	0x1
   1a73c:	0000                	.2byte	0x0
   1a73e:	0000                	.2byte	0x0
   1a740:	2c1c                	.2byte	0x2c1c
   1a742:	0001                	.2byte	0x1
   1a744:	0000                	.2byte	0x0
   1a746:	0000                	.2byte	0x0
   1a748:	aa30                	.2byte	0xaa30
   1a74a:	0001                	.2byte	0x1
   1a74c:	0000                	.2byte	0x0
   1a74e:	0000                	.2byte	0x0
   1a750:	0400                	.2byte	0x400
	...
   1a766:	0000                	.2byte	0x0
   1a768:	0001                	.2byte	0x1
	...
   1a77a:	0000                	.2byte	0x0
   1a77c:	ffff                	.2byte	0xffff
   1a77e:	ffff                	.2byte	0xffff
   1a780:	000a                	.2byte	0xa
	...

Disassembly of section .sbss:

000000000001a7d8 <__environ>:
	...

000000000001a7e0 <__thread_list_lock>:
	...

000000000001a7e8 <__sysinfo>:
	...

000000000001a7f0 <__progname>:
	...

000000000001a7f8 <__progname_full>:
	...

000000000001a800 <__hwcap>:
	...

000000000001a808 <__stderr_used>:
	...

000000000001a810 <ofl_lock>:
	...

000000000001a818 <ofl_head>:
	...

Disassembly of section .bss:

000000000001a820 <main_tls>:
	...

000000000001a850 <builtin_tls>:
	...

000000000001a9b8 <__libc>:
	...

000000000001aa28 <buf>:
	...

Disassembly of section .comment:

0000000000000000 <.comment>:
   0:	6e616c63          	bltu	sp,t1,6f8 <.Lline_table_start0+0x6f8>
   4:	65762067          	.4byte	0x65762067
   8:	7372                	.2byte	0x7372
   a:	6f69                	.2byte	0x6f69
   c:	206e                	.2byte	0x206e
   e:	3631                	.2byte	0x3631
  10:	302e                	.2byte	0x302e
  12:	362e                	.2byte	0x362e
  14:	0000                	.2byte	0x0
  16:	694c                	.2byte	0x694c
  18:	6b6e                	.2byte	0x6b6e
  1a:	7265                	.2byte	0x7265
  1c:	203a                	.2byte	0x203a
  1e:	4c4c                	.2byte	0x4c4c
  20:	2044                	.2byte	0x2044
  22:	3631                	.2byte	0x3631
  24:	302e                	.2byte	0x302e
  26:	362e                	.2byte	0x362e
	...

Disassembly of section .riscv.attributes:

0000000000000000 <.riscv.attributes>:
   0:	1b41                	.2byte	0x1b41
   2:	0000                	.2byte	0x0
   4:	7200                	.2byte	0x7200
   6:	7369                	.2byte	0x7369
   8:	01007663          	bgeu	zero,a6,14 <.Lline_table_start0+0x14>
   c:	0011                	.2byte	0x11
   e:	0000                	.2byte	0x0
  10:	1004                	.2byte	0x1004
  12:	7205                	.2byte	0x7205
  14:	3676                	.2byte	0x3676
  16:	6934                	.2byte	0x6934
  18:	7032                	.2byte	0x7032
  1a:	0030                	.2byte	0x30

Disassembly of section .debug_abbrev:

0000000000000000 <.debug_abbrev>:
   0:	1101                	.2byte	0x1101
   2:	2501                	.2byte	0x2501
   4:	1325                	.2byte	0x1325
   6:	0305                	.2byte	0x305
   8:	7225                	.2byte	0x7225
   a:	1b171017          	auipc	zero,0x1b171
   e:	1125                	.2byte	0x1125
  10:	7306121b          	.4byte	0x7306121b
  14:	02000017          	auipc	zero,0x2000
  18:	0034                	.2byte	0x34
  1a:	1349                	.2byte	0x1349
  1c:	0b3a                	.2byte	0xb3a
  1e:	18020b3b          	.4byte	0x18020b3b
  22:	0000                	.2byte	0x0
  24:	49010103          	lb	sp,1168(sp)
  28:	04000013          	li	zero,64
  2c:	0021                	.2byte	0x21
  2e:	1349                	.2byte	0x1349
  30:	00000b37          	lui	s6,0x0
  34:	2405                	.2byte	0x2405
  36:	0300                	.2byte	0x300
  38:	3e25                	.2byte	0x3e25
  3a:	000b0b0b          	.4byte	0xb0b0b
  3e:	0600                	.2byte	0x600
  40:	0024                	.2byte	0x24
  42:	0b0b2503          	lw	a0,176(s6) # b0 <.Lline_table_start0+0xb0>
  46:	0b3e                	.2byte	0xb3e
  48:	0000                	.2byte	0x0
  4a:	11012e07          	.4byte	0x11012e07
  4e:	4006121b          	.4byte	0x4006121b
  52:	7a18                	.2byte	0x7a18
  54:	0319                	.2byte	0x319
  56:	3a25                	.2byte	0x3a25
  58:	490b3b0b          	.4byte	0x490b3b0b
  5c:	00193f13          	seqz	t5,s2
  60:	0800                	.2byte	0x800
  62:	0034                	.2byte	0x34
  64:	1802                	.2byte	0x1802
  66:	0b3a2503          	lw	a0,179(s4)
  6a:	13490b3b          	.4byte	0x13490b3b
  6e:	0000                	.2byte	0x0
  70:	4809                	.2byte	0x4809
  72:	7f00                	.2byte	0x7f00
  74:	001b7d13          	andi	s10,s6,1
  78:	0a00                	.2byte	0xa00
  7a:	012e                	.2byte	0x12e
  7c:	0b3a2503          	lw	a0,179(s4)
  80:	19270b3b          	.4byte	0x19270b3b
  84:	1349                	.2byte	0x1349
  86:	193c                	.2byte	0x193c
  88:	0000193f 4900050b 	.8byte	0x4900050b0000193f
  90:	0c000013          	li	zero,192
  94:	1349000f          	.4byte	0x1349000f
  98:	0000                	.2byte	0x0
  9a:	130d                	.2byte	0x130d
  9c:	0301                	.2byte	0x301
  9e:	0b25                	.2byte	0xb25
  a0:	3a05                	.2byte	0x3a05
  a2:	000b3b0b          	.4byte	0xb3b0b
  a6:	0e00                	.2byte	0xe00
  a8:	000d                	.2byte	0xd
  aa:	13492503          	lw	a0,308(s2)
  ae:	0b3a                	.2byte	0xb3a
  b0:	0b380b3b          	.4byte	0xb380b3b
  b4:	0000                	.2byte	0x0
  b6:	03000d0f          	.4byte	0x3000d0f
  ba:	4925                	.2byte	0x4925
  bc:	3b0b3a13          	sltiu	s4,s6,944
  c0:	0005380b          	.4byte	0x5380b
  c4:	1000                	.2byte	0x1000
  c6:	0018                	.2byte	0x18
  c8:	0000                	.2byte	0x0
  ca:	3711                	.2byte	0x3711
  cc:	4900                	.2byte	0x4900
  ce:	12000013          	li	zero,288
  d2:	0026                	.2byte	0x26
  d4:	1349                	.2byte	0x1349
  d6:	0000                	.2byte	0x0
	...

Disassembly of section .debug_info:

0000000000000000 <.debug_info>:
   0:	0135                	.2byte	0x135
   2:	0000                	.2byte	0x0
   4:	0005                	.2byte	0x5
   6:	0801                	.2byte	0x801
   8:	0000                	.2byte	0x0
   a:	0000                	.2byte	0x0
   c:	0001                	.2byte	0x1
   e:	001d                	.2byte	0x1d
  10:	0801                	.2byte	0x801
  12:	0000                	.2byte	0x0
  14:	0000                	.2byte	0x0
  16:	0000                	.2byte	0x0
  18:	0200                	.2byte	0x200
  1a:	8006                	.2byte	0x8006
  1c:	0000                	.2byte	0x0
  1e:	0800                	.2byte	0x800
  20:	0000                	.2byte	0x0
  22:	0200                	.2byte	0x200
  24:	002d                	.2byte	0x2d
  26:	0000                	.2byte	0x0
  28:	0a00                	.2byte	0xa00
  2a:	a102                	.2byte	0xa102
  2c:	0300                	.2byte	0x300
  2e:	0039                	.2byte	0x39
  30:	0000                	.2byte	0x0
  32:	3d04                	.2byte	0x3d04
  34:	0000                	.2byte	0x0
  36:	1300                	.2byte	0x1300
  38:	0500                	.2byte	0x500
  3a:	06010803          	lb	a6,96(sp)
  3e:	0804                	.2byte	0x804
  40:	002d0207          	.4byte	0x2d0207
  44:	0000                	.2byte	0x0
  46:	0b00                	.2byte	0xb00
  48:	a102                	.2byte	0xa102
  4a:	0201                	.2byte	0x201
  4c:	002d                	.2byte	0x2d
  4e:	0000                	.2byte	0x0
  50:	0c00                	.2byte	0xc00
  52:	a102                	.2byte	0xa102
  54:	0202                	.2byte	0x202
  56:	002d                	.2byte	0x2d
  58:	0000                	.2byte	0x0
  5a:	0d00                	.2byte	0xd00
  5c:	a102                	.2byte	0xa102
  5e:	002d0203          	lb	tp,2(s10)
  62:	0000                	.2byte	0x0
  64:	0e00                	.2byte	0xe00
  66:	a102                	.2byte	0xa102
  68:	0204                	.2byte	0x204
  6a:	002d                	.2byte	0x2d
  6c:	0000                	.2byte	0x0
  6e:	0f00                	.2byte	0xf00
  70:	a102                	.2byte	0xa102
  72:	0705                	.2byte	0x705
  74:	8006                	.2byte	0x8006
  76:	0000                	.2byte	0x0
  78:	0100                	.2byte	0x100
  7a:	0f52                	.2byte	0xf52
  7c:	0400                	.2byte	0x400
  7e:	00c6                	.2byte	0xc6
  80:	0000                	.2byte	0x0
  82:	0208                	.2byte	0x208
  84:	0091                	.2byte	0x91
  86:	0010                	.2byte	0x10
  88:	cf06                	.2byte	0xcf06
  8a:	0000                	.2byte	0x0
  8c:	0900                	.2byte	0x900
  8e:	00b8                	.2byte	0xb8
  90:	0000                	.2byte	0x0
  92:	011a0907          	.4byte	0x11a0907
  96:	0000                	.2byte	0x0
  98:	0908                	.2byte	0x908
  9a:	011a                	.2byte	0x11a
  9c:	0000                	.2byte	0x0
  9e:	0909                	.2byte	0x909
  a0:	011a                	.2byte	0x11a
  a2:	0000                	.2byte	0x0
  a4:	090a                	.2byte	0x90a
  a6:	011a                	.2byte	0x11a
  a8:	0000                	.2byte	0x0
  aa:	011a090b          	.4byte	0x11a090b
  ae:	0000                	.2byte	0x0
  b0:	090c                	.2byte	0x90c
  b2:	011a                	.2byte	0x11a
  b4:	0000                	.2byte	0x0
  b6:	000d                	.2byte	0xd
  b8:	050a                	.2byte	0x50a
  ba:	1701                	.2byte	0x1701
  bc:	00c6                	.2byte	0xc6
  be:	0000                	.2byte	0x0
  c0:	0000ca0b          	.4byte	0xca0b
  c4:	0000                	.2byte	0x0
  c6:	0605                	.2byte	0x605
  c8:	0405                	.2byte	0x405
  ca:	cf0c                	.2byte	0xcf0c
  cc:	0000                	.2byte	0x0
  ce:	0d00                	.2byte	0xd00
  d0:	860d                	.2byte	0x860d
  d2:	0101                	.2byte	0x101
  d4:	0e0a                	.2byte	0xe0a
  d6:	00010e07          	.4byte	0x10e07
  da:	0100                	.2byte	0x100
  dc:	080e000b          	.4byte	0x80e000b
  e0:	010e                	.2byte	0x10e
  e2:	0000                	.2byte	0x0
  e4:	0c01                	.2byte	0xc01
  e6:	0e41                	.2byte	0xe41
  e8:	0e09                	.2byte	0xe09
  ea:	0001                	.2byte	0x1
  ec:	0100                	.2byte	0x100
  ee:	820d                	.2byte	0x820d
  f0:	0a0e                	.2byte	0xa0e
  f2:	010e                	.2byte	0x10e
  f4:	0000                	.2byte	0x0
  f6:	0e01                	.2byte	0xe01
  f8:	0e0b0fc3          	.4byte	0xe0b0fc3
  fc:	0001                	.2byte	0x1
  fe:	0100                	.2byte	0x100
 100:	0f01040f          	.4byte	0xf01040f
 104:	0e0c                	.2byte	0xe0c
 106:	0001                	.2byte	0x1
 108:	0100                	.2byte	0x100
 10a:	00014513          	xori	a0,sp,0
 10e:	00003903          	ld	s2,0(zero) # 0 <.Lline_table_start0>
 112:	0400                	.2byte	0x400
 114:	003d                	.2byte	0x3d
 116:	0000                	.2byte	0x0
 118:	0041                	.2byte	0x41
 11a:	0e0a                	.2byte	0xe0a
 11c:	6b02                	.2byte	0x6b02
 11e:	00c6                	.2byte	0xc6
 120:	0000                	.2byte	0x0
 122:	0001290b          	.4byte	0x1290b
 126:	1000                	.2byte	0x1000
 128:	1100                	.2byte	0x1100
 12a:	012e                	.2byte	0x12e
 12c:	0000                	.2byte	0x0
 12e:	330c                	.2byte	0x330c
 130:	0001                	.2byte	0x1
 132:	1200                	.2byte	0x1200
 134:	0039                	.2byte	0x39
 136:	0000                	.2byte	0x0
	...

Disassembly of section .debug_str_offsets:

0000000000000000 <.debug_str_offsets>:
   0:	0048                	.2byte	0x48
   2:	0000                	.2byte	0x0
   4:	0005                	.2byte	0x5
   6:	0000                	.2byte	0x0
   8:	0000                	.2byte	0x0
   a:	0000                	.2byte	0x0
   c:	005c                	.2byte	0x5c
   e:	0000                	.2byte	0x0
  10:	0082                	.2byte	0x82
  12:	0000                	.2byte	0x0
  14:	001c                	.2byte	0x1c
  16:	0000                	.2byte	0x0
  18:	003a                	.2byte	0x3a
  1a:	0000                	.2byte	0x0
  1c:	00000067          	jr	zero # 0 <.Lline_table_start0>
  20:	00be                	.2byte	0xbe
  22:	0000                	.2byte	0x0
  24:	00ae                	.2byte	0xae
  26:	0000                	.2byte	0x0
  28:	0031                	.2byte	0x31
  2a:	0000                	.2byte	0x0
  2c:	00b6                	.2byte	0xb6
  2e:	0000                	.2byte	0x0
  30:	007a                	.2byte	0x7a
  32:	0000                	.2byte	0x0
  34:	0021                	.2byte	0x21
  36:	0000                	.2byte	0x0
  38:	006d                	.2byte	0x6d
  3a:	0000                	.2byte	0x0
  3c:	0029                	.2byte	0x29
  3e:	0000                	.2byte	0x0
  40:	0015                	.2byte	0x15
  42:	0000                	.2byte	0x0
  44:	00a9                	.2byte	0xa9
  46:	0000                	.2byte	0x0
  48:	004e                	.2byte	0x4e
	...

Disassembly of section .debug_str:

0000000000000000 <.debug_str>:
   0:	6e616c63          	bltu	sp,t1,6f8 <.Lline_table_start0+0x6f8>
   4:	65762067          	.4byte	0x65762067
   8:	7372                	.2byte	0x7372
   a:	6f69                	.2byte	0x6f69
   c:	206e                	.2byte	0x206e
   e:	3631                	.2byte	0x3631
  10:	302e                	.2byte	0x302e
  12:	362e                	.2byte	0x362e
  14:	7000                	.2byte	0x7000
  16:	6972                	.2byte	0x6972
  18:	746e                	.2byte	0x746e
  1a:	0066                	.2byte	0x66
  1c:	72616863          	bltu	sp,t1,74c <.Lline_table_start0+0x74c>
  20:	6d00                	.2byte	0x6d00
  22:	6361                	.2byte	0x6361
  24:	6968                	.2byte	0x6968
  26:	656e                	.2byte	0x656e
  28:	7500                	.2byte	0x7500
  2a:	7374                	.2byte	0x7374
  2c:	616e                	.2byte	0x616e
  2e:	656d                	.2byte	0x656d
  30:	6e00                	.2byte	0x6e00
  32:	6e65646f          	jal	s0,56718 <__global_pointer$+0x3b850>
  36:	6d61                	.2byte	0x6d61
  38:	0065                	.2byte	0x65
  3a:	5f5f 5241 4152      	.byte	0x5f, 0x5f, 0x41, 0x52, 0x52, 0x41
  40:	5f59                	.2byte	0x5f59
  42:	455a4953          	.4byte	0x455a4953
  46:	545f 5059 5f45      	.byte	0x5f, 0x54, 0x59, 0x50, 0x45, 0x5f
  4c:	005f 6e75 6d61      	.byte	0x5f, 0x00, 0x75, 0x6e, 0x61, 0x6d
  52:	5f65                	.2byte	0x5f65
  54:	6f70                	.2byte	0x6f70
  56:	6e69                	.2byte	0x6e69
  58:	6574                	.2byte	0x6574
  5a:	0072                	.2byte	0x72
  5c:	6574                	.2byte	0x6574
  5e:	615f7473          	csrrci	s0,htimedeltah,30
  62:	7070                	.2byte	0x7070
  64:	632e                	.2byte	0x632e
  66:	7500                	.2byte	0x7500
  68:	616e                	.2byte	0x616e
  6a:	656d                	.2byte	0x656d
  6c:	5f00                	.2byte	0x5f00
  6e:	645f 6d6f 6961      	.byte	0x5f, 0x64, 0x6f, 0x6d, 0x61, 0x69
  74:	6e6e                	.2byte	0x6e6e
  76:	6d61                	.2byte	0x6d61
  78:	0065                	.2byte	0x65
  7a:	6576                	.2byte	0x6576
  7c:	7372                	.2byte	0x7372
  7e:	6f69                	.2byte	0x6f69
  80:	006e                	.2byte	0x6e
  82:	6d6f682f          	.4byte	0x6d6f682f
  86:	2f65                	.2byte	0x2f65
  88:	6562                	.2byte	0x6562
  8a:	6772                	.2byte	0x6772
  8c:	61686373          	csrrsi	t1,0x616,16
  90:	2f66                	.2byte	0x2f66
  92:	6972                	.2byte	0x6972
  94:	36766373          	csrrsi	t1,0x367,12
  98:	5f34                	.2byte	0x5f34
  9a:	7a6d6167          	.4byte	0x7a6d6167
  9e:	65742f6f          	jal	t5,42ef4 <__global_pointer$+0x2802c>
  a2:	615f7473          	csrrci	s0,htimedeltah,30
  a6:	7070                	.2byte	0x7070
  a8:	6d00                	.2byte	0x6d00
  aa:	6961                	.2byte	0x6961
  ac:	006e                	.2byte	0x6e
  ae:	6e737973          	csrrci	s2,0x6e7,6
  b2:	6d61                	.2byte	0x6d61
  b4:	0065                	.2byte	0x65
  b6:	6572                	.2byte	0x6572
  b8:	656c                	.2byte	0x656c
  ba:	7361                	.2byte	0x7361
  bc:	0065                	.2byte	0x65
  be:	6e69                	.2byte	0x6e69
  c0:	0074                	.2byte	0x74

Disassembly of section .debug_addr:

0000000000000000 <.debug_addr>:
   0:	0074                	.2byte	0x74
   2:	0000                	.2byte	0x0
   4:	0005                	.2byte	0x5
   6:	0008                	.2byte	0x8
   8:	000101c7          	.4byte	0x101c7
   c:	0000                	.2byte	0x0
   e:	0000                	.2byte	0x0
  10:	0158                	.2byte	0x158
  12:	0001                	.2byte	0x1
  14:	0000                	.2byte	0x0
  16:	0000                	.2byte	0x0
  18:	0172                	.2byte	0x172
  1a:	0001                	.2byte	0x1
  1c:	0000                	.2byte	0x0
  1e:	0000                	.2byte	0x0
  20:	01a1                	.2byte	0x1a1
  22:	0001                	.2byte	0x1
  24:	0000                	.2byte	0x0
  26:	0000                	.2byte	0x0
  28:	018e                	.2byte	0x18e
  2a:	0001                	.2byte	0x1
  2c:	0000                	.2byte	0x0
  2e:	0000                	.2byte	0x0
  30:	01b4                	.2byte	0x1b4
  32:	0001                	.2byte	0x1
  34:	0000                	.2byte	0x0
  36:	0000                	.2byte	0x0
  38:	28f8                	.2byte	0x28f8
  3a:	0001                	.2byte	0x1
  3c:	0000                	.2byte	0x0
  3e:	0000                	.2byte	0x0
  40:	2908                	.2byte	0x2908
  42:	0001                	.2byte	0x1
  44:	0000                	.2byte	0x0
  46:	0000                	.2byte	0x0
  48:	2918                	.2byte	0x2918
  4a:	0001                	.2byte	0x1
  4c:	0000                	.2byte	0x0
  4e:	0000                	.2byte	0x0
  50:	2928                	.2byte	0x2928
  52:	0001                	.2byte	0x1
  54:	0000                	.2byte	0x0
  56:	0000                	.2byte	0x0
  58:	2938                	.2byte	0x2938
  5a:	0001                	.2byte	0x1
  5c:	0000                	.2byte	0x0
  5e:	0000                	.2byte	0x0
  60:	2948                	.2byte	0x2948
  62:	0001                	.2byte	0x1
  64:	0000                	.2byte	0x0
  66:	0000                	.2byte	0x0
  68:	2958                	.2byte	0x2958
  6a:	0001                	.2byte	0x1
  6c:	0000                	.2byte	0x0
  6e:	0000                	.2byte	0x0
  70:	2968                	.2byte	0x2968
  72:	0001                	.2byte	0x1
  74:	0000                	.2byte	0x0
	...

Disassembly of section .debug_frame:

0000000000000000 <.debug_frame>:
   0:	0014                	.2byte	0x14
   2:	0000                	.2byte	0x0
   4:	ffff                	.2byte	0xffff
   6:	ffff                	.2byte	0xffff
   8:	0004                	.2byte	0x4
   a:	0008                	.2byte	0x8
   c:	7801                	.2byte	0x7801
   e:	0c01                	.2byte	0xc01
  10:	0002                	.2byte	0x2
  12:	0000                	.2byte	0x0
  14:	0000                	.2byte	0x0
  16:	0000                	.2byte	0x0
  18:	001c                	.2byte	0x1c
  1a:	0000                	.2byte	0x0
  1c:	0000                	.2byte	0x0
  1e:	0000                	.2byte	0x0
  20:	28f8                	.2byte	0x28f8
  22:	0001                	.2byte	0x1
  24:	0000                	.2byte	0x0
  26:	0000                	.2byte	0x0
  28:	0080                	.2byte	0x80
  2a:	0000                	.2byte	0x0
  2c:	0000                	.2byte	0x0
  2e:	0000                	.2byte	0x0
  30:	0e44                	.2byte	0xe44
  32:	0390                	.2byte	0x390
  34:	8144                	.2byte	0x8144
  36:	0001                	.2byte	0x1

Disassembly of section .debug_line:

0000000000000000 <.Lline_table_start0>:
   0:	00fe                	.2byte	0xfe
   2:	0000                	.2byte	0x0
   4:	0005                	.2byte	0x5
   6:	0008                	.2byte	0x8
   8:	0069                	.2byte	0x69
   a:	0000                	.2byte	0x0
   c:	0101                	.2byte	0x101
   e:	fb01                	.2byte	0xfb01
  10:	0d0e                	.2byte	0xd0e
  12:	0100                	.2byte	0x100
  14:	0101                	.2byte	0x101
  16:	0001                	.2byte	0x1
  18:	0000                	.2byte	0x0
  1a:	0001                	.2byte	0x1
  1c:	0100                	.2byte	0x100
  1e:	0101                	.2byte	0x101
  20:	031f 005d 0000      	.byte	0x1f, 0x03, 0x5d, 0x00, 0x00, 0x00
  26:	0028                	.2byte	0x28
  28:	0000                	.2byte	0x0
  2a:	0000                	.2byte	0x0
  2c:	0000                	.2byte	0x0
  2e:	021f0103          	lb	sp,33(t5)
  32:	031e050f          	.4byte	0x31e050f
  36:	004a                	.2byte	0x4a
  38:	0000                	.2byte	0x0
  3a:	0f00                	.2byte	0xf00
  3c:	7d29                	.2byte	0x7d29
  3e:	2ed2                	.2byte	0x2ed2
  40:	a0b4                	.2byte	0xa0b4
  42:	24ad                	.2byte	0x24ad
  44:	22902cf7          	.4byte	0x22902cf7
  48:	1ed5                	.2byte	0x1ed5
  4a:	1ea0                	.2byte	0x1ea0
  4c:	0000                	.2byte	0x0
  4e:	0100                	.2byte	0x100
  50:	4bcd                	.2byte	0x4bcd
  52:	7a24                	.2byte	0x7a24
  54:	97bd                	.2byte	0x97bd
  56:	6c4c                	.2byte	0x6c4c
  58:	a682                	.2byte	0xa682
  5a:	3de6                	.2byte	0x3de6
  5c:	d27e7b5b          	.4byte	0xd27e7b5b
  60:	0055                	.2byte	0x55
  62:	0000                	.2byte	0x0
  64:	e302                	.2byte	0xe302
  66:	5700                	.2byte	0x5700
  68:	edde8927          	.4byte	0xedde8927
  6c:	10e4                	.2byte	0x10e4
  6e:	3630                	.2byte	0x3630
  70:	ad6bb1eb          	.4byte	0xad6bb1eb
  74:	0461                	.2byte	0x461
  76:	0000                	.2byte	0x0
  78:	0209                	.2byte	0x209
  7a:	28f8                	.2byte	0x28f8
  7c:	0001                	.2byte	0x1
  7e:	0000                	.2byte	0x0
  80:	0000                	.2byte	0x0
  82:	0516                	.2byte	0x516
  84:	0a02                	.2byte	0xa02
  86:	04090303          	lb	t1,64(s2)
  8a:	0100                	.2byte	0x100
  8c:	0c090203          	lb	tp,192(s2)
  90:	0100                	.2byte	0x100
  92:	2e05                	.2byte	0x2e05
  94:	10090103          	lb	sp,256(s2)
  98:	0100                	.2byte	0x100
  9a:	0205                	.2byte	0x205
  9c:	0306                	.2byte	0x306
  9e:	0900                	.2byte	0x900
  a0:	0004                	.2byte	0x4
  a2:	0501                	.2byte	0x501
  a4:	062e                	.2byte	0x62e
  a6:	0c090103          	lb	sp,192(s2)
  aa:	0100                	.2byte	0x100
  ac:	0205                	.2byte	0x205
  ae:	0306                	.2byte	0x306
  b0:	0900                	.2byte	0x900
  b2:	0004                	.2byte	0x4
  b4:	0501                	.2byte	0x501
  b6:	062e                	.2byte	0x62e
  b8:	0c090103          	lb	sp,192(s2)
  bc:	0100                	.2byte	0x100
  be:	0205                	.2byte	0x205
  c0:	0306                	.2byte	0x306
  c2:	0900                	.2byte	0x900
  c4:	0004                	.2byte	0x4
  c6:	0501                	.2byte	0x501
  c8:	062e                	.2byte	0x62e
  ca:	0c090103          	lb	sp,192(s2)
  ce:	0100                	.2byte	0x100
  d0:	0205                	.2byte	0x205
  d2:	0306                	.2byte	0x306
  d4:	0900                	.2byte	0x900
  d6:	0004                	.2byte	0x4
  d8:	0501                	.2byte	0x501
  da:	062e                	.2byte	0x62e
  dc:	0c090103          	lb	sp,192(s2)
  e0:	0100                	.2byte	0x100
  e2:	0205                	.2byte	0x205
  e4:	0306                	.2byte	0x306
  e6:	0900                	.2byte	0x900
  e8:	0004                	.2byte	0x4
  ea:	0501                	.2byte	0x501
  ec:	0601                	.2byte	0x601
  ee:	0c090103          	lb	sp,192(s2)
  f2:	0100                	.2byte	0x100
  f4:	0b06                	.2byte	0xb06
  f6:	08090003          	lb	zero,128(s2)
  fa:	0100                	.2byte	0x100
  fc:	0809                	.2byte	0x809
  fe:	0000                	.2byte	0x0
 100:	0101                	.2byte	0x101

Disassembly of section .debug_line_str:

0000000000000000 <.debug_line_str>:
   0:	2e2e                	.2byte	0x2e2e
   2:	73756d2f          	.4byte	0x73756d2f
   6:	5f6c                	.2byte	0x5f6c
   8:	7562                	.2byte	0x7562
   a:	6c69                	.2byte	0x6c69
   c:	2f64                	.2byte	0x2f64
   e:	6e69                	.2byte	0x6e69
  10:	6c617473          	csrrci	s0,0x6c6,2
  14:	2f6c                	.2byte	0x2f6c
  16:	6e69                	.2byte	0x6e69
  18:	64756c63          	bltu	a0,t2,670 <.Lline_table_start0+0x670>
  1c:	0065                	.2byte	0x65
  1e:	7475                	.2byte	0x7475
  20:	6d616e73          	csrrsi	t3,0x6d6,2
  24:	2e65                	.2byte	0x2e65
  26:	0068                	.2byte	0x68
  28:	2e2e                	.2byte	0x2e2e
  2a:	73756d2f          	.4byte	0x73756d2f
  2e:	5f6c                	.2byte	0x5f6c
  30:	7562                	.2byte	0x7562
  32:	6c69                	.2byte	0x6c69
  34:	2f64                	.2byte	0x2f64
  36:	6e69                	.2byte	0x6e69
  38:	6c617473          	csrrci	s0,0x6c6,2
  3c:	2f6c                	.2byte	0x2f6c
  3e:	6e69                	.2byte	0x6e69
  40:	64756c63          	bltu	a0,t2,698 <.Lline_table_start0+0x698>
  44:	2f65                	.2byte	0x2f65
  46:	00737973          	csrrci	s2,0x7,6
  4a:	6574                	.2byte	0x6574
  4c:	615f7473          	csrrci	s0,htimedeltah,30
  50:	7070                	.2byte	0x7070
  52:	632e                	.2byte	0x632e
  54:	7300                	.2byte	0x7300
  56:	6474                	.2byte	0x6474
  58:	6f69                	.2byte	0x6f69
  5a:	682e                	.2byte	0x682e
  5c:	2f00                	.2byte	0x2f00
  5e:	6f68                	.2byte	0x6f68
  60:	656d                	.2byte	0x656d
  62:	7265622f          	.4byte	0x7265622f
  66:	68637367          	.4byte	0x68637367
  6a:	6661                	.2byte	0x6661
  6c:	7369722f          	.4byte	0x7369722f
  70:	34367663          	bgeu	a2,gp,3bc <.Lline_table_start0+0x3bc>
  74:	675f 6d61 6f7a      	.byte	0x5f, 0x67, 0x61, 0x6d, 0x7a, 0x6f
  7a:	7365742f          	.4byte	0x7365742f
  7e:	5f74                	.2byte	0x5f74
  80:	7061                	.2byte	0x7061
  82:	0070                	.2byte	0x70
