
test:     file format elf64-littleriscv


Disassembly of section .text:

0000000000011cc8 <_start>:
   11cc8:	00009197          	auipc	gp,0x9
   11ccc:	20018193          	addi	gp,gp,512 # 1aec8 <__global_pointer$>
   11cd0:	00010513          	mv	a0,sp

0000000000011cd4 <.Lpcrel_hi1>:
   11cd4:	fffee597          	auipc	a1,0xfffee
   11cd8:	32c58593          	addi	a1,a1,812 # 0 <.Lline_table_start0>
   11cdc:	ff017113          	andi	sp,sp,-16
   11ce0:	0040006f          	j	11ce4 <_start_c>

0000000000011ce4 <_start_c>:
   11ce4:	00052583          	lw	a1,0(a0)
   11ce8:	00850613          	addi	a2,a0,8
   11cec:	00013537          	lui	a0,0x13
   11cf0:	8f850513          	addi	a0,a0,-1800 # 128f8 <main>
   11cf4:	000126b7          	lui	a3,0x12
   11cf8:	d0c68693          	addi	a3,a3,-756 # 11d0c <_init>
   11cfc:	00012737          	lui	a4,0x12
   11d00:	2f870713          	addi	a4,a4,760 # 122f8 <_fini>
   11d04:	00000793          	li	a5,0
   11d08:	2280006f          	j	11f30 <__libc_start_main>

0000000000011d0c <_init>:
   11d0c:	00008067          	ret

0000000000011d10 <__init_ssp>:
   11d10:	00008067          	ret

0000000000011d14 <__init_libc>:
   11d14:	e9010113          	addi	sp,sp,-368
   11d18:	16113423          	sd	ra,360(sp)
   11d1c:	16813023          	sd	s0,352(sp)
   11d20:	14913c23          	sd	s1,344(sp)
   11d24:	00058413          	mv	s0,a1
   11d28:	00050493          	mv	s1,a0
   11d2c:	02810513          	addi	a0,sp,40
   11d30:	13000613          	li	a2,304
   11d34:	00000593          	li	a1,0
   11d38:	265000ef          	jal	ra,1279c <memset>
   11d3c:	0001a537          	lui	a0,0x1a
   11d40:	7c953c23          	sd	s1,2008(a0) # 1a7d8 <__environ>

0000000000011d44 <.LBB2_1>:
   11d44:	0004b503          	ld	a0,0(s1)
   11d48:	00848493          	addi	s1,s1,8
   11d4c:	fe051ce3          	bnez	a0,11d44 <.LBB2_1>
   11d50:	0001b537          	lui	a0,0x1b
   11d54:	9c953423          	sd	s1,-1592(a0) # 1a9c8 <__libc+0x10>
   11d58:	0004b583          	ld	a1,0(s1)
   11d5c:	04058863          	beqz	a1,11dac <.LBB2_9>
   11d60:	01048493          	addi	s1,s1,16
   11d64:	02500513          	li	a0,37
   11d68:	02810613          	addi	a2,sp,40

0000000000011d6c <.LBB2_4>:
   11d6c:	00b56a63          	bltu	a0,a1,11d80 <.LBB2_6>
   11d70:	ff84b683          	ld	a3,-8(s1)
   11d74:	00359593          	slli	a1,a1,0x3
   11d78:	00b605b3          	add	a1,a2,a1
   11d7c:	00d5b023          	sd	a3,0(a1)

0000000000011d80 <.LBB2_6>:
   11d80:	0004b583          	ld	a1,0(s1)
   11d84:	01048493          	addi	s1,s1,16
   11d88:	fe0592e3          	bnez	a1,11d6c <.LBB2_4>
   11d8c:	0a813583          	ld	a1,168(sp)
   11d90:	12813503          	ld	a0,296(sp)
   11d94:	0001b637          	lui	a2,0x1b
   11d98:	80b63023          	sd	a1,-2048(a2) # 1a800 <__hwcap>
   11d9c:	00050c63          	beqz	a0,11db4 <.LBB2_10>
   11da0:	0001a5b7          	lui	a1,0x1a
   11da4:	7ea5b423          	sd	a0,2024(a1) # 1a7e8 <__sysinfo>
   11da8:	00c0006f          	j	11db4 <.LBB2_10>

0000000000011dac <.LBB2_9>:
   11dac:	0001b537          	lui	a0,0x1b
   11db0:	80053023          	sd	zero,-2048(a0) # 1a800 <__hwcap>

0000000000011db4 <.LBB2_10>:
   11db4:	05813503          	ld	a0,88(sp)
   11db8:	0001b5b7          	lui	a1,0x1b
   11dbc:	9ea5b823          	sd	a0,-1552(a1) # 1a9f0 <__libc+0x38>
   11dc0:	00041463          	bnez	s0,11dc8 <.LBB2_12>
   11dc4:	12013403          	ld	s0,288(sp)

0000000000011dc8 <.LBB2_12>:
   11dc8:	00041663          	bnez	s0,11dd4 <.LBB2_14>
   11dcc:	00010537          	lui	a0,0x10
   11dd0:	18950413          	addi	s0,a0,393 # 10189 <.Lline_table_start0+0x10189>

0000000000011dd4 <.LBB2_14>:
   11dd4:	0001a537          	lui	a0,0x1a
   11dd8:	7e853c23          	sd	s0,2040(a0) # 1a7f8 <__progname_full>
   11ddc:	0001a537          	lui	a0,0x1a
   11de0:	7e853823          	sd	s0,2032(a0) # 1a7f0 <__progname>
   11de4:	00140413          	addi	s0,s0,1
   11de8:	02f00593          	li	a1,47

0000000000011dec <.LBB2_15>:
   11dec:	fff44603          	lbu	a2,-1(s0)
   11df0:	00b60663          	beq	a2,a1,11dfc <.LBB2_17>
   11df4:	00061663          	bnez	a2,11e00 <.LBB2_18>
   11df8:	0100006f          	j	11e08 <.LBB2_19>

0000000000011dfc <.LBB2_17>:
   11dfc:	7e853823          	sd	s0,2032(a0)

0000000000011e00 <.LBB2_18>:
   11e00:	00140413          	addi	s0,s0,1
   11e04:	fe9ff06f          	j	11dec <.LBB2_15>

0000000000011e08 <.LBB2_19>:
   11e08:	02810513          	addi	a0,sp,40
   11e0c:	334000ef          	jal	ra,12140 <__init_tls>
   11e10:	0f013503          	ld	a0,240(sp)
   11e14:	efdff0ef          	jal	ra,11d10 <__init_ssp>
   11e18:	08013503          	ld	a0,128(sp)
   11e1c:	08813583          	ld	a1,136(sp)
   11e20:	00b51e63          	bne	a0,a1,11e3c <.LBB2_21>
   11e24:	09013503          	ld	a0,144(sp)
   11e28:	09813583          	ld	a1,152(sp)
   11e2c:	0e013603          	ld	a2,224(sp)
   11e30:	00b54533          	xor	a0,a0,a1
   11e34:	00c56533          	or	a0,a0,a2
   11e38:	08050c63          	beqz	a0,11ed0 <.LBB2_29>

0000000000011e3c <.LBB2_21>:
   11e3c:	00200513          	li	a0,2
   11e40:	02a13023          	sd	a0,32(sp)
   11e44:	00100513          	li	a0,1
   11e48:	00a13c23          	sd	a0,24(sp)
   11e4c:	00013823          	sd	zero,16(sp)
   11e50:	00013023          	sd	zero,0(sp)
   11e54:	00013423          	sd	zero,8(sp)
   11e58:	04900893          	li	a7,73
   11e5c:	01010513          	addi	a0,sp,16
   11e60:	00300593          	li	a1,3
   11e64:	00010613          	mv	a2,sp
   11e68:	00800713          	li	a4,8
   11e6c:	00000693          	li	a3,0
   11e70:	00000073          	ecall
   11e74:	02051513          	slli	a0,a0,0x20
   11e78:	00300693          	li	a3,3
   11e7c:	00055463          	bgez	a0,11e84 <.LBB2_23>
   11e80:	00000023          	sb	zero,0(zero) # 0 <.Lline_table_start0>

0000000000011e84 <.LBB2_23>:
   11e84:	01610713          	addi	a4,sp,22
   11e88:	00010537          	lui	a0,0x10
   11e8c:	1f950593          	addi	a1,a0,505 # 101f9 <.Lline_table_start0+0x101f9>
   11e90:	00008637          	lui	a2,0x8
   11e94:	0026061b          	addiw	a2,a2,2 # 8002 <.Lline_table_start0+0x8002>
   11e98:	03800893          	li	a7,56

0000000000011e9c <.LBB2_24>:
   11e9c:	00074503          	lbu	a0,0(a4)
   11ea0:	02057513          	andi	a0,a0,32
   11ea4:	00050a63          	beqz	a0,11eb8 <.LBB2_27>
   11ea8:	f9c00513          	li	a0,-100
   11eac:	00000073          	ecall
   11eb0:	00055463          	bgez	a0,11eb8 <.LBB2_27>
   11eb4:	00000023          	sb	zero,0(zero) # 0 <.Lline_table_start0>

0000000000011eb8 <.LBB2_27>:
   11eb8:	fff68693          	addi	a3,a3,-1
   11ebc:	00870713          	addi	a4,a4,8
   11ec0:	fc069ee3          	bnez	a3,11e9c <.LBB2_24>
   11ec4:	0001b537          	lui	a0,0x1b
   11ec8:	00100593          	li	a1,1
   11ecc:	9cb52023          	sw	a1,-1600(a0) # 1a9c0 <__libc+0x8>

0000000000011ed0 <.LBB2_29>:
   11ed0:	16813083          	ld	ra,360(sp)
   11ed4:	16013403          	ld	s0,352(sp)
   11ed8:	15813483          	ld	s1,344(sp)
   11edc:	17010113          	addi	sp,sp,368
   11ee0:	00008067          	ret

0000000000011ee4 <__libc_start_init>:
   11ee4:	fe010113          	addi	sp,sp,-32
   11ee8:	00113c23          	sd	ra,24(sp)
   11eec:	00813823          	sd	s0,16(sp)
   11ef0:	00913423          	sd	s1,8(sp)
   11ef4:	e19ff0ef          	jal	ra,11d0c <_init>
   11ef8:	00012537          	lui	a0,0x12
   11efc:	cc850413          	addi	s0,a0,-824 # 11cc8 <_start>
   11f00:	00012537          	lui	a0,0x12
   11f04:	cc850493          	addi	s1,a0,-824 # 11cc8 <_start>
   11f08:	0084fa63          	bgeu	s1,s0,11f1c <.LBB3_2>

0000000000011f0c <.LBB3_1>:
   11f0c:	0004b503          	ld	a0,0(s1)
   11f10:	000500e7          	jalr	a0
   11f14:	00848493          	addi	s1,s1,8
   11f18:	fe84eae3          	bltu	s1,s0,11f0c <.LBB3_1>

0000000000011f1c <.LBB3_2>:
   11f1c:	01813083          	ld	ra,24(sp)
   11f20:	01013403          	ld	s0,16(sp)
   11f24:	00813483          	ld	s1,8(sp)
   11f28:	02010113          	addi	sp,sp,32
   11f2c:	00008067          	ret

0000000000011f30 <__libc_start_main>:
   11f30:	fe010113          	addi	sp,sp,-32
   11f34:	00113c23          	sd	ra,24(sp)
   11f38:	00813823          	sd	s0,16(sp)
   11f3c:	00913423          	sd	s1,8(sp)
   11f40:	01213023          	sd	s2,0(sp)
   11f44:	00060413          	mv	s0,a2
   11f48:	00058493          	mv	s1,a1
   11f4c:	00050913          	mv	s2,a0
   11f50:	00063583          	ld	a1,0(a2)
   11f54:	00349513          	slli	a0,s1,0x3
   11f58:	00a60533          	add	a0,a2,a0
   11f5c:	00850513          	addi	a0,a0,8
   11f60:	db5ff0ef          	jal	ra,11d14 <__init_libc>
   11f64:	00012537          	lui	a0,0x12
   11f68:	f9050313          	addi	t1,a0,-112 # 11f90 <libc_start_main_stage2>
   11f6c:	00090513          	mv	a0,s2
   11f70:	00048593          	mv	a1,s1
   11f74:	00040613          	mv	a2,s0
   11f78:	01813083          	ld	ra,24(sp)
   11f7c:	01013403          	ld	s0,16(sp)
   11f80:	00813483          	ld	s1,8(sp)
   11f84:	00013903          	ld	s2,0(sp)
   11f88:	02010113          	addi	sp,sp,32
   11f8c:	00030067          	jr	t1

0000000000011f90 <libc_start_main_stage2>:
   11f90:	fd010113          	addi	sp,sp,-48
   11f94:	02113423          	sd	ra,40(sp)
   11f98:	02813023          	sd	s0,32(sp)
   11f9c:	00913c23          	sd	s1,24(sp)
   11fa0:	01213823          	sd	s2,16(sp)
   11fa4:	01313423          	sd	s3,8(sp)
   11fa8:	00060413          	mv	s0,a2
   11fac:	00058493          	mv	s1,a1
   11fb0:	00050913          	mv	s2,a0
   11fb4:	00359513          	slli	a0,a1,0x3
   11fb8:	00a60533          	add	a0,a2,a0
   11fbc:	00850993          	addi	s3,a0,8
   11fc0:	f25ff0ef          	jal	ra,11ee4 <__libc_start_init>
   11fc4:	00048513          	mv	a0,s1
   11fc8:	00040593          	mv	a1,s0
   11fcc:	00098613          	mv	a2,s3
   11fd0:	000900e7          	jalr	s2
   11fd4:	374000ef          	jal	ra,12348 <exit>

0000000000011fd8 <__init_tp>:
   11fd8:	ff010113          	addi	sp,sp,-16
   11fdc:	00113423          	sd	ra,8(sp)
   11fe0:	00813023          	sd	s0,0(sp)
   11fe4:	00050413          	mv	s0,a0
   11fe8:	00a53023          	sd	a0,0(a0)
   11fec:	0e050513          	addi	a0,a0,224
   11ff0:	0d9000ef          	jal	ra,128c8 <__set_thread_area>
   11ff4:	06054063          	bltz	a0,12054 <.LBB0_4>
   11ff8:	00051863          	bnez	a0,12008 <.LBB0_3>
   11ffc:	0001b537          	lui	a0,0x1b
   12000:	00100593          	li	a1,1
   12004:	9ab52c23          	sw	a1,-1608(a0) # 1a9b8 <__libc>

0000000000012008 <.LBB0_3>:
   12008:	00100513          	li	a0,1
   1200c:	04a42023          	sw	a0,64(s0)
   12010:	0001a537          	lui	a0,0x1a
   12014:	7e050513          	addi	a0,a0,2016 # 1a7e0 <__thread_list_lock>
   12018:	06000893          	li	a7,96
   1201c:	00000073          	ecall
   12020:	02a42c23          	sw	a0,56(s0)
   12024:	0001b537          	lui	a0,0x1b
   12028:	9f850513          	addi	a0,a0,-1544 # 1a9f8 <__libc+0x40>
   1202c:	0aa43823          	sd	a0,176(s0)
   12030:	09040513          	addi	a0,s0,144
   12034:	08a43823          	sd	a0,144(s0)
   12038:	0001a537          	lui	a0,0x1a
   1203c:	7e853583          	ld	a1,2024(a0) # 1a7e8 <__sysinfo>
   12040:	00000513          	li	a0,0
   12044:	02b43023          	sd	a1,32(s0)
   12048:	00843823          	sd	s0,16(s0)
   1204c:	00843c23          	sd	s0,24(s0)
   12050:	0080006f          	j	12058 <.LBB0_5>

0000000000012054 <.LBB0_4>:
   12054:	fff00513          	li	a0,-1

0000000000012058 <.LBB0_5>:
   12058:	00813083          	ld	ra,8(sp)
   1205c:	00013403          	ld	s0,0(sp)
   12060:	01010113          	addi	sp,sp,16
   12064:	00008067          	ret

0000000000012068 <__copy_tls>:
   12068:	fd010113          	addi	sp,sp,-48
   1206c:	02113423          	sd	ra,40(sp)
   12070:	02813023          	sd	s0,32(sp)
   12074:	00913c23          	sd	s1,24(sp)
   12078:	01213823          	sd	s2,16(sp)
   1207c:	01313423          	sd	s3,8(sp)
   12080:	01413023          	sd	s4,0(sp)
   12084:	0001b5b7          	lui	a1,0x1b
   12088:	9b858693          	addi	a3,a1,-1608 # 1a9b8 <__libc>
   1208c:	0206b603          	ld	a2,32(a3)
   12090:	0306b583          	ld	a1,48(a3)
   12094:	00c504b3          	add	s1,a0,a2
   12098:	fff5c713          	not	a4,a1
   1209c:	00371713          	slli	a4,a4,0x3
   120a0:	00e484b3          	add	s1,s1,a4
   120a4:	0286b703          	ld	a4,40(a3)
   120a8:	f2000793          	li	a5,-224
   120ac:	0186b903          	ld	s2,24(a3)
   120b0:	40a787b3          	sub	a5,a5,a0
   120b4:	fff70713          	addi	a4,a4,-1
   120b8:	00f77733          	and	a4,a4,a5
   120bc:	00e50433          	add	s0,a0,a4
   120c0:	04090863          	beqz	s2,12110 <.LBB1_4>
   120c4:	0e040993          	addi	s3,s0,224
   120c8:	00359593          	slli	a1,a1,0x3
   120cc:	00c50533          	add	a0,a0,a2
   120d0:	40b50a33          	sub	s4,a0,a1

00000000000120d4 <.LBB1_2>:
   120d4:	02893503          	ld	a0,40(s2)
   120d8:	00a98533          	add	a0,s3,a0
   120dc:	7ff50513          	addi	a0,a0,2047
   120e0:	00150513          	addi	a0,a0,1
   120e4:	00aa3023          	sd	a0,0(s4)
   120e8:	02893503          	ld	a0,40(s2)
   120ec:	00893583          	ld	a1,8(s2)
   120f0:	01093603          	ld	a2,16(s2)
   120f4:	00a98533          	add	a0,s3,a0
   120f8:	290000ef          	jal	ra,12388 <memcpy>
   120fc:	00093903          	ld	s2,0(s2)
   12100:	008a0a13          	addi	s4,s4,8
   12104:	fc0918e3          	bnez	s2,120d4 <.LBB1_2>
   12108:	0001b537          	lui	a0,0x1b
   1210c:	9e853583          	ld	a1,-1560(a0) # 1a9e8 <__libc+0x30>

0000000000012110 <.LBB1_4>:
   12110:	00b4b023          	sd	a1,0(s1)
   12114:	0c943c23          	sd	s1,216(s0)
   12118:	00943423          	sd	s1,8(s0)
   1211c:	00040513          	mv	a0,s0
   12120:	02813083          	ld	ra,40(sp)
   12124:	02013403          	ld	s0,32(sp)
   12128:	01813483          	ld	s1,24(sp)
   1212c:	01013903          	ld	s2,16(sp)
   12130:	00813983          	ld	s3,8(sp)
   12134:	00013a03          	ld	s4,0(sp)
   12138:	03010113          	addi	sp,sp,48
   1213c:	00008067          	ret

0000000000012140 <__init_tls>:
   12140:	ff010113          	addi	sp,sp,-16
   12144:	00113423          	sd	ra,8(sp)
   12148:	02853583          	ld	a1,40(a0)
   1214c:	0e058a63          	beqz	a1,12240 <.LBB2_17>
   12150:	00000613          	li	a2,0
   12154:	00000e93          	li	t4,0
   12158:	01853683          	ld	a3,24(a0)
   1215c:	0001a737          	lui	a4,0x1a
   12160:	6c872e03          	lw	t3,1736(a4) # 1a6c8 <__default_stacksize>
   12164:	02053503          	ld	a0,32(a0)
   12168:	00600793          	li	a5,6
   1216c:	00000837          	lui	a6,0x0
   12170:	00080813          	mv	a6,a6
   12174:	00183893          	seqz	a7,a6
   12178:	00700293          	li	t0,7
   1217c:	6474e337          	lui	t1,0x6474e
   12180:	5513031b          	addiw	t1,t1,1361 # 6474e551 <__global_pointer$+0x64733689>
   12184:	00068393          	mv	t2,a3

0000000000012188 <.LBB2_2>:
   12188:	0003af83          	lw	t6,0(t2)
   1218c:	00ff9863          	bne	t6,a5,1219c <.LBB2_4>
   12190:	0103b603          	ld	a2,16(t2)
   12194:	40c68633          	sub	a2,a3,a2
   12198:	0580006f          	j	121f0 <.LBB2_14>

000000000001219c <.LBB2_4>:
   1219c:	ffef8f13          	addi	t5,t6,-2
   121a0:	01e03f33          	snez	t5,t5
   121a4:	011f6f33          	or	t5,t5,a7
   121a8:	040f0063          	beqz	t5,121e8 <.LBB2_13>
   121ac:	00038f13          	mv	t5,t2
   121b0:	005f8463          	beq	t6,t0,121b8 <.LBB2_7>
   121b4:	000e8f13          	mv	t5,t4

00000000000121b8 <.LBB2_7>:
   121b8:	026f9463          	bne	t6,t1,121e0 <.LBB2_12>
   121bc:	0283be83          	ld	t4,40(t2)
   121c0:	020e1f93          	slli	t6,t3,0x20
   121c4:	020fdf93          	srli	t6,t6,0x20
   121c8:	01dffc63          	bgeu	t6,t4,121e0 <.LBB2_12>
   121cc:	00800e37          	lui	t3,0x800
   121d0:	01cee463          	bltu	t4,t3,121d8 <.LBB2_11>
   121d4:	00800eb7          	lui	t4,0x800

00000000000121d8 <.LBB2_11>:
   121d8:	6dd72423          	sw	t4,1736(a4)
   121dc:	000e8e13          	mv	t3,t4

00000000000121e0 <.LBB2_12>:
   121e0:	000f0e93          	mv	t4,t5
   121e4:	00c0006f          	j	121f0 <.LBB2_14>

00000000000121e8 <.LBB2_13>:
   121e8:	0103b603          	ld	a2,16(t2)
   121ec:	40c80633          	sub	a2,a6,a2

00000000000121f0 <.LBB2_14>:
   121f0:	fff58593          	addi	a1,a1,-1
   121f4:	00a383b3          	add	t2,t2,a0
   121f8:	f80598e3          	bnez	a1,12188 <.LBB2_2>
   121fc:	040e8263          	beqz	t4,12240 <.LBB2_17>
   12200:	010eb503          	ld	a0,16(t4) # 800010 <__global_pointer$+0x7e5148>
   12204:	00c50633          	add	a2,a0,a2
   12208:	0001b537          	lui	a0,0x1b
   1220c:	82050693          	addi	a3,a0,-2016 # 1a820 <main_tls>
   12210:	00c6b423          	sd	a2,8(a3)
   12214:	020eb503          	ld	a0,32(t4)
   12218:	00a6b823          	sd	a0,16(a3)
   1221c:	030eb503          	ld	a0,48(t4)
   12220:	028eb583          	ld	a1,40(t4)
   12224:	02a6b023          	sd	a0,32(a3)
   12228:	0001b737          	lui	a4,0x1b
   1222c:	9b870713          	addi	a4,a4,-1608 # 1a9b8 <__libc>
   12230:	00100793          	li	a5,1
   12234:	02f73823          	sd	a5,48(a4)
   12238:	00d73c23          	sd	a3,24(a4)
   1223c:	0180006f          	j	12254 <.LBB2_18>

0000000000012240 <.LBB2_17>:
   12240:	0001b537          	lui	a0,0x1b
   12244:	82050613          	addi	a2,a0,-2016 # 1a820 <main_tls>
   12248:	02063503          	ld	a0,32(a2)
   1224c:	01863583          	ld	a1,24(a2)
   12250:	00863603          	ld	a2,8(a2)

0000000000012254 <.LBB2_18>:
   12254:	40c006b3          	neg	a3,a2
   12258:	40b686b3          	sub	a3,a3,a1
   1225c:	fff50713          	addi	a4,a0,-1
   12260:	00d776b3          	and	a3,a4,a3
   12264:	00b685b3          	add	a1,a3,a1
   12268:	0001b6b7          	lui	a3,0x1b
   1226c:	82068693          	addi	a3,a3,-2016 # 1a820 <main_tls>
   12270:	00b6bc23          	sd	a1,24(a3)
   12274:	00c77633          	and	a2,a4,a2
   12278:	00700713          	li	a4,7
   1227c:	02c6b423          	sd	a2,40(a3)
   12280:	00a76663          	bltu	a4,a0,1228c <.LBB2_20>
   12284:	00800513          	li	a0,8
   12288:	02a6b023          	sd	a0,32(a3)

000000000001228c <.LBB2_20>:
   1228c:	0001b6b7          	lui	a3,0x1b
   12290:	9b868693          	addi	a3,a3,-1608 # 1a9b8 <__libc>
   12294:	02a6b423          	sd	a0,40(a3)
   12298:	00b605b3          	add	a1,a2,a1
   1229c:	00a58533          	add	a0,a1,a0
   122a0:	0f750593          	addi	a1,a0,247
   122a4:	ff85f593          	andi	a1,a1,-8
   122a8:	16900513          	li	a0,361
   122ac:	02b6b023          	sd	a1,32(a3)
   122b0:	02a5e263          	bltu	a1,a0,122d4 <.LBB2_22>
   122b4:	0de00893          	li	a7,222
   122b8:	00300613          	li	a2,3
   122bc:	02200693          	li	a3,34
   122c0:	fff00713          	li	a4,-1
   122c4:	00000513          	li	a0,0
   122c8:	00000793          	li	a5,0
   122cc:	00000073          	ecall
   122d0:	00c0006f          	j	122dc <.LBB2_23>

00000000000122d4 <.LBB2_22>:
   122d4:	0001b537          	lui	a0,0x1b
   122d8:	85050513          	addi	a0,a0,-1968 # 1a850 <builtin_tls>

00000000000122dc <.LBB2_23>:
   122dc:	d8dff0ef          	jal	ra,12068 <__copy_tls>
   122e0:	cf9ff0ef          	jal	ra,11fd8 <__init_tp>
   122e4:	00055463          	bgez	a0,122ec <.LBB2_25>
   122e8:	00000023          	sb	zero,0(zero) # 0 <.Lline_table_start0>

00000000000122ec <.LBB2_25>:
   122ec:	00813083          	ld	ra,8(sp)
   122f0:	01010113          	addi	sp,sp,16
   122f4:	00008067          	ret

00000000000122f8 <_fini>:
   122f8:	00008067          	ret

00000000000122fc <__libc_exit_fini>:
   122fc:	fe010113          	addi	sp,sp,-32
   12300:	00113c23          	sd	ra,24(sp)
   12304:	00813823          	sd	s0,16(sp)
   12308:	00913423          	sd	s1,8(sp)
   1230c:	00012537          	lui	a0,0x12
   12310:	cc850513          	addi	a0,a0,-824 # 11cc8 <_start>
   12314:	000125b7          	lui	a1,0x12
   12318:	cc858413          	addi	s0,a1,-824 # 11cc8 <_start>
   1231c:	00a47c63          	bgeu	s0,a0,12334 <.LBB1_2>

0000000000012320 <.LBB1_1>:
   12320:	ff853583          	ld	a1,-8(a0)
   12324:	ff850493          	addi	s1,a0,-8
   12328:	000580e7          	jalr	a1
   1232c:	00048513          	mv	a0,s1
   12330:	fe9468e3          	bltu	s0,s1,12320 <.LBB1_1>

0000000000012334 <.LBB1_2>:
   12334:	01813083          	ld	ra,24(sp)
   12338:	01013403          	ld	s0,16(sp)
   1233c:	00813483          	ld	s1,8(sp)
   12340:	02010113          	addi	sp,sp,32
   12344:	fb5ff06f          	j	122f8 <_fini>

0000000000012348 <exit>:
   12348:	ff010113          	addi	sp,sp,-16
   1234c:	00113423          	sd	ra,8(sp)
   12350:	00813023          	sd	s0,0(sp)
   12354:	00050413          	mv	s0,a0
   12358:	fa1ff0ef          	jal	ra,122f8 <_fini>
   1235c:	fa1ff0ef          	jal	ra,122fc <__libc_exit_fini>
   12360:	4a1020ef          	jal	ra,15000 <__stdio_exit>
   12364:	00040513          	mv	a0,s0
   12368:	004000ef          	jal	ra,1236c <_Exit>

000000000001236c <_Exit>:
   1236c:	00050593          	mv	a1,a0
   12370:	05e00893          	li	a7,94
   12374:	00000073          	ecall
   12378:	05d00893          	li	a7,93

000000000001237c <.LBB0_1>:
   1237c:	00058513          	mv	a0,a1
   12380:	00000073          	ecall
   12384:	ff9ff06f          	j	1237c <.LBB0_1>

0000000000012388 <memcpy>:
   12388:	0035f693          	andi	a3,a1,3
   1238c:	0016b693          	seqz	a3,a3
   12390:	00163713          	seqz	a4,a2
   12394:	00e6e6b3          	or	a3,a3,a4
   12398:	10069063          	bnez	a3,12498 <.LBB0_11>
   1239c:	00158793          	addi	a5,a1,1
   123a0:	00050813          	mv	a6,a0

00000000000123a4 <.LBB0_2>:
   123a4:	00058883          	lb	a7,0(a1)
   123a8:	00158713          	addi	a4,a1,1
   123ac:	00180693          	addi	a3,a6,1 # 1 <.Lline_table_start0+0x1>
   123b0:	01180023          	sb	a7,0(a6)
   123b4:	fff60613          	addi	a2,a2,-1
   123b8:	0037f593          	andi	a1,a5,3
   123bc:	00b035b3          	snez	a1,a1
   123c0:	00c03833          	snez	a6,a2
   123c4:	0105f8b3          	and	a7,a1,a6
   123c8:	00178793          	addi	a5,a5,1
   123cc:	00070593          	mv	a1,a4
   123d0:	00068813          	mv	a6,a3
   123d4:	fc0898e3          	bnez	a7,123a4 <.LBB0_2>
   123d8:	0036f593          	andi	a1,a3,3
   123dc:	0c058663          	beqz	a1,124a8 <.LBB0_12>

00000000000123e0 <.LBB0_4>:
   123e0:	02000793          	li	a5,32
   123e4:	1af66c63          	bltu	a2,a5,1259c <.LBB0_22>
   123e8:	00300793          	li	a5,3
   123ec:	12f58a63          	beq	a1,a5,12520 <.LBB0_19>
   123f0:	00200793          	li	a5,2
   123f4:	22f58863          	beq	a1,a5,12624 <.LBB0_31>
   123f8:	00100793          	li	a5,1
   123fc:	1af59063          	bne	a1,a5,1259c <.LBB0_22>
   12400:	00072783          	lw	a5,0(a4)
   12404:	00f68023          	sb	a5,0(a3)
   12408:	0087d593          	srli	a1,a5,0x8
   1240c:	00b680a3          	sb	a1,1(a3)
   12410:	0107d593          	srli	a1,a5,0x10
   12414:	00b68123          	sb	a1,2(a3)
   12418:	00368693          	addi	a3,a3,3
   1241c:	ffd60613          	addi	a2,a2,-3
   12420:	01070713          	addi	a4,a4,16
   12424:	01000593          	li	a1,16

0000000000012428 <.LBB0_9>:
   12428:	ff472803          	lw	a6,-12(a4)
   1242c:	0187d79b          	srliw	a5,a5,0x18
   12430:	00881893          	slli	a7,a6,0x8
   12434:	ff872283          	lw	t0,-8(a4)
   12438:	00f8e7b3          	or	a5,a7,a5
   1243c:	00f6a023          	sw	a5,0(a3)
   12440:	0188579b          	srliw	a5,a6,0x18
   12444:	00829813          	slli	a6,t0,0x8
   12448:	ffc72883          	lw	a7,-4(a4)
   1244c:	00f867b3          	or	a5,a6,a5
   12450:	00f6a223          	sw	a5,4(a3)
   12454:	0182d81b          	srliw	a6,t0,0x18
   12458:	00889293          	slli	t0,a7,0x8
   1245c:	00072783          	lw	a5,0(a4)
   12460:	0102e833          	or	a6,t0,a6
   12464:	0106a423          	sw	a6,8(a3)
   12468:	0188d81b          	srliw	a6,a7,0x18
   1246c:	00879893          	slli	a7,a5,0x8
   12470:	0108e833          	or	a6,a7,a6
   12474:	0106a623          	sw	a6,12(a3)
   12478:	01068693          	addi	a3,a3,16
   1247c:	ff060613          	addi	a2,a2,-16
   12480:	01070713          	addi	a4,a4,16
   12484:	fac5e2e3          	bltu	a1,a2,12428 <.LBB0_9>
   12488:	ff370713          	addi	a4,a4,-13
   1248c:	01067593          	andi	a1,a2,16
   12490:	10058a63          	beqz	a1,125a4 <.LBB0_23>
   12494:	21c0006f          	j	126b0 <.LBB0_34>

0000000000012498 <.LBB0_11>:
   12498:	00050693          	mv	a3,a0
   1249c:	00058713          	mv	a4,a1
   124a0:	0036f593          	andi	a1,a3,3
   124a4:	f2059ee3          	bnez	a1,123e0 <.LBB0_4>

00000000000124a8 <.LBB0_12>:
   124a8:	01000593          	li	a1,16
   124ac:	02b66c63          	bltu	a2,a1,124e4 <.LBB0_15>
   124b0:	00f00593          	li	a1,15

00000000000124b4 <.LBB0_14>:
   124b4:	00072783          	lw	a5,0(a4)
   124b8:	00472803          	lw	a6,4(a4)
   124bc:	00872883          	lw	a7,8(a4)
   124c0:	00c72283          	lw	t0,12(a4)
   124c4:	00f6a023          	sw	a5,0(a3)
   124c8:	0106a223          	sw	a6,4(a3)
   124cc:	0116a423          	sw	a7,8(a3)
   124d0:	0056a623          	sw	t0,12(a3)
   124d4:	01070713          	addi	a4,a4,16
   124d8:	ff060613          	addi	a2,a2,-16
   124dc:	01068693          	addi	a3,a3,16
   124e0:	fcc5eae3          	bltu	a1,a2,124b4 <.LBB0_14>

00000000000124e4 <.LBB0_15>:
   124e4:	00800593          	li	a1,8
   124e8:	00b66e63          	bltu	a2,a1,12504 <.LBB0_17>
   124ec:	00072583          	lw	a1,0(a4)
   124f0:	00472783          	lw	a5,4(a4)
   124f4:	00b6a023          	sw	a1,0(a3)
   124f8:	00f6a223          	sw	a5,4(a3)
   124fc:	00868693          	addi	a3,a3,8
   12500:	00870713          	addi	a4,a4,8

0000000000012504 <.LBB0_17>:
   12504:	00467593          	andi	a1,a2,4
   12508:	0c058c63          	beqz	a1,125e0 <.LBB0_26>
   1250c:	00072583          	lw	a1,0(a4)
   12510:	00b6a023          	sw	a1,0(a3)
   12514:	00468693          	addi	a3,a3,4
   12518:	00470713          	addi	a4,a4,4
   1251c:	0c40006f          	j	125e0 <.LBB0_26>

0000000000012520 <.LBB0_19>:
   12520:	00072783          	lw	a5,0(a4)
   12524:	00f68023          	sb	a5,0(a3)
   12528:	00168693          	addi	a3,a3,1
   1252c:	fff60613          	addi	a2,a2,-1
   12530:	01070713          	addi	a4,a4,16
   12534:	01200593          	li	a1,18

0000000000012538 <.LBB0_20>:
   12538:	ff472803          	lw	a6,-12(a4)
   1253c:	0087d79b          	srliw	a5,a5,0x8
   12540:	01881893          	slli	a7,a6,0x18
   12544:	ff872283          	lw	t0,-8(a4)
   12548:	00f8e7b3          	or	a5,a7,a5
   1254c:	00f6a023          	sw	a5,0(a3)
   12550:	0088579b          	srliw	a5,a6,0x8
   12554:	01829813          	slli	a6,t0,0x18
   12558:	ffc72883          	lw	a7,-4(a4)
   1255c:	00f867b3          	or	a5,a6,a5
   12560:	00f6a223          	sw	a5,4(a3)
   12564:	0082d81b          	srliw	a6,t0,0x8
   12568:	01889293          	slli	t0,a7,0x18
   1256c:	00072783          	lw	a5,0(a4)
   12570:	0102e833          	or	a6,t0,a6
   12574:	0106a423          	sw	a6,8(a3)
   12578:	0088d81b          	srliw	a6,a7,0x8
   1257c:	01879893          	slli	a7,a5,0x18
   12580:	0108e833          	or	a6,a7,a6
   12584:	0106a623          	sw	a6,12(a3)
   12588:	01068693          	addi	a3,a3,16
   1258c:	ff060613          	addi	a2,a2,-16
   12590:	01070713          	addi	a4,a4,16
   12594:	fac5e2e3          	bltu	a1,a2,12538 <.LBB0_20>
   12598:	ff170713          	addi	a4,a4,-15

000000000001259c <.LBB0_22>:
   1259c:	01067593          	andi	a1,a2,16
   125a0:	10059863          	bnez	a1,126b0 <.LBB0_34>

00000000000125a4 <.LBB0_23>:
   125a4:	00867593          	andi	a1,a2,8
   125a8:	18059e63          	bnez	a1,12744 <.LBB0_35>

00000000000125ac <.LBB0_24>:
   125ac:	00467593          	andi	a1,a2,4
   125b0:	02058863          	beqz	a1,125e0 <.LBB0_26>

00000000000125b4 <.LBB0_25>:
   125b4:	00070583          	lb	a1,0(a4)
   125b8:	00170783          	lb	a5,1(a4)
   125bc:	00270803          	lb	a6,2(a4)
   125c0:	00b68023          	sb	a1,0(a3)
   125c4:	00f680a3          	sb	a5,1(a3)
   125c8:	00370583          	lb	a1,3(a4)
   125cc:	01068123          	sb	a6,2(a3)
   125d0:	00470713          	addi	a4,a4,4
   125d4:	00468793          	addi	a5,a3,4
   125d8:	00b681a3          	sb	a1,3(a3)
   125dc:	00078693          	mv	a3,a5

00000000000125e0 <.LBB0_26>:
   125e0:	00267593          	andi	a1,a2,2
   125e4:	00059863          	bnez	a1,125f4 <.LBB0_29>
   125e8:	00167613          	andi	a2,a2,1
   125ec:	02061663          	bnez	a2,12618 <.LBB0_30>

00000000000125f0 <.LBB0_28>:
   125f0:	00008067          	ret

00000000000125f4 <.LBB0_29>:
   125f4:	00070583          	lb	a1,0(a4)
   125f8:	00170783          	lb	a5,1(a4)
   125fc:	00b68023          	sb	a1,0(a3)
   12600:	00270713          	addi	a4,a4,2
   12604:	00268593          	addi	a1,a3,2
   12608:	00f680a3          	sb	a5,1(a3)
   1260c:	00058693          	mv	a3,a1
   12610:	00167613          	andi	a2,a2,1
   12614:	fc060ee3          	beqz	a2,125f0 <.LBB0_28>

0000000000012618 <.LBB0_30>:
   12618:	00070583          	lb	a1,0(a4)
   1261c:	00b68023          	sb	a1,0(a3)
   12620:	00008067          	ret

0000000000012624 <.LBB0_31>:
   12624:	00072783          	lw	a5,0(a4)
   12628:	00f68023          	sb	a5,0(a3)
   1262c:	0087d593          	srli	a1,a5,0x8
   12630:	00b680a3          	sb	a1,1(a3)
   12634:	00268693          	addi	a3,a3,2
   12638:	ffe60613          	addi	a2,a2,-2
   1263c:	01070713          	addi	a4,a4,16
   12640:	01100593          	li	a1,17

0000000000012644 <.LBB0_32>:
   12644:	ff472803          	lw	a6,-12(a4)
   12648:	0107d79b          	srliw	a5,a5,0x10
   1264c:	01081893          	slli	a7,a6,0x10
   12650:	ff872283          	lw	t0,-8(a4)
   12654:	00f8e7b3          	or	a5,a7,a5
   12658:	00f6a023          	sw	a5,0(a3)
   1265c:	0108579b          	srliw	a5,a6,0x10
   12660:	01029813          	slli	a6,t0,0x10
   12664:	ffc72883          	lw	a7,-4(a4)
   12668:	00f867b3          	or	a5,a6,a5
   1266c:	00f6a223          	sw	a5,4(a3)
   12670:	0102d81b          	srliw	a6,t0,0x10
   12674:	01089293          	slli	t0,a7,0x10
   12678:	00072783          	lw	a5,0(a4)
   1267c:	0102e833          	or	a6,t0,a6
   12680:	0106a423          	sw	a6,8(a3)
   12684:	0108d81b          	srliw	a6,a7,0x10
   12688:	01079893          	slli	a7,a5,0x10
   1268c:	0108e833          	or	a6,a7,a6
   12690:	0106a623          	sw	a6,12(a3)
   12694:	01068693          	addi	a3,a3,16
   12698:	ff060613          	addi	a2,a2,-16
   1269c:	01070713          	addi	a4,a4,16
   126a0:	fac5e2e3          	bltu	a1,a2,12644 <.LBB0_32>
   126a4:	ff270713          	addi	a4,a4,-14
   126a8:	01067593          	andi	a1,a2,16
   126ac:	ee058ce3          	beqz	a1,125a4 <.LBB0_23>

00000000000126b0 <.LBB0_34>:
   126b0:	00070583          	lb	a1,0(a4)
   126b4:	00170783          	lb	a5,1(a4)
   126b8:	00270803          	lb	a6,2(a4)
   126bc:	00b68023          	sb	a1,0(a3)
   126c0:	00f680a3          	sb	a5,1(a3)
   126c4:	00370583          	lb	a1,3(a4)
   126c8:	01068123          	sb	a6,2(a3)
   126cc:	00470783          	lb	a5,4(a4)
   126d0:	00570803          	lb	a6,5(a4)
   126d4:	00b681a3          	sb	a1,3(a3)
   126d8:	00670583          	lb	a1,6(a4)
   126dc:	00f68223          	sb	a5,4(a3)
   126e0:	010682a3          	sb	a6,5(a3)
   126e4:	00770783          	lb	a5,7(a4)
   126e8:	00b68323          	sb	a1,6(a3)
   126ec:	00870583          	lb	a1,8(a4)
   126f0:	00970803          	lb	a6,9(a4)
   126f4:	00f683a3          	sb	a5,7(a3)
   126f8:	00a70783          	lb	a5,10(a4)
   126fc:	00b68423          	sb	a1,8(a3)
   12700:	010684a3          	sb	a6,9(a3)
   12704:	00b70583          	lb	a1,11(a4)
   12708:	00f68523          	sb	a5,10(a3)
   1270c:	00c70783          	lb	a5,12(a4)
   12710:	00d70803          	lb	a6,13(a4)
   12714:	00b685a3          	sb	a1,11(a3)
   12718:	00e70583          	lb	a1,14(a4)
   1271c:	00f68623          	sb	a5,12(a3)
   12720:	010686a3          	sb	a6,13(a3)
   12724:	00f70783          	lb	a5,15(a4)
   12728:	00b68723          	sb	a1,14(a3)
   1272c:	01070713          	addi	a4,a4,16
   12730:	01068593          	addi	a1,a3,16
   12734:	00f687a3          	sb	a5,15(a3)
   12738:	00058693          	mv	a3,a1
   1273c:	00867593          	andi	a1,a2,8
   12740:	e60586e3          	beqz	a1,125ac <.LBB0_24>

0000000000012744 <.LBB0_35>:
   12744:	00070583          	lb	a1,0(a4)
   12748:	00170783          	lb	a5,1(a4)
   1274c:	00270803          	lb	a6,2(a4)
   12750:	00b68023          	sb	a1,0(a3)
   12754:	00f680a3          	sb	a5,1(a3)
   12758:	00370583          	lb	a1,3(a4)
   1275c:	01068123          	sb	a6,2(a3)
   12760:	00470783          	lb	a5,4(a4)
   12764:	00570803          	lb	a6,5(a4)
   12768:	00b681a3          	sb	a1,3(a3)
   1276c:	00670583          	lb	a1,6(a4)
   12770:	00f68223          	sb	a5,4(a3)
   12774:	010682a3          	sb	a6,5(a3)
   12778:	00770783          	lb	a5,7(a4)
   1277c:	00b68323          	sb	a1,6(a3)
   12780:	00870713          	addi	a4,a4,8
   12784:	00868593          	addi	a1,a3,8
   12788:	00f683a3          	sb	a5,7(a3)
   1278c:	00058693          	mv	a3,a1
   12790:	00467593          	andi	a1,a2,4
   12794:	e20590e3          	bnez	a1,125b4 <.LBB0_25>
   12798:	e49ff06f          	j	125e0 <.LBB0_26>

000000000001279c <memset>:
   1279c:	fd010113          	addi	sp,sp,-48
   127a0:	02113423          	sd	ra,40(sp)
   127a4:	02813023          	sd	s0,32(sp)
   127a8:	00913c23          	sd	s1,24(sp)
   127ac:	01213823          	sd	s2,16(sp)
   127b0:	01313423          	sd	s3,8(sp)
   127b4:	00050413          	mv	s0,a0
   127b8:	0e060863          	beqz	a2,128a8 <.LBB0_9>
   127bc:	00b40023          	sb	a1,0(s0)
   127c0:	00860533          	add	a0,a2,s0
   127c4:	00300693          	li	a3,3
   127c8:	feb50fa3          	sb	a1,-1(a0)
   127cc:	0cd66e63          	bltu	a2,a3,128a8 <.LBB0_9>
   127d0:	00b400a3          	sb	a1,1(s0)
   127d4:	00b40123          	sb	a1,2(s0)
   127d8:	feb50f23          	sb	a1,-2(a0)
   127dc:	00700693          	li	a3,7
   127e0:	feb50ea3          	sb	a1,-3(a0)
   127e4:	0cd66263          	bltu	a2,a3,128a8 <.LBB0_9>
   127e8:	00b401a3          	sb	a1,3(s0)
   127ec:	00900993          	li	s3,9
   127f0:	feb50e23          	sb	a1,-4(a0)
   127f4:	0b366a63          	bltu	a2,s3,128a8 <.LBB0_9>
   127f8:	4080053b          	negw	a0,s0
   127fc:	00357513          	andi	a0,a0,3
   12800:	00a404b3          	add	s1,s0,a0
   12804:	40a60633          	sub	a2,a2,a0
   12808:	ffc67913          	andi	s2,a2,-4
   1280c:	0ff5f513          	zext.b	a0,a1
   12810:	010105b7          	lui	a1,0x1010
   12814:	1015859b          	addiw	a1,a1,257 # 1010101 <__global_pointer$+0xff5239>
   12818:	0bc000ef          	jal	ra,128d4 <__muldi3>
   1281c:	00a4a023          	sw	a0,0(s1)
   12820:	012485b3          	add	a1,s1,s2
   12824:	fea5ae23          	sw	a0,-4(a1)
   12828:	09396063          	bltu	s2,s3,128a8 <.LBB0_9>
   1282c:	00a4a223          	sw	a0,4(s1)
   12830:	00a4a423          	sw	a0,8(s1)
   12834:	fea5aa23          	sw	a0,-12(a1)
   12838:	01900613          	li	a2,25
   1283c:	fea5ac23          	sw	a0,-8(a1)
   12840:	06c96463          	bltu	s2,a2,128a8 <.LBB0_9>
   12844:	00a4a623          	sw	a0,12(s1)
   12848:	00a4a823          	sw	a0,16(s1)
   1284c:	00a4aa23          	sw	a0,20(s1)
   12850:	00a4ac23          	sw	a0,24(s1)
   12854:	fea5a223          	sw	a0,-28(a1)
   12858:	fea5a423          	sw	a0,-24(a1)
   1285c:	fea5a623          	sw	a0,-20(a1)
   12860:	0044f693          	andi	a3,s1,4
   12864:	01868693          	addi	a3,a3,24
   12868:	40d90633          	sub	a2,s2,a3
   1286c:	02000713          	li	a4,32
   12870:	fea5a823          	sw	a0,-16(a1)
   12874:	02e66a63          	bltu	a2,a4,128a8 <.LBB0_9>
   12878:	02051513          	slli	a0,a0,0x20
   1287c:	02055593          	srli	a1,a0,0x20
   12880:	00b56533          	or	a0,a0,a1
   12884:	00d484b3          	add	s1,s1,a3
   12888:	01f00593          	li	a1,31

000000000001288c <.LBB0_8>:
   1288c:	00a4b023          	sd	a0,0(s1)
   12890:	00a4b423          	sd	a0,8(s1)
   12894:	00a4b823          	sd	a0,16(s1)
   12898:	00a4bc23          	sd	a0,24(s1)
   1289c:	fe060613          	addi	a2,a2,-32
   128a0:	02048493          	addi	s1,s1,32
   128a4:	fec5e4e3          	bltu	a1,a2,1288c <.LBB0_8>

00000000000128a8 <.LBB0_9>:
   128a8:	00040513          	mv	a0,s0
   128ac:	02813083          	ld	ra,40(sp)
   128b0:	02013403          	ld	s0,32(sp)
   128b4:	01813483          	ld	s1,24(sp)
   128b8:	01013903          	ld	s2,16(sp)
   128bc:	00813983          	ld	s3,8(sp)
   128c0:	03010113          	addi	sp,sp,48
   128c4:	00008067          	ret

00000000000128c8 <__set_thread_area>:
   128c8:	00050213          	mv	tp,a0
   128cc:	00000513          	li	a0,0
   128d0:	00008067          	ret

00000000000128d4 <__muldi3>:
   128d4:	00050613          	mv	a2,a0
   128d8:	00000513          	li	a0,0

00000000000128dc <.L1>:
   128dc:	0015f693          	andi	a3,a1,1
   128e0:	00068463          	beqz	a3,128e8 <.L2>
   128e4:	00c50533          	add	a0,a0,a2

00000000000128e8 <.L2>:
   128e8:	0015d593          	srli	a1,a1,0x1
   128ec:	00161613          	slli	a2,a2,0x1
   128f0:	fe0596e3          	bnez	a1,128dc <.L1>
   128f4:	00008067          	ret

00000000000128f8 <main>:
   128f8:	e7010113          	addi	sp,sp,-400
   128fc:	18113423          	sd	ra,392(sp)
   12900:	00010513          	mv	a0,sp
   12904:	074000ef          	jal	ra,12978 <uname>
   12908:	00010537          	lui	a0,0x10
   1290c:	1c750513          	addi	a0,a0,455 # 101c7 <.Lline_table_start0+0x101c7>
   12910:	00010593          	mv	a1,sp
   12914:	0cc000ef          	jal	ra,129e0 <printf>
   12918:	04110593          	addi	a1,sp,65
   1291c:	00010537          	lui	a0,0x10
   12920:	15850513          	addi	a0,a0,344 # 10158 <.Lline_table_start0+0x10158>
   12924:	0bc000ef          	jal	ra,129e0 <printf>
   12928:	08210593          	addi	a1,sp,130
   1292c:	00010537          	lui	a0,0x10
   12930:	17250513          	addi	a0,a0,370 # 10172 <.Lline_table_start0+0x10172>
   12934:	0ac000ef          	jal	ra,129e0 <printf>
   12938:	0c310593          	addi	a1,sp,195
   1293c:	00010537          	lui	a0,0x10
   12940:	1a150513          	addi	a0,a0,417 # 101a1 <.Lline_table_start0+0x101a1>
   12944:	09c000ef          	jal	ra,129e0 <printf>
   12948:	10410593          	addi	a1,sp,260
   1294c:	00010537          	lui	a0,0x10
   12950:	18e50513          	addi	a0,a0,398 # 1018e <.Lline_table_start0+0x1018e>
   12954:	08c000ef          	jal	ra,129e0 <printf>
   12958:	14510593          	addi	a1,sp,325
   1295c:	00010537          	lui	a0,0x10
   12960:	1b450513          	addi	a0,a0,436 # 101b4 <.Lline_table_start0+0x101b4>
   12964:	07c000ef          	jal	ra,129e0 <printf>
   12968:	00000513          	li	a0,0
   1296c:	18813083          	ld	ra,392(sp)
   12970:	19010113          	addi	sp,sp,400
   12974:	00008067          	ret

0000000000012978 <uname>:
   12978:	ff010113          	addi	sp,sp,-16
   1297c:	00113423          	sd	ra,8(sp)
   12980:	0a000893          	li	a7,160
   12984:	00000073          	ecall
   12988:	014000ef          	jal	ra,1299c <__syscall_ret>
   1298c:	0005051b          	sext.w	a0,a0
   12990:	00813083          	ld	ra,8(sp)
   12994:	01010113          	addi	sp,sp,16
   12998:	00008067          	ret

000000000001299c <__syscall_ret>:
   1299c:	fffff5b7          	lui	a1,0xfffff
   129a0:	0015859b          	addiw	a1,a1,1 # fffffffffffff001 <__global_pointer$+0xfffffffffffe4139>
   129a4:	02b56663          	bltu	a0,a1,129d0 <.LBB0_2>
   129a8:	ff010113          	addi	sp,sp,-16
   129ac:	00113423          	sd	ra,8(sp)
   129b0:	00813023          	sd	s0,0(sp)
   129b4:	40a0043b          	negw	s0,a0
   129b8:	01c000ef          	jal	ra,129d4 <__errno_location>
   129bc:	00852023          	sw	s0,0(a0)
   129c0:	fff00513          	li	a0,-1
   129c4:	00813083          	ld	ra,8(sp)
   129c8:	00013403          	ld	s0,0(sp)
   129cc:	01010113          	addi	sp,sp,16

00000000000129d0 <.LBB0_2>:
   129d0:	00008067          	ret

00000000000129d4 <__errno_location>:
   129d4:	00020513          	mv	a0,tp
   129d8:	f5c50513          	addi	a0,a0,-164
   129dc:	00008067          	ret

00000000000129e0 <printf>:
   129e0:	fb010113          	addi	sp,sp,-80
   129e4:	00113423          	sd	ra,8(sp)
   129e8:	00050293          	mv	t0,a0
   129ec:	05113423          	sd	a7,72(sp)
   129f0:	05013023          	sd	a6,64(sp)
   129f4:	02f13c23          	sd	a5,56(sp)
   129f8:	02e13823          	sd	a4,48(sp)
   129fc:	02d13423          	sd	a3,40(sp)
   12a00:	02c13023          	sd	a2,32(sp)
   12a04:	00b13c23          	sd	a1,24(sp)
   12a08:	01810513          	addi	a0,sp,24
   12a0c:	00a13023          	sd	a0,0(sp)
   12a10:	0001a537          	lui	a0,0x1a
   12a14:	6f050513          	addi	a0,a0,1776 # 1a6f0 <__stdout_FILE>
   12a18:	01810613          	addi	a2,sp,24
   12a1c:	00028593          	mv	a1,t0
   12a20:	210000ef          	jal	ra,12c30 <vfprintf>
   12a24:	00813083          	ld	ra,8(sp)
   12a28:	05010113          	addi	sp,sp,80
   12a2c:	00008067          	ret

0000000000012a30 <__aio_close>:
   12a30:	00008067          	ret

0000000000012a34 <__stdio_close>:
   12a34:	ff010113          	addi	sp,sp,-16
   12a38:	00113423          	sd	ra,8(sp)
   12a3c:	07852503          	lw	a0,120(a0)
   12a40:	ff1ff0ef          	jal	ra,12a30 <__aio_close>
   12a44:	03900893          	li	a7,57
   12a48:	00000073          	ecall
   12a4c:	f51ff0ef          	jal	ra,1299c <__syscall_ret>
   12a50:	0005051b          	sext.w	a0,a0
   12a54:	00813083          	ld	ra,8(sp)
   12a58:	01010113          	addi	sp,sp,16
   12a5c:	00008067          	ret

0000000000012a60 <__stdout_write>:
   12a60:	ff010113          	addi	sp,sp,-16
   12a64:	00113423          	sd	ra,8(sp)
   12a68:	00050693          	mv	a3,a0
   12a6c:	00054503          	lbu	a0,0(a0)
   12a70:	00060713          	mv	a4,a2
   12a74:	00058793          	mv	a5,a1
   12a78:	000135b7          	lui	a1,0x13
   12a7c:	acc58593          	addi	a1,a1,-1332 # 12acc <__stdio_write>
   12a80:	04057513          	andi	a0,a0,64
   12a84:	04b6b423          	sd	a1,72(a3)
   12a88:	02051463          	bnez	a0,12ab0 <.LBB0_3>
   12a8c:	0786a503          	lw	a0,120(a3)
   12a90:	000055b7          	lui	a1,0x5
   12a94:	4135859b          	addiw	a1,a1,1043 # 5413 <.Lline_table_start0+0x5413>
   12a98:	01d00893          	li	a7,29
   12a9c:	00010613          	mv	a2,sp
   12aa0:	00000073          	ecall
   12aa4:	00050663          	beqz	a0,12ab0 <.LBB0_3>
   12aa8:	fff00513          	li	a0,-1
   12aac:	08a6a823          	sw	a0,144(a3)

0000000000012ab0 <.LBB0_3>:
   12ab0:	00068513          	mv	a0,a3
   12ab4:	00078593          	mv	a1,a5
   12ab8:	00070613          	mv	a2,a4
   12abc:	010000ef          	jal	ra,12acc <__stdio_write>
   12ac0:	00813083          	ld	ra,8(sp)
   12ac4:	01010113          	addi	sp,sp,16
   12ac8:	00008067          	ret

0000000000012acc <__stdio_write>:
   12acc:	fa010113          	addi	sp,sp,-96
   12ad0:	04113c23          	sd	ra,88(sp)
   12ad4:	04813823          	sd	s0,80(sp)
   12ad8:	04913423          	sd	s1,72(sp)
   12adc:	05213023          	sd	s2,64(sp)
   12ae0:	03313c23          	sd	s3,56(sp)
   12ae4:	03413823          	sd	s4,48(sp)
   12ae8:	03513423          	sd	s5,40(sp)
   12aec:	00050493          	mv	s1,a0
   12af0:	03853503          	ld	a0,56(a0)
   12af4:	00a13423          	sd	a0,8(sp)
   12af8:	0284b683          	ld	a3,40(s1)
   12afc:	00060413          	mv	s0,a2
   12b00:	40a686b3          	sub	a3,a3,a0
   12b04:	00d13823          	sd	a3,16(sp)
   12b08:	00b13c23          	sd	a1,24(sp)
   12b0c:	02c13023          	sd	a2,32(sp)
   12b10:	00c68a33          	add	s4,a3,a2
   12b14:	0784a503          	lw	a0,120(s1)
   12b18:	00810a93          	addi	s5,sp,8
   12b1c:	00200913          	li	s2,2
   12b20:	04200893          	li	a7,66
   12b24:	00810593          	addi	a1,sp,8
   12b28:	00200613          	li	a2,2
   12b2c:	00000073          	ecall
   12b30:	e6dff0ef          	jal	ra,1299c <__syscall_ret>
   12b34:	06aa0c63          	beq	s4,a0,12bac <.LBB0_5>

0000000000012b38 <.LBB0_1>:
   12b38:	0a054a63          	bltz	a0,12bec <.LBB0_7>
   12b3c:	008ab703          	ld	a4,8(s5)
   12b40:	00a73633          	sltu	a2,a4,a0
   12b44:	00461993          	slli	s3,a2,0x4
   12b48:	013a89b3          	add	s3,s5,s3
   12b4c:	0009b683          	ld	a3,0(s3)
   12b50:	40c005b3          	neg	a1,a2
   12b54:	00e5f5b3          	and	a1,a1,a4
   12b58:	40b505b3          	sub	a1,a0,a1
   12b5c:	00b686b3          	add	a3,a3,a1
   12b60:	00d9b023          	sd	a3,0(s3)
   12b64:	01800693          	li	a3,24
   12b68:	00a76463          	bltu	a4,a0,12b70 <.LBB0_4>
   12b6c:	00800693          	li	a3,8

0000000000012b70 <.LBB0_4>:
   12b70:	00da86b3          	add	a3,s5,a3
   12b74:	0006b703          	ld	a4,0(a3)
   12b78:	40b70733          	sub	a4,a4,a1
   12b7c:	00e6b023          	sd	a4,0(a3)
   12b80:	0784a583          	lw	a1,120(s1)
   12b84:	40aa0a33          	sub	s4,s4,a0
   12b88:	40c9093b          	subw	s2,s2,a2
   12b8c:	04200893          	li	a7,66
   12b90:	00058513          	mv	a0,a1
   12b94:	00098593          	mv	a1,s3
   12b98:	00090613          	mv	a2,s2
   12b9c:	00000073          	ecall
   12ba0:	dfdff0ef          	jal	ra,1299c <__syscall_ret>
   12ba4:	00098a93          	mv	s5,s3
   12ba8:	f8aa18e3          	bne	s4,a0,12b38 <.LBB0_1>

0000000000012bac <.LBB0_5>:
   12bac:	0584b503          	ld	a0,88(s1)
   12bb0:	0604b583          	ld	a1,96(s1)
   12bb4:	00b505b3          	add	a1,a0,a1
   12bb8:	02b4b023          	sd	a1,32(s1)
   12bbc:	02a4bc23          	sd	a0,56(s1)
   12bc0:	02a4b423          	sd	a0,40(s1)
   12bc4:	00040513          	mv	a0,s0

0000000000012bc8 <.LBB0_6>:
   12bc8:	05813083          	ld	ra,88(sp)
   12bcc:	05013403          	ld	s0,80(sp)
   12bd0:	04813483          	ld	s1,72(sp)
   12bd4:	04013903          	ld	s2,64(sp)
   12bd8:	03813983          	ld	s3,56(sp)
   12bdc:	03013a03          	ld	s4,48(sp)
   12be0:	02813a83          	ld	s5,40(sp)
   12be4:	06010113          	addi	sp,sp,96
   12be8:	00008067          	ret

0000000000012bec <.LBB0_7>:
   12bec:	0004a583          	lw	a1,0(s1)
   12bf0:	00000513          	li	a0,0
   12bf4:	0204b023          	sd	zero,32(s1)
   12bf8:	0204bc23          	sd	zero,56(s1)
   12bfc:	0205e593          	ori	a1,a1,32
   12c00:	00b4a023          	sw	a1,0(s1)
   12c04:	00200593          	li	a1,2
   12c08:	0204b423          	sd	zero,40(s1)
   12c0c:	fab90ee3          	beq	s2,a1,12bc8 <.LBB0_6>
   12c10:	008ab503          	ld	a0,8(s5)
   12c14:	40a40533          	sub	a0,s0,a0
   12c18:	fb1ff06f          	j	12bc8 <.LBB0_6>

0000000000012c1c <__stdio_seek>:
   12c1c:	07852503          	lw	a0,120(a0)
   12c20:	0040006f          	j	12c24 <lseek>

0000000000012c24 <lseek>:
   12c24:	03e00893          	li	a7,62
   12c28:	00000073          	ecall
   12c2c:	d71ff06f          	j	1299c <__syscall_ret>

0000000000012c30 <vfprintf>:
   12c30:	ea010113          	addi	sp,sp,-352
   12c34:	14113c23          	sd	ra,344(sp)
   12c38:	14813823          	sd	s0,336(sp)
   12c3c:	14913423          	sd	s1,328(sp)
   12c40:	15213023          	sd	s2,320(sp)
   12c44:	13313c23          	sd	s3,312(sp)
   12c48:	13413823          	sd	s4,304(sp)
   12c4c:	13513423          	sd	s5,296(sp)
   12c50:	00058913          	mv	s2,a1
   12c54:	00050413          	mv	s0,a0
   12c58:	12c13023          	sd	a2,288(sp)
   12c5c:	0f010513          	addi	a0,sp,240
   12c60:	02800613          	li	a2,40
   12c64:	00000593          	li	a1,0
   12c68:	b35ff0ef          	jal	ra,1279c <memset>
   12c6c:	12013503          	ld	a0,288(sp)
   12c70:	10a13c23          	sd	a0,280(sp)
   12c74:	11810613          	addi	a2,sp,280
   12c78:	05010693          	addi	a3,sp,80
   12c7c:	0f010713          	addi	a4,sp,240
   12c80:	00000513          	li	a0,0
   12c84:	00090593          	mv	a1,s2
   12c88:	134000ef          	jal	ra,12dbc <printf_core>
   12c8c:	00054e63          	bltz	a0,12ca8 <.LBB0_3>
   12c90:	08c42503          	lw	a0,140(s0)
   12c94:	00054e63          	bltz	a0,12cb0 <.LBB0_4>
   12c98:	00040513          	mv	a0,s0
   12c9c:	210020ef          	jal	ra,14eac <__lockfile>
   12ca0:	00050493          	mv	s1,a0
   12ca4:	0100006f          	j	12cb4 <.LBB0_5>

0000000000012ca8 <.LBB0_3>:
   12ca8:	fff00913          	li	s2,-1
   12cac:	0e80006f          	j	12d94 <.LBB0_16>

0000000000012cb0 <.LBB0_4>:
   12cb0:	00000493          	li	s1,0

0000000000012cb4 <.LBB0_5>:
   12cb4:	08842503          	lw	a0,136(s0)
   12cb8:	00046a03          	lwu	s4,0(s0)
   12cbc:	00a04663          	bgtz	a0,12cc8 <.LBB0_7>
   12cc0:	fdfa7513          	andi	a0,s4,-33
   12cc4:	00a42023          	sw	a0,0(s0)

0000000000012cc8 <.LBB0_7>:
   12cc8:	06043503          	ld	a0,96(s0)
   12ccc:	00050a63          	beqz	a0,12ce0 <.LBB0_9>
   12cd0:	02043503          	ld	a0,32(s0)
   12cd4:	00000a93          	li	s5,0
   12cd8:	02051c63          	bnez	a0,12d10 <.LBB0_11>
   12cdc:	0240006f          	j	12d00 <.LBB0_10>

0000000000012ce0 <.LBB0_9>:
   12ce0:	05843a83          	ld	s5,88(s0)
   12ce4:	00010513          	mv	a0,sp
   12ce8:	04a43c23          	sd	a0,88(s0)
   12cec:	05000513          	li	a0,80
   12cf0:	06a43023          	sd	a0,96(s0)
   12cf4:	02043023          	sd	zero,32(s0)
   12cf8:	02043c23          	sd	zero,56(s0)
   12cfc:	02043423          	sd	zero,40(s0)

0000000000012d00 <.LBB0_10>:
   12d00:	00040513          	mv	a0,s0
   12d04:	2a0020ef          	jal	ra,14fa4 <__towrite>
   12d08:	fff00993          	li	s3,-1
   12d0c:	02051063          	bnez	a0,12d2c <.LBB0_12>

0000000000012d10 <.LBB0_11>:
   12d10:	11810613          	addi	a2,sp,280
   12d14:	05010693          	addi	a3,sp,80
   12d18:	0f010713          	addi	a4,sp,240
   12d1c:	00040513          	mv	a0,s0
   12d20:	00090593          	mv	a1,s2
   12d24:	098000ef          	jal	ra,12dbc <printf_core>
   12d28:	00050993          	mv	s3,a0

0000000000012d2c <.LBB0_12>:
   12d2c:	020a7a13          	andi	s4,s4,32
   12d30:	020a8e63          	beqz	s5,12d6c <.LBB0_14>
   12d34:	04843683          	ld	a3,72(s0)
   12d38:	00040513          	mv	a0,s0
   12d3c:	00000593          	li	a1,0
   12d40:	00000613          	li	a2,0
   12d44:	000680e7          	jalr	a3
   12d48:	02843503          	ld	a0,40(s0)
   12d4c:	00a03533          	snez	a0,a0
   12d50:	fff50513          	addi	a0,a0,-1
   12d54:	013569b3          	or	s3,a0,s3
   12d58:	05543c23          	sd	s5,88(s0)
   12d5c:	06043023          	sd	zero,96(s0)
   12d60:	02043023          	sd	zero,32(s0)
   12d64:	02043c23          	sd	zero,56(s0)
   12d68:	02043423          	sd	zero,40(s0)

0000000000012d6c <.LBB0_14>:
   12d6c:	00042503          	lw	a0,0(s0)
   12d70:	02057593          	andi	a1,a0,32
   12d74:	0015b593          	seqz	a1,a1
   12d78:	fff58593          	addi	a1,a1,-1
   12d7c:	0135e933          	or	s2,a1,s3
   12d80:	01456533          	or	a0,a0,s4
   12d84:	00a42023          	sw	a0,0(s0)
   12d88:	00048663          	beqz	s1,12d94 <.LBB0_16>
   12d8c:	00040513          	mv	a0,s0
   12d90:	1c4020ef          	jal	ra,14f54 <__unlockfile>

0000000000012d94 <.LBB0_16>:
   12d94:	00090513          	mv	a0,s2
   12d98:	15813083          	ld	ra,344(sp)
   12d9c:	15013403          	ld	s0,336(sp)
   12da0:	14813483          	ld	s1,328(sp)
   12da4:	14013903          	ld	s2,320(sp)
   12da8:	13813983          	ld	s3,312(sp)
   12dac:	13013a03          	ld	s4,304(sp)
   12db0:	12813a83          	ld	s5,296(sp)
   12db4:	16010113          	addi	sp,sp,352
   12db8:	00008067          	ret

0000000000012dbc <printf_core>:
   12dbc:	81010113          	addi	sp,sp,-2032
   12dc0:	7e113423          	sd	ra,2024(sp)
   12dc4:	7e813023          	sd	s0,2016(sp)
   12dc8:	7c913c23          	sd	s1,2008(sp)
   12dcc:	7d213823          	sd	s2,2000(sp)
   12dd0:	7d313423          	sd	s3,1992(sp)
   12dd4:	7d413023          	sd	s4,1984(sp)
   12dd8:	7b513c23          	sd	s5,1976(sp)
   12ddc:	7b613823          	sd	s6,1968(sp)
   12de0:	7b713423          	sd	s7,1960(sp)
   12de4:	7b813023          	sd	s8,1952(sp)
   12de8:	79913c23          	sd	s9,1944(sp)
   12dec:	79a13823          	sd	s10,1936(sp)
   12df0:	79b13423          	sd	s11,1928(sp)
   12df4:	000017b7          	lui	a5,0x1
   12df8:	7707879b          	addiw	a5,a5,1904 # 1770 <.Lline_table_start0+0x1770>
   12dfc:	40f10133          	sub	sp,sp,a5
   12e00:	16e13023          	sd	a4,352(sp)
   12e04:	16d13423          	sd	a3,360(sp)
   12e08:	16c13823          	sd	a2,368(sp)
   12e0c:	00058d93          	mv	s11,a1
   12e10:	00050993          	mv	s3,a0
   12e14:	18013823          	sd	zero,400(sp)
   12e18:	00000a13          	li	s4,0
   12e1c:	00000a93          	li	s5,0
   12e20:	20710593          	addi	a1,sp,519
   12e24:	ffe00513          	li	a0,-2
   12e28:	40b50533          	sub	a0,a0,a1
   12e2c:	0ea13423          	sd	a0,232(sp)
   12e30:	ffff0537          	lui	a0,0xffff0
   12e34:	ffc5051b          	addiw	a0,a0,-4 # fffffffffffefffc <__global_pointer$+0xfffffffffffd5134>
   12e38:	23010593          	addi	a1,sp,560
   12e3c:	00a58533          	add	a0,a1,a0
   12e40:	0aa13023          	sd	a0,160(sp)
   12e44:	00013537          	lui	a0,0x13
   12e48:	8895051b          	addiw	a0,a0,-1911 # 12889 <memset+0xed>
   12e4c:	14a13c23          	sd	a0,344(sp)
   12e50:	0cccd537          	lui	a0,0xcccd
   12e54:	ccc5051b          	addiw	a0,a0,-820 # ccccccc <__global_pointer$+0xccb1e04>
   12e58:	18a13423          	sd	a0,392(sp)
   12e5c:	00010537          	lui	a0,0x10
   12e60:	38850513          	addi	a0,a0,904 # 10388 <states>
   12e64:	16a13c23          	sd	a0,376(sp)
   12e68:	0401b537          	lui	a0,0x401b
   12e6c:	02451513          	slli	a0,a0,0x24
   12e70:	0ca13c23          	sd	a0,216(sp)
   12e74:	00010537          	lui	a0,0x10
   12e78:	55850513          	addi	a0,a0,1368 # 10558 <xdigits>
   12e7c:	14a13823          	sd	a0,336(sp)
   12e80:	04003537          	lui	a0,0x4003
   12e84:	02451513          	slli	a0,a0,0x24
   12e88:	18a13023          	sd	a0,384(sp)
   12e8c:	00402537          	lui	a0,0x402
   12e90:	cdd5051b          	addiw	a0,a0,-803 # 401cdd <__global_pointer$+0x3e6e15>
   12e94:	00c51513          	slli	a0,a0,0xc
   12e98:	d6550513          	addi	a0,a0,-667
   12e9c:	01c51513          	slli	a0,a0,0x1c
   12ea0:	0ea13c23          	sd	a0,248(sp)
   12ea4:	40700513          	li	a0,1031
   12ea8:	03451513          	slli	a0,a0,0x34
   12eac:	0aa13c23          	sd	a0,184(sp)
   12eb0:	07fff537          	lui	a0,0x7fff
   12eb4:	02351513          	slli	a0,a0,0x23
   12eb8:	0aa13823          	sd	a0,176(sp)
   12ebc:	03fff537          	lui	a0,0x3fff
   12ec0:	02451513          	slli	a0,a0,0x24
   12ec4:	0ca13023          	sd	a0,192(sp)
   12ec8:	01fff537          	lui	a0,0x1fff
   12ecc:	02551513          	slli	a0,a0,0x25
   12ed0:	0aa13423          	sd	a0,168(sp)
   12ed4:	ccccd537          	lui	a0,0xccccd
   12ed8:	ccd5051b          	addiw	a0,a0,-819 # ffffffffcccccccd <__global_pointer$+0xffffffffcccb1e05>
   12edc:	08a13c23          	sd	a0,152(sp)
   12ee0:	1999a537          	lui	a0,0x1999a
   12ee4:	9995051b          	addiw	a0,a0,-1639 # 19999999 <__global_pointer$+0x1997ead1>
   12ee8:	08a13823          	sd	a0,144(sp)
   12eec:	00010537          	lui	a0,0x10
   12ef0:	1f750513          	addi	a0,a0,503 # 101f7 <.Lline_table_start0+0x101f7>
   12ef4:	0ea13823          	sd	a0,240(sp)
   12ef8:	00010537          	lui	a0,0x10
   12efc:	18a50513          	addi	a0,a0,394 # 1018a <.Lline_table_start0+0x1018a>
   12f00:	10a13823          	sd	a0,272(sp)
   12f04:	00010537          	lui	a0,0x10
   12f08:	26050513          	addi	a0,a0,608 # 10260 <errid+0x59>
   12f0c:	12a13023          	sd	a0,288(sp)
   12f10:	00010537          	lui	a0,0x10
   12f14:	18550513          	addi	a0,a0,389 # 10185 <.Lline_table_start0+0x10185>
   12f18:	10a13423          	sd	a0,264(sp)
   12f1c:	00010537          	lui	a0,0x10
   12f20:	20350513          	addi	a0,a0,515 # 10203 <.Lline_table_start0+0x10203>
   12f24:	10a13c23          	sd	a0,280(sp)
   12f28:	00010537          	lui	a0,0x10
   12f2c:	28850513          	addi	a0,a0,648 # 10288 <.LJTI1_0>
   12f30:	14a13023          	sd	a0,320(sp)
   12f34:	00010537          	lui	a0,0x10
   12f38:	32050513          	addi	a0,a0,800 # 10320 <.LJTI1_1>
   12f3c:	0ca13423          	sd	a0,200(sp)
   12f40:	00010537          	lui	a0,0x10
   12f44:	16b50513          	addi	a0,a0,363 # 1016b <.Lline_table_start0+0x1016b>
   12f48:	0ca13823          	sd	a0,208(sp)
   12f4c:	80000437          	lui	s0,0x80000
   12f50:	fff4041b          	addiw	s0,s0,-1 # 7fffffff <__global_pointer$+0x7ffe5137>
   12f54:	40b00533          	neg	a0,a1
   12f58:	10a13023          	sd	a0,256(sp)
   12f5c:	00010537          	lui	a0,0x10
   12f60:	1e450513          	addi	a0,a0,484 # 101e4 <.Lline_table_start0+0x101e4>
   12f64:	12a13823          	sd	a0,304(sp)
   12f68:	00350513          	addi	a0,a0,3
   12f6c:	0ea13023          	sd	a0,224(sp)
   12f70:	fff00513          	li	a0,-1
   12f74:	03f51513          	slli	a0,a0,0x3f
   12f78:	12a13c23          	sd	a0,312(sp)
   12f7c:	3b9ad537          	lui	a0,0x3b9ad
   12f80:	a005051b          	addiw	a0,a0,-1536 # 3b9aca00 <__global_pointer$+0x3b991b38>
   12f84:	14a13423          	sd	a0,328(sp)
   12f88:	00010537          	lui	a0,0x10
   12f8c:	1da50513          	addi	a0,a0,474 # 101da <.Lline_table_start0+0x101da>
   12f90:	12a13423          	sd	a0,296(sp)
   12f94:	02500d13          	li	s10,37

0000000000012f98 <.LBB1_1>:
   12f98:	00900c93          	li	s9,9

0000000000012f9c <.LBB1_2>:
   12f9c:	4144053b          	subw	a0,s0,s4
   12fa0:	000a859b          	sext.w	a1,s5
   12fa4:	00b55463          	bge	a0,a1,12fac <.LBB1_3>
   12fa8:	4590106f          	j	14c00 <.LBB1_394>

0000000000012fac <.LBB1_3>:
   12fac:	000d8493          	mv	s1,s11
   12fb0:	000dc503          	lbu	a0,0(s11)
   12fb4:	014a8a3b          	addw	s4,s5,s4
   12fb8:	00051463          	bnez	a0,12fc0 <.LBB1_4>
   12fbc:	4a10106f          	j	14c5c <.LBB1_398>

0000000000012fc0 <.LBB1_4>:
   12fc0:	00048d93          	mv	s11,s1

0000000000012fc4 <.LBB1_5>:
   12fc4:	0ff57513          	zext.b	a0,a0
   12fc8:	00050a63          	beqz	a0,12fdc <.LBB1_8>
   12fcc:	01a50c63          	beq	a0,s10,12fe4 <.LBB1_9>
   12fd0:	001dc503          	lbu	a0,1(s11)
   12fd4:	001d8d93          	addi	s11,s11,1
   12fd8:	fedff06f          	j	12fc4 <.LBB1_5>

0000000000012fdc <.LBB1_8>:
   12fdc:	000d8513          	mv	a0,s11
   12fe0:	0300006f          	j	13010 <.LBB1_13>

0000000000012fe4 <.LBB1_9>:
   12fe4:	000d8513          	mv	a0,s11
   12fe8:	000d8593          	mv	a1,s11

0000000000012fec <.LBB1_10>:
   12fec:	0015c603          	lbu	a2,1(a1)
   12ff0:	01a61e63          	bne	a2,s10,1300c <.LBB1_12>
   12ff4:	0025c603          	lbu	a2,2(a1)
   12ff8:	00258d93          	addi	s11,a1,2
   12ffc:	00150513          	addi	a0,a0,1
   13000:	000d8593          	mv	a1,s11
   13004:	ffa604e3          	beq	a2,s10,12fec <.LBB1_10>
   13008:	0080006f          	j	13010 <.LBB1_13>

000000000001300c <.LBB1_12>:
   1300c:	00058d93          	mv	s11,a1

0000000000013010 <.LBB1_13>:
   13010:	40950ab3          	sub	s5,a0,s1
   13014:	41440bbb          	subw	s7,s0,s4
   13018:	020b9513          	slli	a0,s7,0x20
   1301c:	02055513          	srli	a0,a0,0x20
   13020:	01555463          	bge	a0,s5,13028 <.LBB1_14>
   13024:	3dd0106f          	j	14c00 <.LBB1_394>

0000000000013028 <.LBB1_14>:
   13028:	000a891b          	sext.w	s2,s5
   1302c:	02098063          	beqz	s3,1304c <.LBB1_17>
   13030:	0009c503          	lbu	a0,0(s3)
   13034:	02057513          	andi	a0,a0,32
   13038:	00051a63          	bnez	a0,1304c <.LBB1_17>
   1303c:	00048513          	mv	a0,s1
   13040:	00090593          	mv	a1,s2
   13044:	00098613          	mv	a2,s3
   13048:	1ec020ef          	jal	ra,15234 <__fwritex>

000000000001304c <.LBB1_17>:
   1304c:	f40918e3          	bnez	s2,12f9c <.LBB1_2>
   13050:	001dc503          	lbu	a0,1(s11)
   13054:	001d8b13          	addi	s6,s11,1
   13058:	fd050593          	addi	a1,a0,-48
   1305c:	fff00713          	li	a4,-1
   13060:	02bce263          	bltu	s9,a1,13084 <.LBB1_21>
   13064:	002dc603          	lbu	a2,2(s11)
   13068:	02400693          	li	a3,36
   1306c:	00d61c63          	bne	a2,a3,13084 <.LBB1_21>
   13070:	003dc503          	lbu	a0,3(s11)
   13074:	003d8b13          	addi	s6,s11,3
   13078:	00100613          	li	a2,1
   1307c:	18c13823          	sd	a2,400(sp)
   13080:	00058713          	mv	a4,a1

0000000000013084 <.LBB1_21>:
   13084:	fe050593          	addi	a1,a0,-32
   13088:	01f00613          	li	a2,31
   1308c:	06e13823          	sd	a4,112(sp)
   13090:	04b66a63          	bltu	a2,a1,130e4 <.LBB1_26>
   13094:	00100793          	li	a5,1
   13098:	00b795bb          	sllw	a1,a5,a1
   1309c:	15813703          	ld	a4,344(sp)
   130a0:	00e5f633          	and	a2,a1,a4
   130a4:	18813903          	ld	s2,392(sp)
   130a8:	02000813          	li	a6,32
   130ac:	00a00d93          	li	s11,10
   130b0:	00000a93          	li	s5,0
   130b4:	02060e63          	beqz	a2,130f0 <.LBB1_27>
   130b8:	001b0613          	addi	a2,s6,1

00000000000130bc <.LBB1_24>:
   130bc:	00060b13          	mv	s6,a2
   130c0:	00064503          	lbu	a0,0(a2)
   130c4:	fe050613          	addi	a2,a0,-32
   130c8:	0155eab3          	or	s5,a1,s5
   130cc:	03067263          	bgeu	a2,a6,130f0 <.LBB1_27>
   130d0:	00c795bb          	sllw	a1,a5,a2
   130d4:	00e5f6b3          	and	a3,a1,a4
   130d8:	001b0613          	addi	a2,s6,1
   130dc:	fe0690e3          	bnez	a3,130bc <.LBB1_24>
   130e0:	0100006f          	j	130f0 <.LBB1_27>

00000000000130e4 <.LBB1_26>:
   130e4:	00000a93          	li	s5,0
   130e8:	18813903          	ld	s2,392(sp)
   130ec:	00a00d93          	li	s11,10

00000000000130f0 <.LBB1_27>:
   130f0:	02a00593          	li	a1,42
   130f4:	04b51c63          	bne	a0,a1,1314c <.LBB1_31>
   130f8:	001b4503          	lbu	a0,1(s6)
   130fc:	fd050513          	addi	a0,a0,-48
   13100:	0cace063          	bltu	s9,a0,131c0 <.LBB1_37>
   13104:	002b4583          	lbu	a1,2(s6)
   13108:	02400613          	li	a2,36
   1310c:	0ac59a63          	bne	a1,a2,131c0 <.LBB1_37>
   13110:	02051513          	slli	a0,a0,0x20
   13114:	01e55513          	srli	a0,a0,0x1e
   13118:	16013583          	ld	a1,352(sp)
   1311c:	00a58533          	add	a0,a1,a0
   13120:	01b52023          	sw	s11,0(a0)
   13124:	001b4503          	lbu	a0,1(s6)
   13128:	00451513          	slli	a0,a0,0x4
   1312c:	16813583          	ld	a1,360(sp)
   13130:	00b50533          	add	a0,a0,a1
   13134:	d0052603          	lw	a2,-768(a0)
   13138:	003b0b13          	addi	s6,s6,3
   1313c:	00100513          	li	a0,1
   13140:	18a13823          	sd	a0,400(sp)
   13144:	0c065263          	bgez	a2,13208 <.LBB1_43>
   13148:	0a80006f          	j	131f0 <.LBB1_40>

000000000001314c <.LBB1_31>:
   1314c:	fd050c13          	addi	s8,a0,-48
   13150:	0b8cea63          	bltu	s9,s8,13204 <.LBB1_42>
   13154:	00000613          	li	a2,0
   13158:	000b0c93          	mv	s9,s6

000000000001315c <.LBB1_33>:
   1315c:	0006051b          	sext.w	a0,a2
   13160:	00a97e63          	bgeu	s2,a0,1317c <.LBB1_35>
   13164:	001cc503          	lbu	a0,1(s9)
   13168:	001c8c93          	addi	s9,s9,1
   1316c:	fd050c13          	addi	s8,a0,-48
   13170:	fff00613          	li	a2,-1
   13174:	ffbc64e3          	bltu	s8,s11,1315c <.LBB1_33>
   13178:	2890106f          	j	14c00 <.LBB1_394>

000000000001317c <.LBB1_35>:
   1317c:	00a00593          	li	a1,10
   13180:	00060513          	mv	a0,a2
   13184:	f50ff0ef          	jal	ra,128d4 <__muldi3>
   13188:	40a405bb          	subw	a1,s0,a0
   1318c:	000c061b          	sext.w	a2,s8
   13190:	00c5b5b3          	sltu	a1,a1,a2
   13194:	001cc603          	lbu	a2,1(s9)
   13198:	0185053b          	addw	a0,a0,s8
   1319c:	40b005b3          	neg	a1,a1
   131a0:	001c8b13          	addi	s6,s9,1
   131a4:	fd060c13          	addi	s8,a2,-48
   131a8:	00a5e633          	or	a2,a1,a0
   131ac:	000b0c93          	mv	s9,s6
   131b0:	fbbc66e3          	bltu	s8,s11,1315c <.LBB1_33>
   131b4:	00900c93          	li	s9,9
   131b8:	04065863          	bgez	a2,13208 <.LBB1_43>
   131bc:	2450106f          	j	14c00 <.LBB1_394>

00000000000131c0 <.LBB1_37>:
   131c0:	19013503          	ld	a0,400(sp)
   131c4:	00050463          	beqz	a0,131cc <.LBB1_38>
   131c8:	3190106f          	j	14ce0 <.LBB1_409>

00000000000131cc <.LBB1_38>:
   131cc:	001b0b13          	addi	s6,s6,1
   131d0:	02098863          	beqz	s3,13200 <.LBB1_41>
   131d4:	17013603          	ld	a2,368(sp)
   131d8:	00063503          	ld	a0,0(a2)
   131dc:	00850593          	addi	a1,a0,8
   131e0:	00b63023          	sd	a1,0(a2)
   131e4:	00052603          	lw	a2,0(a0)
   131e8:	18013823          	sd	zero,400(sp)
   131ec:	00065e63          	bgez	a2,13208 <.LBB1_43>

00000000000131f0 <.LBB1_40>:
   131f0:	00002537          	lui	a0,0x2
   131f4:	00aaeab3          	or	s5,s5,a0
   131f8:	40c0063b          	negw	a2,a2
   131fc:	00c0006f          	j	13208 <.LBB1_43>

0000000000013200 <.LBB1_41>:
   13200:	18013823          	sd	zero,400(sp)

0000000000013204 <.LBB1_42>:
   13204:	00000613          	li	a2,0

0000000000013208 <.LBB1_43>:
   13208:	06c13c23          	sd	a2,120(sp)
   1320c:	000b4503          	lbu	a0,0(s6)
   13210:	02e00593          	li	a1,46
   13214:	09513423          	sd	s5,136(sp)
   13218:	04b51c63          	bne	a0,a1,13270 <.LBB1_48>
   1321c:	001b4503          	lbu	a0,1(s6)
   13220:	02a00593          	li	a1,42
   13224:	04b51e63          	bne	a0,a1,13280 <.LBB1_49>
   13228:	002b4503          	lbu	a0,2(s6)
   1322c:	fd050513          	addi	a0,a0,-48 # 1fd0 <.Lline_table_start0+0x1fd0>
   13230:	0aacea63          	bltu	s9,a0,132e4 <.LBB1_55>
   13234:	003b4583          	lbu	a1,3(s6)
   13238:	02400613          	li	a2,36
   1323c:	0ac59463          	bne	a1,a2,132e4 <.LBB1_55>
   13240:	02051513          	slli	a0,a0,0x20
   13244:	01e55513          	srli	a0,a0,0x1e
   13248:	16013583          	ld	a1,352(sp)
   1324c:	00a58533          	add	a0,a1,a0
   13250:	01b52023          	sw	s11,0(a0)
   13254:	002b4503          	lbu	a0,2(s6)
   13258:	00451513          	slli	a0,a0,0x4
   1325c:	16813583          	ld	a1,360(sp)
   13260:	00b50533          	add	a0,a0,a1
   13264:	d0052503          	lw	a0,-768(a0)
   13268:	004b0b13          	addi	s6,s6,4
   1326c:	0b00006f          	j	1331c <.LBB1_60>

0000000000013270 <.LBB1_48>:
   13270:	00000a93          	li	s5,0
   13274:	fff00513          	li	a0,-1
   13278:	08a13023          	sd	a0,128(sp)
   1327c:	0ac0006f          	j	13328 <.LBB1_61>

0000000000013280 <.LBB1_49>:
   13280:	001b0b13          	addi	s6,s6,1
   13284:	fd050c13          	addi	s8,a0,-48
   13288:	00100a93          	li	s5,1
   1328c:	098ce263          	bltu	s9,s8,13310 <.LBB1_58>
   13290:	00000513          	li	a0,0

0000000000013294 <.LBB1_51>:
   13294:	0005059b          	sext.w	a1,a0
   13298:	fff00613          	li	a2,-1
   1329c:	02b96263          	bltu	s2,a1,132c0 <.LBB1_53>
   132a0:	00a00593          	li	a1,10
   132a4:	e30ff0ef          	jal	ra,128d4 <__muldi3>
   132a8:	40a405bb          	subw	a1,s0,a0
   132ac:	000c061b          	sext.w	a2,s8
   132b0:	00c5b5b3          	sltu	a1,a1,a2
   132b4:	0185053b          	addw	a0,a0,s8
   132b8:	40b005b3          	neg	a1,a1
   132bc:	00a5e633          	or	a2,a1,a0

00000000000132c0 <.LBB1_53>:
   132c0:	001b4503          	lbu	a0,1(s6)
   132c4:	001b0593          	addi	a1,s6,1
   132c8:	fd050c13          	addi	s8,a0,-48
   132cc:	00060513          	mv	a0,a2
   132d0:	00058b13          	mv	s6,a1
   132d4:	fdbc60e3          	bltu	s8,s11,13294 <.LBB1_51>
   132d8:	08c13023          	sd	a2,128(sp)
   132dc:	00058b13          	mv	s6,a1
   132e0:	0480006f          	j	13328 <.LBB1_61>

00000000000132e4 <.LBB1_55>:
   132e4:	19013503          	ld	a0,400(sp)
   132e8:	00050463          	beqz	a0,132f0 <.LBB1_56>
   132ec:	1f50106f          	j	14ce0 <.LBB1_409>

00000000000132f0 <.LBB1_56>:
   132f0:	002b0b13          	addi	s6,s6,2
   132f4:	02098263          	beqz	s3,13318 <.LBB1_59>
   132f8:	17013603          	ld	a2,368(sp)
   132fc:	00063503          	ld	a0,0(a2)
   13300:	00850593          	addi	a1,a0,8
   13304:	00b63023          	sd	a1,0(a2)
   13308:	00052503          	lw	a0,0(a0)
   1330c:	0100006f          	j	1331c <.LBB1_60>

0000000000013310 <.LBB1_58>:
   13310:	08013023          	sd	zero,128(sp)
   13314:	0140006f          	j	13328 <.LBB1_61>

0000000000013318 <.LBB1_59>:
   13318:	00000513          	li	a0,0

000000000001331c <.LBB1_60>:
   1331c:	08a13023          	sd	a0,128(sp)
   13320:	00052513          	slti	a0,a0,0
   13324:	00154a93          	xori	s5,a0,1

0000000000013328 <.LBB1_61>:
   13328:	00000593          	li	a1,0
   1332c:	000b0d93          	mv	s11,s6
   13330:	17813b03          	ld	s6,376(sp)

0000000000013334 <.LBB1_62>:
   13334:	000dc903          	lbu	s2,0(s11)
   13338:	00058c13          	mv	s8,a1
   1333c:	f8590513          	addi	a0,s2,-123
   13340:	01600c93          	li	s9,22
   13344:	fc600593          	li	a1,-58
   13348:	00b57463          	bgeu	a0,a1,13350 <.LBB1_63>
   1334c:	0b90106f          	j	14c04 <.LBB1_395>

0000000000013350 <.LBB1_63>:
   13350:	020c1513          	slli	a0,s8,0x20
   13354:	02055513          	srli	a0,a0,0x20
   13358:	001d8d93          	addi	s11,s11,1
   1335c:	03a00593          	li	a1,58
   13360:	d74ff0ef          	jal	ra,128d4 <__muldi3>
   13364:	00ab0533          	add	a0,s6,a0
   13368:	00a90533          	add	a0,s2,a0
   1336c:	fbf54583          	lbu	a1,-65(a0)
   13370:	fff58513          	addi	a0,a1,-1
   13374:	00800613          	li	a2,8
   13378:	fac56ee3          	bltu	a0,a2,13334 <.LBB1_62>
   1337c:	07513423          	sd	s5,104(sp)
   13380:	01b00513          	li	a0,27
   13384:	04a58463          	beq	a1,a0,133cc <.LBB1_68>
   13388:	07013a83          	ld	s5,112(sp)
   1338c:	00059463          	bnez	a1,13394 <.LBB1_66>
   13390:	0750106f          	j	14c04 <.LBB1_395>

0000000000013394 <.LBB1_66>:
   13394:	040aca63          	bltz	s5,133e8 <.LBB1_70>
   13398:	002a9513          	slli	a0,s5,0x2
   1339c:	16013603          	ld	a2,352(sp)
   133a0:	00a60533          	add	a0,a2,a0
   133a4:	07813603          	ld	a2,120(sp)
   133a8:	00b52023          	sw	a1,0(a0)
   133ac:	004a9a93          	slli	s5,s5,0x4
   133b0:	16813503          	ld	a0,360(sp)
   133b4:	01550ab3          	add	s5,a0,s5
   133b8:	008ab503          	ld	a0,8(s5)
   133bc:	1ea13423          	sd	a0,488(sp)
   133c0:	000ab503          	ld	a0,0(s5)
   133c4:	1ea13023          	sd	a0,480(sp)
   133c8:	0140006f          	j	133dc <.LBB1_69>

00000000000133cc <.LBB1_68>:
   133cc:	07813603          	ld	a2,120(sp)
   133d0:	07013503          	ld	a0,112(sp)
   133d4:	00054463          	bltz	a0,133dc <.LBB1_69>
   133d8:	02d0106f          	j	14c04 <.LBB1_395>

00000000000133dc <.LBB1_69>:
   133dc:	00000a93          	li	s5,0
   133e0:	02099063          	bnez	s3,13400 <.LBB1_72>
   133e4:	bb5ff06f          	j	12f98 <.LBB1_1>

00000000000133e8 <.LBB1_70>:
   133e8:	00099463          	bnez	s3,133f0 <.LBB1_71>
   133ec:	0c10106f          	j	14cac <.LBB1_404>

00000000000133f0 <.LBB1_71>:
   133f0:	1e010513          	addi	a0,sp,480
   133f4:	17013603          	ld	a2,368(sp)
   133f8:	0f1010ef          	jal	ra,14ce8 <pop_arg>
   133fc:	07813603          	ld	a2,120(sp)

0000000000013400 <.LBB1_72>:
   13400:	fffdc903          	lbu	s2,-1(s11)
   13404:	01803533          	snez	a0,s8
   13408:	00f97593          	andi	a1,s2,15
   1340c:	ffd58593          	addi	a1,a1,-3
   13410:	0015b593          	seqz	a1,a1
   13414:	00b57533          	and	a0,a0,a1
   13418:	00050463          	beqz	a0,13420 <.LBB1_74>
   1341c:	0df97913          	andi	s2,s2,223

0000000000013420 <.LBB1_74>:
   13420:	08013c83          	ld	s9,128(sp)
   13424:	06813803          	ld	a6,104(sp)
   13428:	ffff0537          	lui	a0,0xffff0
   1342c:	fff5089b          	addiw	a7,a0,-1 # fffffffffffeffff <__global_pointer$+0xfffffffffffd5137>
   13430:	08813583          	ld	a1,136(sp)
   13434:	03259513          	slli	a0,a1,0x32
   13438:	0115fb33          	and	s6,a1,a7
   1343c:	00055463          	bgez	a0,13444 <.LBB1_76>
   13440:	09613423          	sd	s6,136(sp)

0000000000013444 <.LBB1_76>:
   13444:	05200513          	li	a0,82
   13448:	05255863          	bge	a0,s2,13498 <.LBB1_82>
   1344c:	fad90513          	addi	a0,s2,-83
   13450:	3aad6c63          	bltu	s10,a0,13808 <.LBB1_136>
   13454:	00251513          	slli	a0,a0,0x2
   13458:	14013583          	ld	a1,320(sp)
   1345c:	00b50533          	add	a0,a0,a1
   13460:	00052503          	lw	a0,0(a0)
   13464:	00050067          	jr	a0

0000000000013468 <.LBB1_79>:
   13468:	1e013a83          	ld	s5,480(sp)
   1346c:	3c0ac863          	bltz	s5,1383c <.LBB1_138>
   13470:	08813903          	ld	s2,136(sp)
   13474:	03491593          	slli	a1,s2,0x34
   13478:	00010537          	lui	a0,0x10
   1347c:	1da50513          	addi	a0,a0,474 # 101da <.Lline_table_start0+0x101da>
   13480:	2005cce3          	bltz	a1,13e98 <.LBB1_215>
   13484:	00197713          	andi	a4,s2,1
   13488:	00171593          	slli	a1,a4,0x1
   1348c:	00b50533          	add	a0,a0,a1
   13490:	08a13023          	sd	a0,128(sp)
   13494:	2110006f          	j	13ea4 <.LBB1_216>

0000000000013498 <.LBB1_82>:
   13498:	fbb90513          	addi	a0,s2,-69
   1349c:	00300593          	li	a1,3
   134a0:	02b56863          	bltu	a0,a1,134d0 <.LBB1_86>
   134a4:	04100513          	li	a0,65
   134a8:	02a90463          	beq	s2,a0,134d0 <.LBB1_86>
   134ac:	04300513          	li	a0,67
   134b0:	34a91c63          	bne	s2,a0,13808 <.LBB1_136>
   134b4:	1e013503          	ld	a0,480(sp)
   134b8:	1aa12023          	sw	a0,416(sp)
   134bc:	1a012223          	sw	zero,420(sp)
   134c0:	1a010a93          	addi	s5,sp,416
   134c4:	1f513023          	sd	s5,480(sp)
   134c8:	fff00b13          	li	s6,-1
   134cc:	0a80006f          	j	13574 <.LBB1_95>

00000000000134d0 <.LBB1_86>:
   134d0:	01003533          	snez	a0,a6
   134d4:	000c861b          	sext.w	a2,s9
   134d8:	00062593          	slti	a1,a2,0
   134dc:	00b57533          	and	a0,a0,a1
   134e0:	00050463          	beqz	a0,134e8 <.LBB1_87>
   134e4:	71c0106f          	j	14c00 <.LBB1_394>

00000000000134e8 <.LBB1_87>:
   134e8:	06c13823          	sd	a2,112(sp)
   134ec:	1e813483          	ld	s1,488(sp)
   134f0:	1e013a83          	ld	s5,480(sp)
   134f4:	22012623          	sw	zero,556(sp)
   134f8:	000a8513          	mv	a0,s5
   134fc:	00048593          	mv	a1,s1
   13500:	115020ef          	jal	ra,15e14 <__signbitl>
   13504:	02050263          	beqz	a0,13528 <.LBB1_89>
   13508:	02013c23          	sd	zero,56(sp)
   1350c:	13813503          	ld	a0,312(sp)
   13510:	00a4c4b3          	xor	s1,s1,a0
   13514:	00100513          	li	a0,1
   13518:	04a13423          	sd	a0,72(sp)
   1351c:	13013b83          	ld	s7,304(sp)
   13520:	18013c03          	ld	s8,384(sp)
   13524:	34c0006f          	j	13870 <.LBB1_141>

0000000000013528 <.LBB1_89>:
   13528:	08813583          	ld	a1,136(sp)
   1352c:	03459513          	slli	a0,a1,0x34
   13530:	18013c03          	ld	s8,384(sp)
   13534:	02054063          	bltz	a0,13554 <.LBB1_92>
   13538:	0015f593          	andi	a1,a1,1
   1353c:	00010537          	lui	a0,0x10
   13540:	1e450513          	addi	a0,a0,484 # 101e4 <.Lline_table_start0+0x101e4>
   13544:	04b13423          	sd	a1,72(sp)
   13548:	30058c63          	beqz	a1,13860 <.LBB1_139>
   1354c:	00650b93          	addi	s7,a0,6
   13550:	3140006f          	j	13864 <.LBB1_140>

0000000000013554 <.LBB1_92>:
   13554:	02013c23          	sd	zero,56(sp)
   13558:	00100513          	li	a0,1
   1355c:	04a13423          	sd	a0,72(sp)
   13560:	0e013b83          	ld	s7,224(sp)
   13564:	30c0006f          	j	13870 <.LBB1_141>

0000000000013568 <.LBB1_93>:
   13568:	000c8b1b          	sext.w	s6,s9
   1356c:	580b0ce3          	beqz	s6,14304 <.LBB1_263>
   13570:	1e013a83          	ld	s5,480(sp)

0000000000013574 <.LBB1_95>:
   13574:	00000493          	li	s1,0
   13578:	000a8913          	mv	s2,s5

000000000001357c <.LBB1_96>:
   1357c:	00092583          	lw	a1,0(s2)
   13580:	02058663          	beqz	a1,135ac <.LBB1_100>
   13584:	19c10513          	addi	a0,sp,412
   13588:	095020ef          	jal	ra,15e1c <wctomb>
   1358c:	00055463          	bgez	a0,13594 <.LBB1_98>
   13590:	67c0106f          	j	14c0c <.LBB1_396>

0000000000013594 <.LBB1_98>:
   13594:	409b05b3          	sub	a1,s6,s1
   13598:	07813603          	ld	a2,120(sp)
   1359c:	00a5e863          	bltu	a1,a0,135ac <.LBB1_100>
   135a0:	00a484b3          	add	s1,s1,a0
   135a4:	00490913          	addi	s2,s2,4
   135a8:	fd64eae3          	bltu	s1,s6,1357c <.LBB1_96>

00000000000135ac <.LBB1_100>:
   135ac:	01f4d513          	srli	a0,s1,0x1f
   135b0:	04b00c93          	li	s9,75
   135b4:	00050463          	beqz	a0,135bc <.LBB1_101>
   135b8:	64c0106f          	j	14c04 <.LBB1_395>

00000000000135bc <.LBB1_101>:
   135bc:	0006061b          	sext.w	a2,a2
   135c0:	0004869b          	sext.w	a3,s1
   135c4:	02000593          	li	a1,32
   135c8:	00098513          	mv	a0,s3
   135cc:	08813903          	ld	s2,136(sp)
   135d0:	00090713          	mv	a4,s2
   135d4:	029010ef          	jal	ra,14dfc <pad>
   135d8:	0a048ce3          	beqz	s1,13e90 <.LBB1_214>
   135dc:	00000b13          	li	s6,0
   135e0:	07813603          	ld	a2,120(sp)

00000000000135e4 <.LBB1_103>:
   135e4:	000aa583          	lw	a1,0(s5)
   135e8:	540580e3          	beqz	a1,14328 <.LBB1_264>
   135ec:	19c10513          	addi	a0,sp,412
   135f0:	02d020ef          	jal	ra,15e1c <wctomb>
   135f4:	00ab0b33          	add	s6,s6,a0
   135f8:	0964ece3          	bltu	s1,s6,13e90 <.LBB1_214>
   135fc:	00050593          	mv	a1,a0
   13600:	0009c503          	lbu	a0,0(s3)
   13604:	02057513          	andi	a0,a0,32
   13608:	00051863          	bnez	a0,13618 <.LBB1_107>
   1360c:	19c10513          	addi	a0,sp,412
   13610:	00098613          	mv	a2,s3
   13614:	421010ef          	jal	ra,15234 <__fwritex>

0000000000013618 <.LBB1_107>:
   13618:	004a8a93          	addi	s5,s5,4
   1361c:	07813603          	ld	a2,120(sp)
   13620:	fc9b62e3          	bltu	s6,s1,135e4 <.LBB1_103>
   13624:	5050006f          	j	14328 <.LBB1_264>

0000000000013628 <.LBB1_108>:
   13628:	1e013503          	ld	a0,480(sp)
   1362c:	00000713          	li	a4,0
   13630:	1ca10fa3          	sb	a0,479(sp)
   13634:	00100c93          	li	s9,1
   13638:	1e010513          	addi	a0,sp,480
   1363c:	1df10493          	addi	s1,sp,479
   13640:	000b0913          	mv	s2,s6
   13644:	12813583          	ld	a1,296(sp)
   13648:	08b13023          	sd	a1,128(sp)
   1364c:	1190006f          	j	13f64 <.LBB1_231>

0000000000013650 <.LBB1_109>:
   13650:	b84ff0ef          	jal	ra,129d4 <__errno_location>
   13654:	00052503          	lw	a0,0(a0)
   13658:	171020ef          	jal	ra,15fc8 <strerror>
   1365c:	1480006f          	j	137a4 <.LBB1_129>

0000000000013660 <.LBB1_110>:
   13660:	0ffc7513          	zext.b	a0,s8
   13664:	00000a93          	li	s5,0
   13668:	00700593          	li	a1,7
   1366c:	92a5e6e3          	bltu	a1,a0,12f98 <.LBB1_1>
   13670:	00251513          	slli	a0,a0,0x2
   13674:	0c813583          	ld	a1,200(sp)
   13678:	00b50533          	add	a0,a0,a1
   1367c:	00052503          	lw	a0,0(a0)
   13680:	00050067          	jr	a0

0000000000013684 <.LBB1_112>:
   13684:	1e013503          	ld	a0,480(sp)
   13688:	00000a93          	li	s5,0
   1368c:	01453023          	sd	s4,0(a0)
   13690:	909ff06f          	j	12f98 <.LBB1_1>

0000000000013694 <.LBB1_113>:
   13694:	1e013503          	ld	a0,480(sp)
   13698:	1e010493          	addi	s1,sp,480
   1369c:	00700713          	li	a4,7
   136a0:	02050663          	beqz	a0,136cc <.LBB1_116>
   136a4:	1e010593          	addi	a1,sp,480
   136a8:	00050613          	mv	a2,a0

00000000000136ac <.LBB1_115>:
   136ac:	00060693          	mv	a3,a2
   136b0:	00767613          	andi	a2,a2,7
   136b4:	03060613          	addi	a2,a2,48
   136b8:	fff58493          	addi	s1,a1,-1
   136bc:	fec58fa3          	sb	a2,-1(a1)
   136c0:	0036d613          	srli	a2,a3,0x3
   136c4:	00048593          	mv	a1,s1
   136c8:	fed762e3          	bltu	a4,a3,136ac <.LBB1_115>

00000000000136cc <.LBB1_116>:
   136cc:	08813903          	ld	s2,136(sp)
   136d0:	00897593          	andi	a1,s2,8
   136d4:	00010637          	lui	a2,0x10
   136d8:	1da60613          	addi	a2,a2,474 # 101da <.Lline_table_start0+0x101da>
   136dc:	08c13023          	sd	a2,128(sp)
   136e0:	08058e63          	beqz	a1,1377c <.LBB1_126>
   136e4:	000c861b          	sext.w	a2,s9
   136e8:	1e010593          	addi	a1,sp,480
   136ec:	409585b3          	sub	a1,a1,s1
   136f0:	08c5c663          	blt	a1,a2,1377c <.LBB1_126>
   136f4:	00000713          	li	a4,0
   136f8:	00158c9b          	addiw	s9,a1,1
   136fc:	0150006f          	j	13f10 <.LBB1_222>

0000000000013700 <.LBB1_119>:
   13700:	000c8c9b          	sext.w	s9,s9
   13704:	01000513          	li	a0,16
   13708:	01956463          	bltu	a0,s9,13710 <.LBB1_121>
   1370c:	01000c93          	li	s9,16

0000000000013710 <.LBB1_121>:
   13710:	08813503          	ld	a0,136(sp)
   13714:	00856513          	ori	a0,a0,8
   13718:	08a13423          	sd	a0,136(sp)
   1371c:	07800913          	li	s2,120

0000000000013720 <.LBB1_122>:
   13720:	1e013583          	ld	a1,480(sp)
   13724:	00010537          	lui	a0,0x10
   13728:	1da50513          	addi	a0,a0,474 # 101da <.Lline_table_start0+0x101da>
   1372c:	08a13023          	sd	a0,128(sp)
   13730:	04058a63          	beqz	a1,13784 <.LBB1_127>
   13734:	00090793          	mv	a5,s2
   13738:	02097513          	andi	a0,s2,32
   1373c:	1e010493          	addi	s1,sp,480
   13740:	15013683          	ld	a3,336(sp)
   13744:	00f00713          	li	a4,15

0000000000013748 <.LBB1_124>:
   13748:	00058613          	mv	a2,a1
   1374c:	00f5f593          	andi	a1,a1,15
   13750:	00b685b3          	add	a1,a3,a1
   13754:	00058583          	lb	a1,0(a1)
   13758:	00a5e5b3          	or	a1,a1,a0
   1375c:	feb48fa3          	sb	a1,-1(s1)
   13760:	fff48493          	addi	s1,s1,-1
   13764:	00465593          	srli	a1,a2,0x4
   13768:	fec760e3          	bltu	a4,a2,13748 <.LBB1_124>
   1376c:	08813903          	ld	s2,136(sp)
   13770:	00897593          	andi	a1,s2,8
   13774:	00100513          	li	a0,1
   13778:	0a059463          	bnez	a1,13820 <.LBB1_137>

000000000001377c <.LBB1_126>:
   1377c:	00000713          	li	a4,0
   13780:	7900006f          	j	13f10 <.LBB1_222>

0000000000013784 <.LBB1_127>:
   13784:	00000513          	li	a0,0
   13788:	00000713          	li	a4,0
   1378c:	1e010493          	addi	s1,sp,480
   13790:	08813903          	ld	s2,136(sp)
   13794:	77c0006f          	j	13f10 <.LBB1_222>

0000000000013798 <.LBB1_128>:
   13798:	1e013503          	ld	a0,480(sp)
   1379c:	0d013483          	ld	s1,208(sp)
   137a0:	00050463          	beqz	a0,137a8 <.LBB1_130>

00000000000137a4 <.LBB1_129>:
   137a4:	00050493          	mv	s1,a0

00000000000137a8 <.LBB1_130>:
   137a8:	000c891b          	sext.w	s2,s9
   137ac:	00090593          	mv	a1,s2
   137b0:	00896463          	bltu	s2,s0,137b8 <.LBB1_132>
   137b4:	00040593          	mv	a1,s0

00000000000137b8 <.LBB1_132>:
   137b8:	00048513          	mv	a0,s1
   137bc:	031020ef          	jal	ra,15fec <strnlen>
   137c0:	00050c93          	mv	s9,a0
   137c4:	00a48533          	add	a0,s1,a0
   137c8:	00095863          	bgez	s2,137d8 <.LBB1_134>
   137cc:	00054583          	lbu	a1,0(a0)
   137d0:	00058463          	beqz	a1,137d8 <.LBB1_134>
   137d4:	42c0106f          	j	14c00 <.LBB1_394>

00000000000137d8 <.LBB1_134>:
   137d8:	00000713          	li	a4,0
   137dc:	000b0913          	mv	s2,s6
   137e0:	12813583          	ld	a1,296(sp)
   137e4:	08b13023          	sd	a1,128(sp)
   137e8:	7780006f          	j	13f60 <.LBB1_230>

00000000000137ec <.LBB1_135>:
   137ec:	1e013a83          	ld	s5,480(sp)
   137f0:	00000713          	li	a4,0
   137f4:	00010537          	lui	a0,0x10
   137f8:	1da50513          	addi	a0,a0,474 # 101da <.Lline_table_start0+0x101da>
   137fc:	08a13023          	sd	a0,128(sp)
   13800:	08813903          	ld	s2,136(sp)
   13804:	6a00006f          	j	13ea4 <.LBB1_216>

0000000000013808 <.LBB1_136>:
   13808:	00000713          	li	a4,0
   1380c:	1e010513          	addi	a0,sp,480
   13810:	12813583          	ld	a1,296(sp)
   13814:	08b13023          	sd	a1,128(sp)
   13818:	08813903          	ld	s2,136(sp)
   1381c:	7480006f          	j	13f64 <.LBB1_231>

0000000000013820 <.LBB1_137>:
   13820:	0047d593          	srli	a1,a5,0x4
   13824:	00010637          	lui	a2,0x10
   13828:	1da60613          	addi	a2,a2,474 # 101da <.Lline_table_start0+0x101da>
   1382c:	00b605b3          	add	a1,a2,a1
   13830:	08b13023          	sd	a1,128(sp)
   13834:	00200713          	li	a4,2
   13838:	6d80006f          	j	13f10 <.LBB1_222>

000000000001383c <.LBB1_138>:
   1383c:	07113823          	sd	a7,112(sp)
   13840:	41500ab3          	neg	s5,s5
   13844:	1f513023          	sd	s5,480(sp)
   13848:	00010537          	lui	a0,0x10
   1384c:	1da50513          	addi	a0,a0,474 # 101da <.Lline_table_start0+0x101da>
   13850:	08a13023          	sd	a0,128(sp)
   13854:	00100513          	li	a0,1
   13858:	06a13023          	sd	a0,96(sp)
   1385c:	6540006f          	j	13eb0 <.LBB1_218>

0000000000013860 <.LBB1_139>:
   13860:	00150b93          	addi	s7,a0,1

0000000000013864 <.LBB1_140>:
   13864:	04813503          	ld	a0,72(sp)
   13868:	00153513          	seqz	a0,a0
   1386c:	02a13c23          	sd	a0,56(sp)

0000000000013870 <.LBB1_141>:
   13870:	000a8513          	mv	a0,s5
   13874:	00048593          	mv	a1,s1
   13878:	0bd020ef          	jal	ra,16134 <__fpclassifyl>
   1387c:	00100593          	li	a1,1
   13880:	08a5da63          	bge	a1,a0,13914 <.LBB1_147>
   13884:	22c10613          	addi	a2,sp,556
   13888:	000a8513          	mv	a0,s5
   1388c:	00048593          	mv	a1,s1
   13890:	0e9020ef          	jal	ra,16178 <frexpl>
   13894:	00050613          	mv	a2,a0
   13898:	00058693          	mv	a3,a1
   1389c:	0fc040ef          	jal	ra,17998 <__addtf3>
   138a0:	00050493          	mv	s1,a0
   138a4:	00058a93          	mv	s5,a1
   138a8:	00000613          	li	a2,0
   138ac:	00000693          	li	a3,0
   138b0:	1a1020ef          	jal	ra,16250 <__cmptf2>
   138b4:	05213023          	sd	s2,64(sp)
   138b8:	12050063          	beqz	a0,139d8 <.LBB1_157>
   138bc:	00090593          	mv	a1,s2
   138c0:	22c12903          	lw	s2,556(sp)
   138c4:	fff9051b          	addiw	a0,s2,-1
   138c8:	0205e613          	ori	a2,a1,32
   138cc:	22a12623          	sw	a0,556(sp)
   138d0:	06100513          	li	a0,97
   138d4:	04c13c23          	sd	a2,88(sp)
   138d8:	10a60a63          	beq	a2,a0,139ec <.LBB1_158>
   138dc:	07013503          	ld	a0,112(sp)
   138e0:	00055463          	bgez	a0,138e8 <.LBB1_146>
   138e4:	00600c93          	li	s9,6

00000000000138e8 <.LBB1_146>:
   138e8:	03713023          	sd	s7,32(sp)
   138ec:	00048513          	mv	a0,s1
   138f0:	000a8593          	mv	a1,s5
   138f4:	00000613          	li	a2,0
   138f8:	0d813683          	ld	a3,216(sp)
   138fc:	755020ef          	jal	ra,16850 <__multf3>
   13900:	00050493          	mv	s1,a0
   13904:	00058a93          	mv	s5,a1
   13908:	fe390c1b          	addiw	s8,s2,-29
   1390c:	23812623          	sw	s8,556(sp)
   13910:	1940006f          	j	13aa4 <.LBB1_167>

0000000000013914 <.LBB1_147>:
   13914:	000b8c93          	mv	s9,s7
   13918:	02097913          	andi	s2,s2,32
   1391c:	000a8513          	mv	a0,s5
   13920:	00048593          	mv	a1,s1
   13924:	000a8613          	mv	a2,s5
   13928:	00048693          	mv	a3,s1
   1392c:	61d020ef          	jal	ra,16748 <__unordtf2>
   13930:	12013583          	ld	a1,288(sp)
   13934:	11813483          	ld	s1,280(sp)
   13938:	00090663          	beqz	s2,13944 <.LBB1_149>
   1393c:	11013583          	ld	a1,272(sp)
   13940:	10813483          	ld	s1,264(sp)

0000000000013944 <.LBB1_149>:
   13944:	08813b83          	ld	s7,136(sp)
   13948:	07813903          	ld	s2,120(sp)
   1394c:	04813c03          	ld	s8,72(sp)
   13950:	00051463          	bnez	a0,13958 <.LBB1_151>
   13954:	00058493          	mv	s1,a1

0000000000013958 <.LBB1_151>:
   13958:	003c0a93          	addi	s5,s8,3
   1395c:	0009091b          	sext.w	s2,s2
   13960:	02000593          	li	a1,32
   13964:	00098513          	mv	a0,s3
   13968:	00090613          	mv	a2,s2
   1396c:	000a8693          	mv	a3,s5
   13970:	000b0713          	mv	a4,s6
   13974:	488010ef          	jal	ra,14dfc <pad>
   13978:	0009e503          	lwu	a0,0(s3)
   1397c:	02057593          	andi	a1,a0,32
   13980:	00059c63          	bnez	a1,13998 <.LBB1_153>
   13984:	000c8513          	mv	a0,s9
   13988:	000c0593          	mv	a1,s8
   1398c:	00098613          	mv	a2,s3
   13990:	0a5010ef          	jal	ra,15234 <__fwritex>
   13994:	0009a503          	lw	a0,0(s3)

0000000000013998 <.LBB1_153>:
   13998:	02057513          	andi	a0,a0,32
   1399c:	00051a63          	bnez	a0,139b0 <.LBB1_155>
   139a0:	00300593          	li	a1,3
   139a4:	00048513          	mv	a0,s1
   139a8:	00098613          	mv	a2,s3
   139ac:	089010ef          	jal	ra,15234 <__fwritex>

00000000000139b0 <.LBB1_155>:
   139b0:	00002537          	lui	a0,0x2
   139b4:	00abc733          	xor	a4,s7,a0
   139b8:	02000593          	li	a1,32
   139bc:	00098513          	mv	a0,s3
   139c0:	00090613          	mv	a2,s2
   139c4:	000a8693          	mv	a3,s5
   139c8:	434010ef          	jal	ra,14dfc <pad>
   139cc:	dd594663          	blt	s2,s5,12f98 <.LBB1_1>
   139d0:	00090a93          	mv	s5,s2
   139d4:	dc4ff06f          	j	12f98 <.LBB1_1>

00000000000139d8 <.LBB1_157>:
   139d8:	02096613          	ori	a2,s2,32
   139dc:	06100513          	li	a0,97
   139e0:	00090593          	mv	a1,s2
   139e4:	04c13c23          	sd	a2,88(sp)
   139e8:	0aa61463          	bne	a2,a0,13a90 <.LBB1_164>

00000000000139ec <.LBB1_158>:
   139ec:	03a59513          	slli	a0,a1,0x3a
   139f0:	43f55513          	srai	a0,a0,0x3f
   139f4:	00957513          	andi	a0,a0,9
   139f8:	00ab8533          	add	a0,s7,a0
   139fc:	02a13c23          	sd	a0,56(sp)
   13a00:	01a00513          	li	a0,26
   13a04:	07013583          	ld	a1,112(sp)
   13a08:	00b57663          	bgeu	a0,a1,13a14 <.LBB1_160>
   13a0c:	20710913          	addi	s2,sp,519
   13a10:	6640006f          	j	14074 <.LBB1_243>

0000000000013a14 <.LBB1_160>:
   13a14:	00000b93          	li	s7,0
   13a18:	fe5c891b          	addiw	s2,s9,-27
   13a1c:	000c0b13          	mv	s6,s8

0000000000013a20 <.LBB1_161>:
   13a20:	000b8513          	mv	a0,s7
   13a24:	000b0593          	mv	a1,s6
   13a28:	00000613          	li	a2,0
   13a2c:	000c0693          	mv	a3,s8
   13a30:	621020ef          	jal	ra,16850 <__multf3>
   13a34:	0019091b          	addiw	s2,s2,1
   13a38:	00050b93          	mv	s7,a0
   13a3c:	00058b13          	mv	s6,a1
   13a40:	fe0910e3          	bnez	s2,13a20 <.LBB1_161>
   13a44:	03813503          	ld	a0,56(sp)
   13a48:	00054503          	lbu	a0,0(a0) # 2000 <.Lline_table_start0+0x2000>
   13a4c:	20710913          	addi	s2,sp,519
   13a50:	02d00593          	li	a1,45
   13a54:	5eb51c63          	bne	a0,a1,1404c <.LBB1_242>
   13a58:	13813c03          	ld	s8,312(sp)
   13a5c:	018ac5b3          	xor	a1,s5,s8
   13a60:	00048513          	mv	a0,s1
   13a64:	000b8613          	mv	a2,s7
   13a68:	000b0693          	mv	a3,s6
   13a6c:	4f9040ef          	jal	ra,18764 <__subtf3>
   13a70:	00050613          	mv	a2,a0
   13a74:	00058693          	mv	a3,a1
   13a78:	000b8513          	mv	a0,s7
   13a7c:	000b0593          	mv	a1,s6
   13a80:	719030ef          	jal	ra,17998 <__addtf3>
   13a84:	00050493          	mv	s1,a0
   13a88:	0185cab3          	xor	s5,a1,s8
   13a8c:	5e80006f          	j	14074 <.LBB1_243>

0000000000013a90 <.LBB1_164>:
   13a90:	07013503          	ld	a0,112(sp)
   13a94:	00055463          	bgez	a0,13a9c <.LBB1_166>
   13a98:	00600c93          	li	s9,6

0000000000013a9c <.LBB1_166>:
   13a9c:	03713023          	sd	s7,32(sp)
   13aa0:	22c12c03          	lw	s8,556(sp)

0000000000013aa4 <.LBB1_167>:
   13aa4:	20710913          	addi	s2,sp,519
   13aa8:	0f813b03          	ld	s6,248(sp)
   13aac:	000c2513          	slti	a0,s8,0
   13ab0:	fff5051b          	addiw	a0,a0,-1
   13ab4:	6c057513          	andi	a0,a0,1728
   13ab8:	00251b93          	slli	s7,a0,0x2
   13abc:	23010513          	addi	a0,sp,560
   13ac0:	03713423          	sd	s7,40(sp)
   13ac4:	01750bb3          	add	s7,a0,s7
   13ac8:	07713823          	sd	s7,112(sp)

0000000000013acc <.LBB1_168>:
   13acc:	00048513          	mv	a0,s1
   13ad0:	000a8593          	mv	a1,s5
   13ad4:	581040ef          	jal	ra,18854 <__fixunstfsi>
   13ad8:	00aba023          	sw	a0,0(s7)
   13adc:	004b8b93          	addi	s7,s7,4
   13ae0:	74d040ef          	jal	ra,18a2c <__floatunsitf>
   13ae4:	00050613          	mv	a2,a0
   13ae8:	00058693          	mv	a3,a1
   13aec:	00048513          	mv	a0,s1
   13af0:	000a8593          	mv	a1,s5
   13af4:	471040ef          	jal	ra,18764 <__subtf3>
   13af8:	00000613          	li	a2,0
   13afc:	000b0693          	mv	a3,s6
   13b00:	551020ef          	jal	ra,16850 <__multf3>
   13b04:	00050493          	mv	s1,a0
   13b08:	00058a93          	mv	s5,a1
   13b0c:	00000613          	li	a2,0
   13b10:	00000693          	li	a3,0
   13b14:	73c020ef          	jal	ra,16250 <__cmptf2>
   13b18:	fa051ae3          	bnez	a0,13acc <.LBB1_168>
   13b1c:	03813823          	sd	s8,48(sp)
   13b20:	0d805263          	blez	s8,13be4 <.LBB1_182>
   13b24:	07013683          	ld	a3,112(sp)
   13b28:	09913023          	sd	s9,128(sp)
   13b2c:	05313823          	sd	s3,80(sp)

0000000000013b30 <.LBB1_171>:
   13b30:	01d00513          	li	a0,29
   13b34:	00ac4463          	blt	s8,a0,13b3c <.LBB1_173>
   13b38:	01d00c13          	li	s8,29

0000000000013b3c <.LBB1_173>:
   13b3c:	ffcb8b13          	addi	s6,s7,-4
   13b40:	06db6c63          	bltu	s6,a3,13bb8 <.LBB1_179>
   13b44:	00000493          	li	s1,0
   13b48:	020c1513          	slli	a0,s8,0x20
   13b4c:	02055913          	srli	s2,a0,0x20
   13b50:	14813c83          	ld	s9,328(sp)

0000000000013b54 <.LBB1_175>:
   13b54:	000b6503          	lwu	a0,0(s6)
   13b58:	01251ab3          	sll	s5,a0,s2
   13b5c:	02049493          	slli	s1,s1,0x20
   13b60:	0204d493          	srli	s1,s1,0x20
   13b64:	009a8ab3          	add	s5,s5,s1
   13b68:	000a8513          	mv	a0,s5
   13b6c:	000c8593          	mv	a1,s9
   13b70:	00068993          	mv	s3,a3
   13b74:	0c9010ef          	jal	ra,1543c <__udivdi3>
   13b78:	00050493          	mv	s1,a0
   13b7c:	000c8593          	mv	a1,s9
   13b80:	d55fe0ef          	jal	ra,128d4 <__muldi3>
   13b84:	00098693          	mv	a3,s3
   13b88:	40aa853b          	subw	a0,s5,a0
   13b8c:	00ab2023          	sw	a0,0(s6)
   13b90:	ffcb0b13          	addi	s6,s6,-4
   13b94:	fd3b70e3          	bgeu	s6,s3,13b54 <.LBB1_175>
   13b98:	0004851b          	sext.w	a0,s1
   13b9c:	00050863          	beqz	a0,13bac <.LBB1_178>
   13ba0:	ffc68513          	addi	a0,a3,-4
   13ba4:	fe96ae23          	sw	s1,-4(a3)
   13ba8:	00050693          	mv	a3,a0

0000000000013bac <.LBB1_178>:
   13bac:	20710913          	addi	s2,sp,519
   13bb0:	08013c83          	ld	s9,128(sp)
   13bb4:	05013983          	ld	s3,80(sp)

0000000000013bb8 <.LBB1_179>:
   13bb8:	000b8b13          	mv	s6,s7
   13bbc:	0176f863          	bgeu	a3,s7,13bcc <.LBB1_181>
   13bc0:	ffcb2503          	lw	a0,-4(s6)
   13bc4:	ffcb0b93          	addi	s7,s6,-4
   13bc8:	fe0508e3          	beqz	a0,13bb8 <.LBB1_179>

0000000000013bcc <.LBB1_181>:
   13bcc:	22c12503          	lw	a0,556(sp)
   13bd0:	41850c3b          	subw	s8,a0,s8
   13bd4:	23812623          	sw	s8,556(sp)
   13bd8:	000b0b93          	mv	s7,s6
   13bdc:	f5804ae3          	bgtz	s8,13b30 <.LBB1_171>
   13be0:	00c0006f          	j	13bec <.LBB1_183>

0000000000013be4 <.LBB1_182>:
   13be4:	000b8b13          	mv	s6,s7
   13be8:	07013683          	ld	a3,112(sp)

0000000000013bec <.LBB1_183>:
   13bec:	0e0c5e63          	bgez	s8,13ce8 <.LBB1_199>
   13bf0:	02dc851b          	addiw	a0,s9,45
   13bf4:	02051513          	slli	a0,a0,0x20
   13bf8:	02055513          	srli	a0,a0,0x20
   13bfc:	00900593          	li	a1,9
   13c00:	00068493          	mv	s1,a3
   13c04:	039010ef          	jal	ra,1543c <__udivdi3>
   13c08:	00048693          	mv	a3,s1
   13c0c:	00150713          	addi	a4,a0,1
   13c10:	06e13423          	sd	a4,104(sp)

0000000000013c14 <.LBB1_185>:
   13c14:	41800bbb          	negw	s7,s8
   13c18:	00900513          	li	a0,9
   13c1c:	00abc463          	blt	s7,a0,13c24 <.LBB1_187>
   13c20:	00900b93          	li	s7,9

0000000000013c24 <.LBB1_187>:
   13c24:	0766fe63          	bgeu	a3,s6,13ca0 <.LBB1_193>
   13c28:	000c8a93          	mv	s5,s9
   13c2c:	00000513          	li	a0,0
   13c30:	fff00593          	li	a1,-1
   13c34:	017595bb          	sllw	a1,a1,s7
   13c38:	fff5c913          	not	s2,a1
   13c3c:	14813583          	ld	a1,328(sp)
   13c40:	0175d4bb          	srlw	s1,a1,s7
   13c44:	00068c93          	mv	s9,a3
   13c48:	00068c13          	mv	s8,a3

0000000000013c4c <.LBB1_189>:
   13c4c:	000c2603          	lw	a2,0(s8)
   13c50:	012675b3          	and	a1,a2,s2
   13c54:	0176563b          	srlw	a2,a2,s7
   13c58:	00a60533          	add	a0,a2,a0
   13c5c:	00ac2023          	sw	a0,0(s8)
   13c60:	00058513          	mv	a0,a1
   13c64:	00048593          	mv	a1,s1
   13c68:	c6dfe0ef          	jal	ra,128d4 <__muldi3>
   13c6c:	004c0c13          	addi	s8,s8,4
   13c70:	fd6c6ee3          	bltu	s8,s6,13c4c <.LBB1_189>
   13c74:	000c8693          	mv	a3,s9
   13c78:	000ca583          	lw	a1,0(s9)
   13c7c:	0005061b          	sext.w	a2,a0
   13c80:	00060863          	beqz	a2,13c90 <.LBB1_192>
   13c84:	004b0613          	addi	a2,s6,4
   13c88:	00ab2023          	sw	a0,0(s6)
   13c8c:	00060b13          	mv	s6,a2

0000000000013c90 <.LBB1_192>:
   13c90:	20710913          	addi	s2,sp,519
   13c94:	000a8c93          	mv	s9,s5
   13c98:	06813703          	ld	a4,104(sp)
   13c9c:	0080006f          	j	13ca4 <.LBB1_194>

0000000000013ca0 <.LBB1_193>:
   13ca0:	0006a583          	lw	a1,0(a3)

0000000000013ca4 <.LBB1_194>:
   13ca4:	0015b513          	seqz	a0,a1
   13ca8:	00251513          	slli	a0,a0,0x2
   13cac:	00a686b3          	add	a3,a3,a0
   13cb0:	07013503          	ld	a0,112(sp)
   13cb4:	06600593          	li	a1,102
   13cb8:	05813603          	ld	a2,88(sp)
   13cbc:	00b60463          	beq	a2,a1,13cc4 <.LBB1_196>
   13cc0:	00068513          	mv	a0,a3

0000000000013cc4 <.LBB1_196>:
   13cc4:	40ab05b3          	sub	a1,s6,a0
   13cc8:	4025d593          	srai	a1,a1,0x2
   13ccc:	00b75663          	bge	a4,a1,13cd8 <.LBB1_198>
   13cd0:	00271b13          	slli	s6,a4,0x2
   13cd4:	01650b33          	add	s6,a0,s6

0000000000013cd8 <.LBB1_198>:
   13cd8:	22c12503          	lw	a0,556(sp)
   13cdc:	01750c3b          	addw	s8,a0,s7
   13ce0:	23812623          	sw	s8,556(sp)
   13ce4:	f20c48e3          	bltz	s8,13c14 <.LBB1_185>

0000000000013ce8 <.LBB1_199>:
   13ce8:	06d13023          	sd	a3,96(sp)
   13cec:	0566f263          	bgeu	a3,s6,13d30 <.LBB1_203>
   13cf0:	0006a483          	lw	s1,0(a3)
   13cf4:	07013503          	ld	a0,112(sp)
   13cf8:	40d50533          	sub	a0,a0,a3
   13cfc:	00255513          	srli	a0,a0,0x2
   13d00:	00351593          	slli	a1,a0,0x3
   13d04:	00a58bbb          	addw	s7,a1,a0
   13d08:	00a00513          	li	a0,10
   13d0c:	03013c03          	ld	s8,48(sp)
   13d10:	02a4e463          	bltu	s1,a0,13d38 <.LBB1_204>
   13d14:	00a00513          	li	a0,10

0000000000013d18 <.LBB1_202>:
   13d18:	00a00593          	li	a1,10
   13d1c:	bb9fe0ef          	jal	ra,128d4 <__muldi3>
   13d20:	0005059b          	sext.w	a1,a0
   13d24:	001b8b9b          	addiw	s7,s7,1
   13d28:	feb4f8e3          	bgeu	s1,a1,13d18 <.LBB1_202>
   13d2c:	00c0006f          	j	13d38 <.LBB1_204>

0000000000013d30 <.LBB1_203>:
   13d30:	00000b93          	li	s7,0
   13d34:	03013c03          	ld	s8,48(sp)

0000000000013d38 <.LBB1_204>:
   13d38:	05813583          	ld	a1,88(sp)
   13d3c:	f9a58513          	addi	a0,a1,-102
   13d40:	00153513          	seqz	a0,a0
   13d44:	fff5051b          	addiw	a0,a0,-1
   13d48:	01757533          	and	a0,a0,s7
   13d4c:	000c879b          	sext.w	a5,s9
   13d50:	f9958593          	addi	a1,a1,-103
   13d54:	0015b593          	seqz	a1,a1
   13d58:	00f03633          	snez	a2,a5
   13d5c:	00b675b3          	and	a1,a2,a1
   13d60:	40bc85bb          	subw	a1,s9,a1
   13d64:	40a5853b          	subw	a0,a1,a0
   13d68:	07013583          	ld	a1,112(sp)
   13d6c:	40bb05b3          	sub	a1,s6,a1
   13d70:	4025d613          	srai	a2,a1,0x2
   13d74:	00159593          	slli	a1,a1,0x1
   13d78:	00c585b3          	add	a1,a1,a2
   13d7c:	ff758593          	addi	a1,a1,-9
   13d80:	10b55263          	bge	a0,a1,13e84 <.LBB1_213>
   13d84:	00f13c23          	sd	a5,24(sp)
   13d88:	000245b7          	lui	a1,0x24
   13d8c:	00b50abb          	addw	s5,a0,a1
   13d90:	00900593          	li	a1,9
   13d94:	000a8513          	mv	a0,s5
   13d98:	669040ef          	jal	ra,18c00 <__divdi3>
   13d9c:	00351593          	slli	a1,a0,0x3
   13da0:	06a13423          	sd	a0,104(sp)
   13da4:	00a58533          	add	a0,a1,a0
   13da8:	40aa84bb          	subw	s1,s5,a0
   13dac:	00a00a93          	li	s5,10
   13db0:	00700513          	li	a0,7
   13db4:	02954263          	blt	a0,s1,13dd8 <.LBB1_208>
   13db8:	ff84849b          	addiw	s1,s1,-8
   13dbc:	00a00a93          	li	s5,10

0000000000013dc0 <.LBB1_207>:
   13dc0:	00a00593          	li	a1,10
   13dc4:	000a8513          	mv	a0,s5
   13dc8:	b0dfe0ef          	jal	ra,128d4 <__muldi3>
   13dcc:	0014849b          	addiw	s1,s1,1
   13dd0:	00050a93          	mv	s5,a0
   13dd4:	fe0496e3          	bnez	s1,13dc0 <.LBB1_207>

0000000000013dd8 <.LBB1_208>:
   13dd8:	41fc551b          	sraiw	a0,s8,0x1f
   13ddc:	94057513          	andi	a0,a0,-1728
   13de0:	6c150513          	addi	a0,a0,1729
   13de4:	00251c13          	slli	s8,a0,0x2
   13de8:	ffffc537          	lui	a0,0xffffc
   13dec:	06813583          	ld	a1,104(sp)
   13df0:	00a5853b          	addw	a0,a1,a0
   13df4:	00251513          	slli	a0,a0,0x2
   13df8:	23010593          	addi	a1,sp,560
   13dfc:	00a58533          	add	a0,a1,a0
   13e00:	01813823          	sd	s8,16(sp)
   13e04:	01850c33          	add	s8,a0,s8
   13e08:	000c2483          	lw	s1,0(s8)
   13e0c:	02049513          	slli	a0,s1,0x20
   13e10:	02055513          	srli	a0,a0,0x20
   13e14:	020a9593          	slli	a1,s5,0x20
   13e18:	0205d593          	srli	a1,a1,0x20
   13e1c:	620010ef          	jal	ra,1543c <__udivdi3>
   13e20:	02a13823          	sd	a0,48(sp)
   13e24:	000a8593          	mv	a1,s5
   13e28:	aadfe0ef          	jal	ra,128d4 <__muldi3>
   13e2c:	40a482bb          	subw	t0,s1,a0
   13e30:	004c0593          	addi	a1,s8,4
   13e34:	0165c5b3          	xor	a1,a1,s6
   13e38:	00b2e633          	or	a2,t0,a1
   13e3c:	60060a63          	beqz	a2,14450 <.LBB1_283>
   13e40:	00048893          	mv	a7,s1
   13e44:	03013483          	ld	s1,48(sp)
   13e48:	0014f493          	andi	s1,s1,1
   13e4c:	06013783          	ld	a5,96(sp)
   13e50:	50049663          	bnez	s1,1435c <.LBB1_266>
   13e54:	000a861b          	sext.w	a2,s5
   13e58:	14813683          	ld	a3,328(sp)
   13e5c:	00d64633          	xor	a2,a2,a3
   13e60:	00163613          	seqz	a2,a2
   13e64:	0187b6b3          	sltu	a3,a5,s8
   13e68:	00d67633          	and	a2,a2,a3
   13e6c:	00060863          	beqz	a2,13e7c <.LBB1_212>
   13e70:	ffcc4603          	lbu	a2,-4(s8)
   13e74:	00167613          	andi	a2,a2,1
   13e78:	4e061263          	bnez	a2,1435c <.LBB1_266>

0000000000013e7c <.LBB1_212>:
   13e7c:	00000493          	li	s1,0
   13e80:	4e00006f          	j	14360 <.LBB1_267>

0000000000013e84 <.LBB1_213>:
   13e84:	06013703          	ld	a4,96(sp)
   13e88:	02813583          	ld	a1,40(sp)
   13e8c:	5e00006f          	j	1446c <.LBB1_287>

0000000000013e90 <.LBB1_214>:
   13e90:	07813603          	ld	a2,120(sp)
   13e94:	4940006f          	j	14328 <.LBB1_264>

0000000000013e98 <.LBB1_215>:
   13e98:	00150513          	addi	a0,a0,1 # ffffffffffffc001 <__global_pointer$+0xfffffffffffe1139>
   13e9c:	08a13023          	sd	a0,128(sp)
   13ea0:	00100713          	li	a4,1

0000000000013ea4 <.LBB1_216>:
   13ea4:	060a8063          	beqz	s5,13f04 <.LBB1_221>
   13ea8:	06e13023          	sd	a4,96(sp)
   13eac:	07113823          	sd	a7,112(sp)

0000000000013eb0 <.LBB1_218>:
   13eb0:	00900c13          	li	s8,9
   13eb4:	1e010493          	addi	s1,sp,480

0000000000013eb8 <.LBB1_219>:
   13eb8:	00048913          	mv	s2,s1
   13ebc:	000a8b13          	mv	s6,s5
   13ec0:	00a00593          	li	a1,10
   13ec4:	000a8513          	mv	a0,s5
   13ec8:	574010ef          	jal	ra,1543c <__udivdi3>
   13ecc:	00050a93          	mv	s5,a0
   13ed0:	00a00593          	li	a1,10
   13ed4:	a01fe0ef          	jal	ra,128d4 <__muldi3>
   13ed8:	40ab053b          	subw	a0,s6,a0
   13edc:	03056513          	ori	a0,a0,48
   13ee0:	fff48493          	addi	s1,s1,-1
   13ee4:	fea90fa3          	sb	a0,-1(s2)
   13ee8:	fd6c68e3          	bltu	s8,s6,13eb8 <.LBB1_219>
   13eec:	00100513          	li	a0,1
   13ef0:	08813903          	ld	s2,136(sp)
   13ef4:	06813803          	ld	a6,104(sp)
   13ef8:	07013883          	ld	a7,112(sp)
   13efc:	06013703          	ld	a4,96(sp)
   13f00:	0100006f          	j	13f10 <.LBB1_222>

0000000000013f04 <.LBB1_221>:
   13f04:	00000513          	li	a0,0
   13f08:	1e010493          	addi	s1,sp,480
   13f0c:	06813803          	ld	a6,104(sp)

0000000000013f10 <.LBB1_222>:
   13f10:	01003633          	snez	a2,a6
   13f14:	000c859b          	sext.w	a1,s9
   13f18:	0005a693          	slti	a3,a1,0
   13f1c:	00d67633          	and	a2,a2,a3
   13f20:	4e0610e3          	bnez	a2,14c00 <.LBB1_394>
   13f24:	00080463          	beqz	a6,13f2c <.LBB1_225>
   13f28:	01197933          	and	s2,s2,a7

0000000000013f2c <.LBB1_225>:
   13f2c:	00b56633          	or	a2,a0,a1
   13f30:	02060263          	beqz	a2,13f54 <.LBB1_229>
   13f34:	00153513          	seqz	a0,a0
   13f38:	1e010613          	addi	a2,sp,480
   13f3c:	40960633          	sub	a2,a2,s1
   13f40:	00a60cb3          	add	s9,a2,a0
   13f44:	0195c463          	blt	a1,s9,13f4c <.LBB1_228>
   13f48:	00058c93          	mv	s9,a1

0000000000013f4c <.LBB1_228>:
   13f4c:	1e010513          	addi	a0,sp,480
   13f50:	0100006f          	j	13f60 <.LBB1_230>

0000000000013f54 <.LBB1_229>:
   13f54:	00000c93          	li	s9,0
   13f58:	1e010493          	addi	s1,sp,480
   13f5c:	00048513          	mv	a0,s1

0000000000013f60 <.LBB1_230>:
   13f60:	07813603          	ld	a2,120(sp)

0000000000013f64 <.LBB1_231>:
   13f64:	000c859b          	sext.w	a1,s9
   13f68:	40950533          	sub	a0,a0,s1
   13f6c:	00050b13          	mv	s6,a0
   13f70:	08a13423          	sd	a0,136(sp)
   13f74:	00a5c463          	blt	a1,a0,13f7c <.LBB1_233>
   13f78:	000c8b13          	mv	s6,s9

0000000000013f7c <.LBB1_233>:
   13f7c:	000b0b1b          	sext.w	s6,s6
   13f80:	40e4053b          	subw	a0,s0,a4
   13f84:	47654ee3          	blt	a0,s6,14c00 <.LBB1_394>
   13f88:	00eb0c3b          	addw	s8,s6,a4
   13f8c:	00060a9b          	sext.w	s5,a2
   13f90:	015c4463          	blt	s8,s5,13f98 <.LBB1_236>
   13f94:	000c0a93          	mv	s5,s8

0000000000013f98 <.LBB1_236>:
   13f98:	04b00c93          	li	s9,75
   13f9c:	475bc4e3          	blt	s7,s5,14c04 <.LBB1_395>
   13fa0:	00070b93          	mv	s7,a4
   13fa4:	02000593          	li	a1,32
   13fa8:	00098513          	mv	a0,s3
   13fac:	000a8613          	mv	a2,s5
   13fb0:	000c0693          	mv	a3,s8
   13fb4:	00090713          	mv	a4,s2
   13fb8:	645000ef          	jal	ra,14dfc <pad>
   13fbc:	0009c503          	lbu	a0,0(s3)
   13fc0:	02057513          	andi	a0,a0,32
   13fc4:	00051a63          	bnez	a0,13fd8 <.LBB1_239>
   13fc8:	08013503          	ld	a0,128(sp)
   13fcc:	000b8593          	mv	a1,s7
   13fd0:	00098613          	mv	a2,s3
   13fd4:	260010ef          	jal	ra,15234 <__fwritex>

0000000000013fd8 <.LBB1_239>:
   13fd8:	00010537          	lui	a0,0x10
   13fdc:	00a94733          	xor	a4,s2,a0
   13fe0:	03000593          	li	a1,48
   13fe4:	00098513          	mv	a0,s3
   13fe8:	000a8613          	mv	a2,s5
   13fec:	000c0693          	mv	a3,s8
   13ff0:	60d000ef          	jal	ra,14dfc <pad>
   13ff4:	08813b83          	ld	s7,136(sp)
   13ff8:	000b869b          	sext.w	a3,s7
   13ffc:	03000593          	li	a1,48
   14000:	00098513          	mv	a0,s3
   14004:	000b0613          	mv	a2,s6
   14008:	00000713          	li	a4,0
   1400c:	5f1000ef          	jal	ra,14dfc <pad>
   14010:	0009c503          	lbu	a0,0(s3)
   14014:	02057513          	andi	a0,a0,32
   14018:	00051a63          	bnez	a0,1402c <.LBB1_241>
   1401c:	00048513          	mv	a0,s1
   14020:	000b8593          	mv	a1,s7
   14024:	00098613          	mv	a2,s3
   14028:	20c010ef          	jal	ra,15234 <__fwritex>

000000000001402c <.LBB1_241>:
   1402c:	00002537          	lui	a0,0x2
   14030:	00a94733          	xor	a4,s2,a0
   14034:	02000593          	li	a1,32
   14038:	00098513          	mv	a0,s3
   1403c:	000a8613          	mv	a2,s5
   14040:	000c0693          	mv	a3,s8
   14044:	5b9000ef          	jal	ra,14dfc <pad>
   14048:	f51fe06f          	j	12f98 <.LBB1_1>

000000000001404c <.LBB1_242>:
   1404c:	00048513          	mv	a0,s1
   14050:	000a8593          	mv	a1,s5
   14054:	000b8613          	mv	a2,s7
   14058:	000b0693          	mv	a3,s6
   1405c:	13d030ef          	jal	ra,17998 <__addtf3>
   14060:	000b8613          	mv	a2,s7
   14064:	000b0693          	mv	a3,s6
   14068:	6fc040ef          	jal	ra,18764 <__subtf3>
   1406c:	00050493          	mv	s1,a0
   14070:	00058a93          	mv	s5,a1

0000000000014074 <.LBB1_243>:
   14074:	08813603          	ld	a2,136(sp)
   14078:	22c12703          	lw	a4,556(sp)
   1407c:	06070463          	beqz	a4,140e4 <.LBB1_247>
   14080:	00000c93          	li	s9,0
   14084:	41f75513          	srai	a0,a4,0x1f
   14088:	06e13423          	sd	a4,104(sp)
   1408c:	00a745b3          	xor	a1,a4,a0
   14090:	40a58b3b          	subw	s6,a1,a0
   14094:	20710513          	addi	a0,sp,519
   14098:	00900c13          	li	s8,9

000000000001409c <.LBB1_245>:
   1409c:	00050913          	mv	s2,a0
   140a0:	000b0b93          	mv	s7,s6
   140a4:	00a00593          	li	a1,10
   140a8:	000b0513          	mv	a0,s6
   140ac:	390010ef          	jal	ra,1543c <__udivdi3>
   140b0:	00050b13          	mv	s6,a0
   140b4:	00a00593          	li	a1,10
   140b8:	81dfe0ef          	jal	ra,128d4 <__muldi3>
   140bc:	40ab853b          	subw	a0,s7,a0
   140c0:	03056593          	ori	a1,a0,48
   140c4:	fff90513          	addi	a0,s2,-1
   140c8:	feb90fa3          	sb	a1,-1(s2)
   140cc:	001c8c93          	addi	s9,s9,1
   140d0:	fd7c66e3          	bltu	s8,s7,1409c <.LBB1_245>
   140d4:	20710913          	addi	s2,sp,519
   140d8:	08813603          	ld	a2,136(sp)
   140dc:	06813703          	ld	a4,104(sp)
   140e0:	000c9863          	bnez	s9,140f0 <.LBB1_248>

00000000000140e4 <.LBB1_247>:
   140e4:	03000513          	li	a0,48
   140e8:	20a10323          	sb	a0,518(sp)
   140ec:	20610513          	addi	a0,sp,518

00000000000140f0 <.LBB1_248>:
   140f0:	04013683          	ld	a3,64(sp)
   140f4:	0206fb13          	andi	s6,a3,32
   140f8:	04813583          	ld	a1,72(sp)
   140fc:	00258593          	addi	a1,a1,2 # 24002 <__global_pointer$+0x913a>
   14100:	04b13c23          	sd	a1,88(sp)
   14104:	03e75593          	srli	a1,a4,0x3e
   14108:	0025f593          	andi	a1,a1,2
   1410c:	02b5859b          	addiw	a1,a1,43
   14110:	feb50fa3          	sb	a1,-1(a0) # 1fff <.Lline_table_start0+0x1fff>
   14114:	00f6859b          	addiw	a1,a3,15
   14118:	ffe50693          	addi	a3,a0,-2
   1411c:	06d13023          	sd	a3,96(sp)
   14120:	feb50f23          	sb	a1,-2(a0)
   14124:	00867613          	andi	a2,a2,8
   14128:	06c13423          	sd	a2,104(sp)
   1412c:	20710c93          	addi	s9,sp,519
   14130:	15013c03          	ld	s8,336(sp)

0000000000014134 <.LBB1_249>:
   14134:	000c8b93          	mv	s7,s9
   14138:	00048513          	mv	a0,s1
   1413c:	000a8593          	mv	a1,s5
   14140:	35d040ef          	jal	ra,18c9c <__fixtfsi>
   14144:	00ac05b3          	add	a1,s8,a0
   14148:	00058583          	lb	a1,0(a1)
   1414c:	0165e5b3          	or	a1,a1,s6
   14150:	001c8c93          	addi	s9,s9,1
   14154:	00bb8023          	sb	a1,0(s7)
   14158:	719040ef          	jal	ra,19070 <__floatsitf>
   1415c:	00050613          	mv	a2,a0
   14160:	00058693          	mv	a3,a1
   14164:	00048513          	mv	a0,s1
   14168:	000a8593          	mv	a1,s5
   1416c:	5f8040ef          	jal	ra,18764 <__subtf3>
   14170:	00000613          	li	a2,0
   14174:	18013683          	ld	a3,384(sp)
   14178:	6d8020ef          	jal	ra,16850 <__multf3>
   1417c:	412c8633          	sub	a2,s9,s2
   14180:	00050493          	mv	s1,a0
   14184:	00058a93          	mv	s5,a1
   14188:	00100513          	li	a0,1
   1418c:	04a61663          	bne	a2,a0,141d8 <.LBB1_252>
   14190:	06813503          	ld	a0,104(sp)
   14194:	00153913          	seqz	s2,a0
   14198:	07013503          	ld	a0,112(sp)
   1419c:	00152c13          	slti	s8,a0,1
   141a0:	00048513          	mv	a0,s1
   141a4:	000a8593          	mv	a1,s5
   141a8:	00000613          	li	a2,0
   141ac:	00000693          	li	a3,0
   141b0:	0a0020ef          	jal	ra,16250 <__cmptf2>
   141b4:	00153513          	seqz	a0,a0
   141b8:	018975b3          	and	a1,s2,s8
   141bc:	15013c03          	ld	s8,336(sp)
   141c0:	20710913          	addi	s2,sp,519
   141c4:	00a5f533          	and	a0,a1,a0
   141c8:	00051863          	bnez	a0,141d8 <.LBB1_252>
   141cc:	002b8c93          	addi	s9,s7,2
   141d0:	02e00513          	li	a0,46
   141d4:	00ab80a3          	sb	a0,1(s7)

00000000000141d8 <.LBB1_252>:
   141d8:	00048513          	mv	a0,s1
   141dc:	000a8593          	mv	a1,s5
   141e0:	00000613          	li	a2,0
   141e4:	00000693          	li	a3,0
   141e8:	068020ef          	jal	ra,16250 <__cmptf2>
   141ec:	f40514e3          	bnez	a0,14134 <.LBB1_249>
   141f0:	20710513          	addi	a0,sp,519
   141f4:	06013583          	ld	a1,96(sp)
   141f8:	40b504b3          	sub	s1,a0,a1
   141fc:	05813683          	ld	a3,88(sp)
   14200:	00d48533          	add	a0,s1,a3
   14204:	800005b7          	lui	a1,0x80000
   14208:	ffd5859b          	addiw	a1,a1,-3 # 7ffffffd <__global_pointer$+0x7ffe5135>
   1420c:	40a585b3          	sub	a1,a1,a0
   14210:	08813c03          	ld	s8,136(sp)
   14214:	07013603          	ld	a2,112(sp)
   14218:	1ec5c4e3          	blt	a1,a2,14c00 <.LBB1_394>
   1421c:	00c03533          	snez	a0,a2
   14220:	0e813583          	ld	a1,232(sp)
   14224:	019585b3          	add	a1,a1,s9
   14228:	00c5a5b3          	slt	a1,a1,a2
   1422c:	00b57533          	and	a0,a0,a1
   14230:	412c8b33          	sub	s6,s9,s2
   14234:	00051663          	bnez	a0,14240 <.LBB1_256>
   14238:	000b0b93          	mv	s7,s6
   1423c:	0140006f          	j	14250 <.LBB1_257>

0000000000014240 <.LBB1_256>:
   14240:	08013503          	ld	a0,128(sp)
   14244:	0025051b          	addiw	a0,a0,2
   14248:	02051513          	slli	a0,a0,0x20
   1424c:	02055b93          	srli	s7,a0,0x20

0000000000014250 <.LBB1_257>:
   14250:	07813c83          	ld	s9,120(sp)
   14254:	009b8bb3          	add	s7,s7,s1
   14258:	01768abb          	addw	s5,a3,s7
   1425c:	000c8c9b          	sext.w	s9,s9
   14260:	02000593          	li	a1,32
   14264:	00098513          	mv	a0,s3
   14268:	000c8613          	mv	a2,s9
   1426c:	00068913          	mv	s2,a3
   14270:	000a8693          	mv	a3,s5
   14274:	000c0713          	mv	a4,s8
   14278:	385000ef          	jal	ra,14dfc <pad>
   1427c:	0009c503          	lbu	a0,0(s3)
   14280:	02057513          	andi	a0,a0,32
   14284:	00051a63          	bnez	a0,14298 <.LBB1_259>
   14288:	03813503          	ld	a0,56(sp)
   1428c:	00090593          	mv	a1,s2
   14290:	00098613          	mv	a2,s3
   14294:	7a1000ef          	jal	ra,15234 <__fwritex>

0000000000014298 <.LBB1_259>:
   14298:	00010537          	lui	a0,0x10
   1429c:	00ac4733          	xor	a4,s8,a0
   142a0:	03000593          	li	a1,48
   142a4:	00098513          	mv	a0,s3
   142a8:	000c8613          	mv	a2,s9
   142ac:	000a8693          	mv	a3,s5
   142b0:	34d000ef          	jal	ra,14dfc <pad>
   142b4:	0009c503          	lbu	a0,0(s3)
   142b8:	02057513          	andi	a0,a0,32
   142bc:	00051a63          	bnez	a0,142d0 <.LBB1_261>
   142c0:	20710513          	addi	a0,sp,519
   142c4:	000b0593          	mv	a1,s6
   142c8:	00098613          	mv	a2,s3
   142cc:	769000ef          	jal	ra,15234 <__fwritex>

00000000000142d0 <.LBB1_261>:
   142d0:	009b0b33          	add	s6,s6,s1
   142d4:	416b863b          	subw	a2,s7,s6
   142d8:	03000593          	li	a1,48
   142dc:	00098513          	mv	a0,s3
   142e0:	00000693          	li	a3,0
   142e4:	00000713          	li	a4,0
   142e8:	315000ef          	jal	ra,14dfc <pad>
   142ec:	0009c503          	lbu	a0,0(s3)
   142f0:	02057513          	andi	a0,a0,32
   142f4:	0c051ae3          	bnez	a0,14bc8 <.LBB1_391>
   142f8:	06013503          	ld	a0,96(sp)
   142fc:	00048593          	mv	a1,s1
   14300:	0c10006f          	j	14bc0 <.LBB1_390>

0000000000014304 <.LBB1_263>:
   14304:	07812603          	lw	a2,120(sp)
   14308:	02000593          	li	a1,32
   1430c:	00098513          	mv	a0,s3
   14310:	00000693          	li	a3,0
   14314:	08813903          	ld	s2,136(sp)
   14318:	00090713          	mv	a4,s2
   1431c:	2e1000ef          	jal	ra,14dfc <pad>
   14320:	07813603          	ld	a2,120(sp)
   14324:	00000493          	li	s1,0

0000000000014328 <.LBB1_264>:
   14328:	00002537          	lui	a0,0x2
   1432c:	00a94733          	xor	a4,s2,a0
   14330:	00060a9b          	sext.w	s5,a2
   14334:	0004849b          	sext.w	s1,s1
   14338:	02000593          	li	a1,32
   1433c:	00098513          	mv	a0,s3
   14340:	000a8613          	mv	a2,s5
   14344:	00048693          	mv	a3,s1
   14348:	2b5000ef          	jal	ra,14dfc <pad>
   1434c:	0154d463          	bge	s1,s5,14354 <.LBB1_265>
   14350:	c49fe06f          	j	12f98 <.LBB1_1>

0000000000014354 <.LBB1_265>:
   14354:	00048a93          	mv	s5,s1
   14358:	c41fe06f          	j	12f98 <.LBB1_1>

000000000001435c <.LBB1_266>:
   1435c:	00100493          	li	s1,1

0000000000014360 <.LBB1_267>:
   14360:	001ad61b          	srliw	a2,s5,0x1
   14364:	00c2c6b3          	xor	a3,t0,a2
   14368:	00b6e5b3          	or	a1,a3,a1
   1436c:	0c013683          	ld	a3,192(sp)
   14370:	00058463          	beqz	a1,14378 <.LBB1_269>
   14374:	0b013683          	ld	a3,176(sp)

0000000000014378 <.LBB1_269>:
   14378:	00c2f463          	bgeu	t0,a2,14380 <.LBB1_271>
   1437c:	0a813683          	ld	a3,168(sp)

0000000000014380 <.LBB1_271>:
   14380:	00000613          	li	a2,0
   14384:	03813583          	ld	a1,56(sp)
   14388:	02059663          	bnez	a1,143b4 <.LBB1_274>
   1438c:	02013583          	ld	a1,32(sp)
   14390:	0005c583          	lbu	a1,0(a1)
   14394:	02d00713          	li	a4,45
   14398:	00e59e63          	bne	a1,a4,143b4 <.LBB1_274>
   1439c:	00000613          	li	a2,0
   143a0:	0b813583          	ld	a1,184(sp)
   143a4:	13813703          	ld	a4,312(sp)
   143a8:	00e5c933          	xor	s2,a1,a4
   143ac:	00e6e6b3          	or	a3,a3,a4
   143b0:	0080006f          	j	143b8 <.LBB1_275>

00000000000143b4 <.LBB1_274>:
   143b4:	0b813903          	ld	s2,184(sp)

00000000000143b8 <.LBB1_275>:
   143b8:	405885bb          	subw	a1,a7,t0
   143bc:	02b13c23          	sd	a1,56(sp)
   143c0:	00bc2023          	sw	a1,0(s8)
   143c4:	00048513          	mv	a0,s1
   143c8:	00090593          	mv	a1,s2
   143cc:	5cc030ef          	jal	ra,17998 <__addtf3>
   143d0:	00048613          	mv	a2,s1
   143d4:	00090693          	mv	a3,s2
   143d8:	679010ef          	jal	ra,16250 <__cmptf2>
   143dc:	06050863          	beqz	a0,1444c <.LBB1_282>
   143e0:	03813503          	ld	a0,56(sp)
   143e4:	0155053b          	addw	a0,a0,s5
   143e8:	00ac2023          	sw	a0,0(s8)
   143ec:	14813583          	ld	a1,328(sp)
   143f0:	06013703          	ld	a4,96(sp)
   143f4:	14b56463          	bltu	a0,a1,1453c <.LBB1_300>
   143f8:	06812503          	lw	a0,104(sp)
   143fc:	00251513          	slli	a0,a0,0x2
   14400:	01013583          	ld	a1,16(sp)
   14404:	00a58533          	add	a0,a1,a0
   14408:	0a013583          	ld	a1,160(sp)
   1440c:	00a58533          	add	a0,a1,a0
   14410:	20710913          	addi	s2,sp,519
   14414:	3b9ad6b7          	lui	a3,0x3b9ad

0000000000014418 <.LBB1_278>:
   14418:	00052223          	sw	zero,4(a0) # 2004 <.Lline_table_start0+0x2004>
   1441c:	00e57863          	bgeu	a0,a4,1442c <.LBB1_280>
   14420:	ffc70593          	addi	a1,a4,-4
   14424:	fe072e23          	sw	zero,-4(a4)
   14428:	00058713          	mv	a4,a1

000000000001442c <.LBB1_280>:
   1442c:	00052583          	lw	a1,0(a0)
   14430:	0015859b          	addiw	a1,a1,1
   14434:	00b52023          	sw	a1,0(a0)
   14438:	9ff6861b          	addiw	a2,a3,-1537 # 3b9ac9ff <__global_pointer$+0x3b991b37>
   1443c:	ffc50513          	addi	a0,a0,-4
   14440:	fcb66ce3          	bltu	a2,a1,14418 <.LBB1_278>
   14444:	00450c13          	addi	s8,a0,4
   14448:	0f80006f          	j	14540 <.LBB1_301>

000000000001444c <.LBB1_282>:
   1444c:	20710913          	addi	s2,sp,519

0000000000014450 <.LBB1_283>:
   14450:	06013703          	ld	a4,96(sp)

0000000000014454 <.LBB1_284>:
   14454:	02813583          	ld	a1,40(sp)
   14458:	01813783          	ld	a5,24(sp)
   1445c:	004c0513          	addi	a0,s8,4
   14460:	01656463          	bltu	a0,s6,14468 <.LBB1_286>
   14464:	000b0513          	mv	a0,s6

0000000000014468 <.LBB1_286>:
   14468:	00050b13          	mv	s6,a0

000000000001446c <.LBB1_287>:
   1446c:	10013503          	ld	a0,256(sp)
   14470:	01650533          	add	a0,a0,s6
   14474:	40b50533          	sub	a0,a0,a1

0000000000014478 <.LBB1_288>:
   14478:	000b0693          	mv	a3,s6
   1447c:	00050c13          	mv	s8,a0
   14480:	01677a63          	bgeu	a4,s6,14494 <.LBB1_290>
   14484:	ffc6a583          	lw	a1,-4(a3)
   14488:	ffc68b13          	addi	s6,a3,-4
   1448c:	ffcc0513          	addi	a0,s8,-4
   14490:	fe0584e3          	beqz	a1,14478 <.LBB1_288>

0000000000014494 <.LBB1_290>:
   14494:	06700513          	li	a0,103
   14498:	06e13023          	sd	a4,96(sp)
   1449c:	05813583          	ld	a1,88(sp)
   144a0:	06d13423          	sd	a3,104(sp)
   144a4:	08a59263          	bne	a1,a0,14528 <.LBB1_298>
   144a8:	00079463          	bnez	a5,144b0 <.LBB1_293>
   144ac:	00100c93          	li	s9,1

00000000000144b0 <.LBB1_293>:
   144b0:	000c851b          	sext.w	a0,s9
   144b4:	00aba533          	slt	a0,s7,a0
   144b8:	ffcba593          	slti	a1,s7,-4
   144bc:	0015c593          	xori	a1,a1,1
   144c0:	00b57533          	and	a0,a0,a1
   144c4:	fffbc593          	not	a1,s7
   144c8:	04013603          	ld	a2,64(sp)
   144cc:	00c50633          	add	a2,a0,a2
   144d0:	ffe60613          	addi	a2,a2,-2
   144d4:	04c13023          	sd	a2,64(sp)
   144d8:	fff5051b          	addiw	a0,a0,-1
   144dc:	00b56533          	or	a0,a0,a1
   144e0:	08813583          	ld	a1,136(sp)
   144e4:	0085f593          	andi	a1,a1,8
   144e8:	01950cbb          	addw	s9,a0,s9
   144ec:	04059463          	bnez	a1,14534 <.LBB1_299>
   144f0:	00900b13          	li	s6,9
   144f4:	0ed77a63          	bgeu	a4,a3,145e8 <.LBB1_310>
   144f8:	ffc6a483          	lw	s1,-4(a3)
   144fc:	0e048663          	beqz	s1,145e8 <.LBB1_310>
   14500:	00048513          	mv	a0,s1
   14504:	09813583          	ld	a1,152(sp)
   14508:	bccfe0ef          	jal	ra,128d4 <__muldi3>
   1450c:	01f5159b          	slliw	a1,a0,0x1f
   14510:	0015551b          	srliw	a0,a0,0x1
   14514:	00b56533          	or	a0,a0,a1
   14518:	09013583          	ld	a1,144(sp)
   1451c:	08a5fc63          	bgeu	a1,a0,145b4 <.LBB1_308>
   14520:	00000b13          	li	s6,0
   14524:	0c40006f          	j	145e8 <.LBB1_310>

0000000000014528 <.LBB1_298>:
   14528:	08813c03          	ld	s8,136(sp)
   1452c:	008c7593          	andi	a1,s8,8
   14530:	1080006f          	j	14638 <.LBB1_315>

0000000000014534 <.LBB1_299>:
   14534:	08813c03          	ld	s8,136(sp)
   14538:	1000006f          	j	14638 <.LBB1_315>

000000000001453c <.LBB1_300>:
   1453c:	20710913          	addi	s2,sp,519

0000000000014540 <.LBB1_301>:
   14540:	00072483          	lw	s1,0(a4)
   14544:	07013503          	ld	a0,112(sp)
   14548:	40e50533          	sub	a0,a0,a4
   1454c:	00255513          	srli	a0,a0,0x2
   14550:	00351593          	slli	a1,a0,0x3
   14554:	00a58bbb          	addw	s7,a1,a0
   14558:	00a00513          	li	a0,10
   1455c:	eea4ece3          	bltu	s1,a0,14454 <.LBB1_284>
   14560:	00070a93          	mv	s5,a4
   14564:	00a00513          	li	a0,10

0000000000014568 <.LBB1_303>:
   14568:	00a00593          	li	a1,10
   1456c:	b68fe0ef          	jal	ra,128d4 <__muldi3>
   14570:	0005059b          	sext.w	a1,a0
   14574:	001b8b9b          	addiw	s7,s7,1
   14578:	feb4f8e3          	bgeu	s1,a1,14568 <.LBB1_303>
   1457c:	000a8713          	mv	a4,s5
   14580:	ed5ff06f          	j	14454 <.LBB1_284>

0000000000014584 <.LBB1_305>:
   14584:	1e013503          	ld	a0,480(sp)
   14588:	00000a93          	li	s5,0
   1458c:	01452023          	sw	s4,0(a0)
   14590:	a09fe06f          	j	12f98 <.LBB1_1>

0000000000014594 <.LBB1_306>:
   14594:	1e013503          	ld	a0,480(sp)
   14598:	00000a93          	li	s5,0
   1459c:	01451023          	sh	s4,0(a0)
   145a0:	9f9fe06f          	j	12f98 <.LBB1_1>

00000000000145a4 <.LBB1_307>:
   145a4:	1e013503          	ld	a0,480(sp)
   145a8:	00000a93          	li	s5,0
   145ac:	01450023          	sb	s4,0(a0)
   145b0:	9e9fe06f          	j	12f98 <.LBB1_1>

00000000000145b4 <.LBB1_308>:
   145b4:	00000b13          	li	s6,0
   145b8:	00a00a93          	li	s5,10

00000000000145bc <.LBB1_309>:
   145bc:	00a00593          	li	a1,10
   145c0:	000a8513          	mv	a0,s5
   145c4:	b10fe0ef          	jal	ra,128d4 <__muldi3>
   145c8:	00050a93          	mv	s5,a0
   145cc:	0015559b          	srliw	a1,a0,0x1
   145d0:	00159593          	slli	a1,a1,0x1
   145d4:	001b0b1b          	addiw	s6,s6,1
   145d8:	02049513          	slli	a0,s1,0x20
   145dc:	02055513          	srli	a0,a0,0x20
   145e0:	7f8010ef          	jal	ra,15dd8 <__umoddi3>
   145e4:	fc050ce3          	beqz	a0,145bc <.LBB1_309>

00000000000145e8 <.LBB1_310>:
   145e8:	04013503          	ld	a0,64(sp)
   145ec:	fdf57613          	andi	a2,a0,-33
   145f0:	402c5513          	srai	a0,s8,0x2
   145f4:	001c1c13          	slli	s8,s8,0x1
   145f8:	00ac0533          	add	a0,s8,a0
   145fc:	020b1593          	slli	a1,s6,0x20
   14600:	0205d593          	srli	a1,a1,0x20
   14604:	04600693          	li	a3,70
   14608:	00d60463          	beq	a2,a3,14610 <.LBB1_312>
   1460c:	01750533          	add	a0,a0,s7

0000000000014610 <.LBB1_312>:
   14610:	40b50533          	sub	a0,a0,a1
   14614:	ff750513          	addi	a0,a0,-9
   14618:	00a025b3          	sgtz	a1,a0
   1461c:	40b005b3          	neg	a1,a1
   14620:	00a5f533          	and	a0,a1,a0
   14624:	08813c03          	ld	s8,136(sp)
   14628:	01954463          	blt	a0,s9,14630 <.LBB1_314>
   1462c:	000c8513          	mv	a0,s9

0000000000014630 <.LBB1_314>:
   14630:	00000593          	li	a1,0
   14634:	00050c93          	mv	s9,a0

0000000000014638 <.LBB1_315>:
   14638:	04b13c23          	sd	a1,88(sp)
   1463c:	00bce533          	or	a0,s9,a1
   14640:	0005051b          	sext.w	a0,a0
   14644:	09913023          	sd	s9,128(sp)
   14648:	000c8c9b          	sext.w	s9,s9
   1464c:	02a13823          	sd	a0,48(sp)
   14650:	00a03533          	snez	a0,a0
   14654:	800005b7          	lui	a1,0x80000
   14658:	ffe5859b          	addiw	a1,a1,-2 # 7ffffffe <__global_pointer$+0x7ffe5136>
   1465c:	40a585b3          	sub	a1,a1,a0
   14660:	04813483          	ld	s1,72(sp)
   14664:	03913c23          	sd	s9,56(sp)
   14668:	5995cc63          	blt	a1,s9,14c00 <.LBB1_394>
   1466c:	08013583          	ld	a1,128(sp)
   14670:	00a58533          	add	a0,a1,a0
   14674:	0015079b          	addiw	a5,a0,1
   14678:	04013503          	ld	a0,64(sp)
   1467c:	fdf57c93          	andi	s9,a0,-33
   14680:	40f405bb          	subw	a1,s0,a5
   14684:	04600513          	li	a0,70
   14688:	00ac9c63          	bne	s9,a0,146a0 <.LBB1_319>
   1468c:	5775ca63          	blt	a1,s7,14c00 <.LBB1_394>
   14690:	01702533          	sgtz	a0,s7
   14694:	40a00533          	neg	a0,a0
   14698:	01757533          	and	a0,a0,s7
   1469c:	0fc0006f          	j	14798 <.LBB1_328>

00000000000146a0 <.LBB1_319>:
   146a0:	00b13823          	sd	a1,16(sp)
   146a4:	00f13c23          	sd	a5,24(sp)
   146a8:	03913423          	sd	s9,40(sp)
   146ac:	040b8e63          	beqz	s7,14708 <.LBB1_322>
   146b0:	41fbd513          	srai	a0,s7,0x1f
   146b4:	00abc4b3          	xor	s1,s7,a0
   146b8:	40a484bb          	subw	s1,s1,a0
   146bc:	20710913          	addi	s2,sp,519
   146c0:	00090c13          	mv	s8,s2
   146c4:	00900b13          	li	s6,9
   146c8:	00200c93          	li	s9,2

00000000000146cc <.LBB1_321>:
   146cc:	00048a93          	mv	s5,s1
   146d0:	00a00593          	li	a1,10
   146d4:	00048513          	mv	a0,s1
   146d8:	565000ef          	jal	ra,1543c <__udivdi3>
   146dc:	00050493          	mv	s1,a0
   146e0:	00a00593          	li	a1,10
   146e4:	9f0fe0ef          	jal	ra,128d4 <__muldi3>
   146e8:	40aa853b          	subw	a0,s5,a0
   146ec:	03056593          	ori	a1,a0,48
   146f0:	fff90513          	addi	a0,s2,-1
   146f4:	feb90fa3          	sb	a1,-1(s2)
   146f8:	fffc0c13          	addi	s8,s8,-1
   146fc:	00050913          	mv	s2,a0
   14700:	fd5b66e3          	bltu	s6,s5,146cc <.LBB1_321>
   14704:	0100006f          	j	14714 <.LBB1_323>

0000000000014708 <.LBB1_322>:
   14708:	20710513          	addi	a0,sp,519
   1470c:	00050c13          	mv	s8,a0
   14710:	00200c93          	li	s9,2

0000000000014714 <.LBB1_323>:
   14714:	20710693          	addi	a3,sp,519
   14718:	418685b3          	sub	a1,a3,s8
   1471c:	20710913          	addi	s2,sp,519
   14720:	00100613          	li	a2,1
   14724:	02b64863          	blt	a2,a1,14754 <.LBB1_326>
   14728:	40a68633          	sub	a2,a3,a0
   1472c:	03000713          	li	a4,48
   14730:	08813c03          	ld	s8,136(sp)
   14734:	01813783          	ld	a5,24(sp)
   14738:	01013803          	ld	a6,16(sp)

000000000001473c <.LBB1_325>:
   1473c:	fff50593          	addi	a1,a0,-1
   14740:	00160613          	addi	a2,a2,1
   14744:	fee50fa3          	sb	a4,-1(a0)
   14748:	00058513          	mv	a0,a1
   1474c:	ff9648e3          	blt	a2,s9,1473c <.LBB1_325>
   14750:	0140006f          	j	14764 <.LBB1_327>

0000000000014754 <.LBB1_326>:
   14754:	00050593          	mv	a1,a0
   14758:	08813c03          	ld	s8,136(sp)
   1475c:	01813783          	ld	a5,24(sp)
   14760:	01013803          	ld	a6,16(sp)

0000000000014764 <.LBB1_327>:
   14764:	03ebd513          	srli	a0,s7,0x3e
   14768:	00257513          	andi	a0,a0,2
   1476c:	02b5051b          	addiw	a0,a0,43
   14770:	fea58fa3          	sb	a0,-1(a1)
   14774:	ffe58b93          	addi	s7,a1,-2
   14778:	41768533          	sub	a0,a3,s7
   1477c:	02081613          	slli	a2,a6,0x20
   14780:	02065613          	srli	a2,a2,0x20
   14784:	04013683          	ld	a3,64(sp)
   14788:	fed58f23          	sb	a3,-2(a1)
   1478c:	04813483          	ld	s1,72(sp)
   14790:	02813c83          	ld	s9,40(sp)
   14794:	46a64663          	blt	a2,a0,14c00 <.LBB1_394>

0000000000014798 <.LBB1_328>:
   14798:	00f5053b          	addw	a0,a0,a5
   1479c:	0084c5b3          	xor	a1,s1,s0
   147a0:	46a5c063          	blt	a1,a0,14c00 <.LBB1_394>
   147a4:	00950abb          	addw	s5,a0,s1
   147a8:	07812b03          	lw	s6,120(sp)
   147ac:	02000593          	li	a1,32
   147b0:	00098513          	mv	a0,s3
   147b4:	000b0613          	mv	a2,s6
   147b8:	000a8693          	mv	a3,s5
   147bc:	000c0713          	mv	a4,s8
   147c0:	63c000ef          	jal	ra,14dfc <pad>
   147c4:	0009c503          	lbu	a0,0(s3)
   147c8:	02057513          	andi	a0,a0,32
   147cc:	00051a63          	bnez	a0,147e0 <.LBB1_331>
   147d0:	02013503          	ld	a0,32(sp)
   147d4:	00048593          	mv	a1,s1
   147d8:	00098613          	mv	a2,s3
   147dc:	259000ef          	jal	ra,15234 <__fwritex>

00000000000147e0 <.LBB1_331>:
   147e0:	00010537          	lui	a0,0x10
   147e4:	00ac4733          	xor	a4,s8,a0
   147e8:	03000593          	li	a1,48
   147ec:	00098513          	mv	a0,s3
   147f0:	000b0613          	mv	a2,s6
   147f4:	000a8693          	mv	a3,s5
   147f8:	604000ef          	jal	ra,14dfc <pad>
   147fc:	04600513          	li	a0,70
   14800:	20ac9263          	bne	s9,a0,14a04 <.LBB1_363>
   14804:	07013503          	ld	a0,112(sp)
   14808:	00050c13          	mv	s8,a0
   1480c:	03000b13          	li	s6,48
   14810:	06013583          	ld	a1,96(sp)
   14814:	00b56463          	bltu	a0,a1,1481c <.LBB1_334>
   14818:	00058c13          	mv	s8,a1

000000000001481c <.LBB1_334>:
   1481c:	000c0b93          	mv	s7,s8
   14820:	07813023          	sd	s8,96(sp)

0000000000014824 <.LBB1_335>:
   14824:	000be483          	lwu	s1,0(s7)
   14828:	06048463          	beqz	s1,14890 <.LBB1_340>
   1482c:	ff600c93          	li	s9,-10
   14830:	21010513          	addi	a0,sp,528
   14834:	00900c13          	li	s8,9

0000000000014838 <.LBB1_337>:
   14838:	00048b13          	mv	s6,s1
   1483c:	00050913          	mv	s2,a0
   14840:	00a00593          	li	a1,10
   14844:	00048513          	mv	a0,s1
   14848:	3f5000ef          	jal	ra,1543c <__udivdi3>
   1484c:	00050493          	mv	s1,a0
   14850:	00a00593          	li	a1,10
   14854:	880fe0ef          	jal	ra,128d4 <__muldi3>
   14858:	40ab053b          	subw	a0,s6,a0
   1485c:	03056593          	ori	a1,a0,48
   14860:	fff90513          	addi	a0,s2,-1
   14864:	feb90fa3          	sb	a1,-1(s2)
   14868:	001c8c93          	addi	s9,s9,1
   1486c:	fd6c66e3          	bltu	s8,s6,14838 <.LBB1_337>
   14870:	06013c03          	ld	s8,96(sp)
   14874:	038b8e63          	beq	s7,s8,148b0 <.LBB1_343>
   14878:	419005b3          	neg	a1,s9
   1487c:	20710913          	addi	s2,sp,519
   14880:	03000b13          	li	s6,48
   14884:	00200613          	li	a2,2
   14888:	00c5d863          	bge	a1,a2,14898 <.LBB1_341>
   1488c:	03c0006f          	j	148c8 <.LBB1_345>

0000000000014890 <.LBB1_340>:
   14890:	21010513          	addi	a0,sp,528
   14894:	038b8663          	beq	s7,s8,148c0 <.LBB1_344>

0000000000014898 <.LBB1_341>:
   14898:	00050593          	mv	a1,a0

000000000001489c <.LBB1_342>:
   1489c:	fff58513          	addi	a0,a1,-1
   148a0:	ff658fa3          	sb	s6,-1(a1)
   148a4:	00050593          	mv	a1,a0
   148a8:	fea96ae3          	bltu	s2,a0,1489c <.LBB1_342>
   148ac:	01c0006f          	j	148c8 <.LBB1_345>

00000000000148b0 <.LBB1_343>:
   148b0:	20710913          	addi	s2,sp,519
   148b4:	03000b13          	li	s6,48
   148b8:	ff600593          	li	a1,-10
   148bc:	00bc9663          	bne	s9,a1,148c8 <.LBB1_345>

00000000000148c0 <.LBB1_344>:
   148c0:	216107a3          	sb	s6,527(sp)
   148c4:	20f10513          	addi	a0,sp,527

00000000000148c8 <.LBB1_345>:
   148c8:	0009c583          	lbu	a1,0(s3)
   148cc:	0205f593          	andi	a1,a1,32
   148d0:	00059a63          	bnez	a1,148e4 <.LBB1_347>
   148d4:	21010593          	addi	a1,sp,528
   148d8:	40a585b3          	sub	a1,a1,a0
   148dc:	00098613          	mv	a2,s3
   148e0:	155000ef          	jal	ra,15234 <__fwritex>

00000000000148e4 <.LBB1_347>:
   148e4:	004b8b93          	addi	s7,s7,4
   148e8:	08013c83          	ld	s9,128(sp)
   148ec:	07013503          	ld	a0,112(sp)
   148f0:	f3757ae3          	bgeu	a0,s7,14824 <.LBB1_335>
   148f4:	00900c13          	li	s8,9
   148f8:	03013503          	ld	a0,48(sp)
   148fc:	02050063          	beqz	a0,1491c <.LBB1_351>
   14900:	0009c503          	lbu	a0,0(s3)
   14904:	02057513          	andi	a0,a0,32
   14908:	00051a63          	bnez	a0,1491c <.LBB1_351>
   1490c:	00100593          	li	a1,1
   14910:	0f013503          	ld	a0,240(sp)
   14914:	00098613          	mv	a2,s3
   14918:	11d000ef          	jal	ra,15234 <__fwritex>

000000000001491c <.LBB1_351>:
   1491c:	06813503          	ld	a0,104(sp)
   14920:	00abb533          	sltu	a0,s7,a0
   14924:	03813583          	ld	a1,56(sp)
   14928:	00b025b3          	sgtz	a1,a1
   1492c:	00b57533          	and	a0,a0,a1
   14930:	0a050a63          	beqz	a0,149e4 <.LBB1_362>

0000000000014934 <.LBB1_352>:
   14934:	000be483          	lwu	s1,0(s7)
   14938:	21010513          	addi	a0,sp,528
   1493c:	04048263          	beqz	s1,14980 <.LBB1_355>

0000000000014940 <.LBB1_353>:
   14940:	00050913          	mv	s2,a0
   14944:	00048b13          	mv	s6,s1
   14948:	00a00593          	li	a1,10
   1494c:	00048513          	mv	a0,s1
   14950:	2ed000ef          	jal	ra,1543c <__udivdi3>
   14954:	00050493          	mv	s1,a0
   14958:	00a00593          	li	a1,10
   1495c:	f79fd0ef          	jal	ra,128d4 <__muldi3>
   14960:	40ab053b          	subw	a0,s6,a0
   14964:	03056593          	ori	a1,a0,48
   14968:	fff90513          	addi	a0,s2,-1
   1496c:	feb90fa3          	sb	a1,-1(s2)
   14970:	fd6c68e3          	bltu	s8,s6,14940 <.LBB1_353>
   14974:	20710913          	addi	s2,sp,519
   14978:	03000b13          	li	s6,48
   1497c:	00a97c63          	bgeu	s2,a0,14994 <.LBB1_357>

0000000000014980 <.LBB1_355>:
   14980:	00050593          	mv	a1,a0

0000000000014984 <.LBB1_356>:
   14984:	fff58513          	addi	a0,a1,-1
   14988:	ff658fa3          	sb	s6,-1(a1)
   1498c:	00050593          	mv	a1,a0
   14990:	fea96ae3          	bltu	s2,a0,14984 <.LBB1_356>

0000000000014994 <.LBB1_357>:
   14994:	0009c583          	lbu	a1,0(s3)
   14998:	0205f593          	andi	a1,a1,32
   1499c:	000c849b          	sext.w	s1,s9
   149a0:	02059263          	bnez	a1,149c4 <.LBB1_361>
   149a4:	00900613          	li	a2,9
   149a8:	00048593          	mv	a1,s1
   149ac:	00c4c463          	blt	s1,a2,149b4 <.LBB1_360>
   149b0:	00900593          	li	a1,9

00000000000149b4 <.LBB1_360>:
   149b4:	02059593          	slli	a1,a1,0x20
   149b8:	0205d593          	srli	a1,a1,0x20
   149bc:	00098613          	mv	a2,s3
   149c0:	075000ef          	jal	ra,15234 <__fwritex>

00000000000149c4 <.LBB1_361>:
   149c4:	004b8b93          	addi	s7,s7,4
   149c8:	06813503          	ld	a0,104(sp)
   149cc:	00abb533          	sltu	a0,s7,a0
   149d0:	00a4a593          	slti	a1,s1,10
   149d4:	0015c593          	xori	a1,a1,1
   149d8:	00b57533          	and	a0,a0,a1
   149dc:	ff7c8c9b          	addiw	s9,s9,-9
   149e0:	f4051ae3          	bnez	a0,14934 <.LBB1_352>

00000000000149e4 <.LBB1_362>:
   149e4:	009c861b          	addiw	a2,s9,9
   149e8:	03000593          	li	a1,48
   149ec:	00900693          	li	a3,9
   149f0:	00098513          	mv	a0,s3
   149f4:	00000713          	li	a4,0
   149f8:	404000ef          	jal	ra,14dfc <pad>
   149fc:	08813c03          	ld	s8,136(sp)
   14a00:	1c80006f          	j	14bc8 <.LBB1_391>

0000000000014a04 <.LBB1_363>:
   14a04:	07713823          	sd	s7,112(sp)
   14a08:	06013603          	ld	a2,96(sp)
   14a0c:	06813503          	ld	a0,104(sp)
   14a10:	00a66663          	bltu	a2,a0,14a1c <.LBB1_365>
   14a14:	00460513          	addi	a0,a2,4
   14a18:	06a13423          	sd	a0,104(sp)

0000000000014a1c <.LBB1_365>:
   14a1c:	08013c83          	ld	s9,128(sp)
   14a20:	03813503          	ld	a0,56(sp)
   14a24:	16054463          	bltz	a0,14b8c <.LBB1_388>
   14a28:	00060493          	mv	s1,a2

0000000000014a2c <.LBB1_367>:
   14a2c:	0004eb03          	lwu	s6,0(s1)
   14a30:	060b0263          	beqz	s6,14a94 <.LBB1_372>
   14a34:	08913023          	sd	s1,128(sp)
   14a38:	00000c13          	li	s8,0
   14a3c:	20f10913          	addi	s2,sp,527
   14a40:	00900493          	li	s1,9

0000000000014a44 <.LBB1_369>:
   14a44:	000b0b93          	mv	s7,s6
   14a48:	00a00593          	li	a1,10
   14a4c:	000b0513          	mv	a0,s6
   14a50:	1ed000ef          	jal	ra,1543c <__udivdi3>
   14a54:	00050b13          	mv	s6,a0
   14a58:	00a00593          	li	a1,10
   14a5c:	e79fd0ef          	jal	ra,128d4 <__muldi3>
   14a60:	40ab853b          	subw	a0,s7,a0
   14a64:	03056513          	ori	a0,a0,48
   14a68:	00a90023          	sb	a0,0(s2)
   14a6c:	001c0c13          	addi	s8,s8,1
   14a70:	fff90913          	addi	s2,s2,-1
   14a74:	fd74e8e3          	bltu	s1,s7,14a44 <.LBB1_369>
   14a78:	20710913          	addi	s2,sp,519
   14a7c:	06013603          	ld	a2,96(sp)
   14a80:	08013483          	ld	s1,128(sp)
   14a84:	000c0863          	beqz	s8,14a94 <.LBB1_372>
   14a88:	21010513          	addi	a0,sp,528
   14a8c:	41850bb3          	sub	s7,a0,s8
   14a90:	0100006f          	j	14aa0 <.LBB1_373>

0000000000014a94 <.LBB1_372>:
   14a94:	03000513          	li	a0,48
   14a98:	20a107a3          	sb	a0,527(sp)
   14a9c:	20f10b93          	addi	s7,sp,527

0000000000014aa0 <.LBB1_373>:
   14aa0:	02c48263          	beq	s1,a2,14ac4 <.LBB1_377>
   14aa4:	09797263          	bgeu	s2,s7,14b28 <.LBB1_382>
   14aa8:	03000513          	li	a0,48
   14aac:	08813c03          	ld	s8,136(sp)

0000000000014ab0 <.LBB1_376>:
   14ab0:	fffb8b13          	addi	s6,s7,-1
   14ab4:	feab8fa3          	sb	a0,-1(s7)
   14ab8:	000b0b93          	mv	s7,s6
   14abc:	ff696ae3          	bltu	s2,s6,14ab0 <.LBB1_376>
   14ac0:	0700006f          	j	14b30 <.LBB1_383>

0000000000014ac4 <.LBB1_377>:
   14ac4:	0009c503          	lbu	a0,0(s3)
   14ac8:	02057513          	andi	a0,a0,32
   14acc:	00051c63          	bnez	a0,14ae4 <.LBB1_379>
   14ad0:	00100593          	li	a1,1
   14ad4:	000b8513          	mv	a0,s7
   14ad8:	00098613          	mv	a2,s3
   14adc:	758000ef          	jal	ra,15234 <__fwritex>
   14ae0:	06013603          	ld	a2,96(sp)

0000000000014ae4 <.LBB1_379>:
   14ae4:	05813503          	ld	a0,88(sp)
   14ae8:	00153513          	seqz	a0,a0
   14aec:	000c859b          	sext.w	a1,s9
   14af0:	0015a593          	slti	a1,a1,1
   14af4:	00b57533          	and	a0,a0,a1
   14af8:	001b8b13          	addi	s6,s7,1
   14afc:	08813c03          	ld	s8,136(sp)
   14b00:	02051863          	bnez	a0,14b30 <.LBB1_383>
   14b04:	0009c503          	lbu	a0,0(s3)
   14b08:	02057513          	andi	a0,a0,32
   14b0c:	02051263          	bnez	a0,14b30 <.LBB1_383>
   14b10:	00100593          	li	a1,1
   14b14:	0f013503          	ld	a0,240(sp)
   14b18:	00098613          	mv	a2,s3
   14b1c:	718000ef          	jal	ra,15234 <__fwritex>
   14b20:	06013603          	ld	a2,96(sp)
   14b24:	00c0006f          	j	14b30 <.LBB1_383>

0000000000014b28 <.LBB1_382>:
   14b28:	000b8b13          	mv	s6,s7
   14b2c:	08813c03          	ld	s8,136(sp)

0000000000014b30 <.LBB1_383>:
   14b30:	0009c503          	lbu	a0,0(s3)
   14b34:	02057513          	andi	a0,a0,32
   14b38:	21010593          	addi	a1,sp,528
   14b3c:	41658933          	sub	s2,a1,s6
   14b40:	02051463          	bnez	a0,14b68 <.LBB1_387>
   14b44:	020c9513          	slli	a0,s9,0x20
   14b48:	02055513          	srli	a0,a0,0x20
   14b4c:	00090593          	mv	a1,s2
   14b50:	00a94463          	blt	s2,a0,14b58 <.LBB1_386>
   14b54:	00050593          	mv	a1,a0

0000000000014b58 <.LBB1_386>:
   14b58:	000b0513          	mv	a0,s6
   14b5c:	00098613          	mv	a2,s3
   14b60:	6d4000ef          	jal	ra,15234 <__fwritex>
   14b64:	06013603          	ld	a2,96(sp)

0000000000014b68 <.LBB1_387>:
   14b68:	412c8cbb          	subw	s9,s9,s2
   14b6c:	00448493          	addi	s1,s1,4
   14b70:	06813503          	ld	a0,104(sp)
   14b74:	00a4b533          	sltu	a0,s1,a0
   14b78:	000ca593          	slti	a1,s9,0
   14b7c:	0015c593          	xori	a1,a1,1
   14b80:	00b57533          	and	a0,a0,a1
   14b84:	20710913          	addi	s2,sp,519
   14b88:	ea0512e3          	bnez	a0,14a2c <.LBB1_367>

0000000000014b8c <.LBB1_388>:
   14b8c:	012c861b          	addiw	a2,s9,18
   14b90:	03000593          	li	a1,48
   14b94:	01200693          	li	a3,18
   14b98:	00098513          	mv	a0,s3
   14b9c:	00000713          	li	a4,0
   14ba0:	25c000ef          	jal	ra,14dfc <pad>
   14ba4:	0009c503          	lbu	a0,0(s3)
   14ba8:	02057513          	andi	a0,a0,32
   14bac:	00051e63          	bnez	a0,14bc8 <.LBB1_391>
   14bb0:	20710513          	addi	a0,sp,519
   14bb4:	07013603          	ld	a2,112(sp)
   14bb8:	40c505b3          	sub	a1,a0,a2
   14bbc:	00060513          	mv	a0,a2

0000000000014bc0 <.LBB1_390>:
   14bc0:	00098613          	mv	a2,s3
   14bc4:	670000ef          	jal	ra,15234 <__fwritex>

0000000000014bc8 <.LBB1_391>:
   14bc8:	07813903          	ld	s2,120(sp)
   14bcc:	00002537          	lui	a0,0x2
   14bd0:	00ac4733          	xor	a4,s8,a0
   14bd4:	0009091b          	sext.w	s2,s2
   14bd8:	02000593          	li	a1,32
   14bdc:	00098513          	mv	a0,s3
   14be0:	00090613          	mv	a2,s2
   14be4:	000a8693          	mv	a3,s5
   14be8:	214000ef          	jal	ra,14dfc <pad>
   14bec:	01594463          	blt	s2,s5,14bf4 <.LBB1_393>
   14bf0:	00090a93          	mv	s5,s2

0000000000014bf4 <.LBB1_393>:
   14bf4:	04b00c93          	li	s9,75
   14bf8:	000ac663          	bltz	s5,14c04 <.LBB1_395>
   14bfc:	b9cfe06f          	j	12f98 <.LBB1_1>

0000000000014c00 <.LBB1_394>:
   14c00:	04b00c93          	li	s9,75

0000000000014c04 <.LBB1_395>:
   14c04:	dd1fd0ef          	jal	ra,129d4 <__errno_location>
   14c08:	01952023          	sw	s9,0(a0) # 2000 <.Lline_table_start0+0x2000>

0000000000014c0c <.LBB1_396>:
   14c0c:	fff00a13          	li	s4,-1

0000000000014c10 <.LBB1_397>:
   14c10:	000a0513          	mv	a0,s4
   14c14:	000015b7          	lui	a1,0x1
   14c18:	7705859b          	addiw	a1,a1,1904 # 1770 <.Lline_table_start0+0x1770>
   14c1c:	00b10133          	add	sp,sp,a1
   14c20:	7e813083          	ld	ra,2024(sp)
   14c24:	7e013403          	ld	s0,2016(sp)
   14c28:	7d813483          	ld	s1,2008(sp)
   14c2c:	7d013903          	ld	s2,2000(sp)
   14c30:	7c813983          	ld	s3,1992(sp)
   14c34:	7c013a03          	ld	s4,1984(sp)
   14c38:	7b813a83          	ld	s5,1976(sp)
   14c3c:	7b013b03          	ld	s6,1968(sp)
   14c40:	7a813b83          	ld	s7,1960(sp)
   14c44:	7a013c03          	ld	s8,1952(sp)
   14c48:	79813c83          	ld	s9,1944(sp)
   14c4c:	79013d03          	ld	s10,1936(sp)
   14c50:	78813d83          	ld	s11,1928(sp)
   14c54:	7f010113          	addi	sp,sp,2032
   14c58:	00008067          	ret

0000000000014c5c <.LBB1_398>:
   14c5c:	fa099ae3          	bnez	s3,14c10 <.LBB1_397>
   14c60:	19013503          	ld	a0,400(sp)
   14c64:	04050463          	beqz	a0,14cac <.LBB1_404>
   14c68:	16013403          	ld	s0,352(sp)
   14c6c:	00440413          	addi	s0,s0,4
   14c70:	16813483          	ld	s1,360(sp)
   14c74:	01048493          	addi	s1,s1,16
   14c78:	ff700913          	li	s2,-9
   14c7c:	17013983          	ld	s3,368(sp)

0000000000014c80 <.LBB1_401>:
   14c80:	00042583          	lw	a1,0(s0)
   14c84:	02058863          	beqz	a1,14cb4 <.LBB1_405>
   14c88:	00048513          	mv	a0,s1
   14c8c:	00098613          	mv	a2,s3
   14c90:	058000ef          	jal	ra,14ce8 <pop_arg>
   14c94:	00440413          	addi	s0,s0,4
   14c98:	00190913          	addi	s2,s2,1
   14c9c:	01048493          	addi	s1,s1,16
   14ca0:	fe0910e3          	bnez	s2,14c80 <.LBB1_401>
   14ca4:	00100a13          	li	s4,1
   14ca8:	f69ff06f          	j	14c10 <.LBB1_397>

0000000000014cac <.LBB1_404>:
   14cac:	00000a13          	li	s4,0
   14cb0:	f61ff06f          	j	14c10 <.LBB1_397>

0000000000014cb4 <.LBB1_405>:
   14cb4:	00a90513          	addi	a0,s2,10
   14cb8:	00900593          	li	a1,9
   14cbc:	00100a13          	li	s4,1
   14cc0:	f4a5e8e3          	bltu	a1,a0,14c10 <.LBB1_397>
   14cc4:	41200533          	neg	a0,s2

0000000000014cc8 <.LBB1_407>:
   14cc8:	00042583          	lw	a1,0(s0)
   14ccc:	00059a63          	bnez	a1,14ce0 <.LBB1_409>
   14cd0:	fff50513          	addi	a0,a0,-1
   14cd4:	00440413          	addi	s0,s0,4
   14cd8:	fe0518e3          	bnez	a0,14cc8 <.LBB1_407>
   14cdc:	f35ff06f          	j	14c10 <.LBB1_397>

0000000000014ce0 <.LBB1_409>:
   14ce0:	01600c93          	li	s9,22
   14ce4:	f21ff06f          	j	14c04 <.LBB1_395>

0000000000014ce8 <pop_arg>:
   14ce8:	ff010113          	addi	sp,sp,-16
   14cec:	00113423          	sd	ra,8(sp)
   14cf0:	00813023          	sd	s0,0(sp)
   14cf4:	ff758593          	addi	a1,a1,-9
   14cf8:	01100693          	li	a3,17
   14cfc:	02b6ea63          	bltu	a3,a1,14d30 <.LBB2_4>
   14d00:	00050413          	mv	s0,a0
   14d04:	00259593          	slli	a1,a1,0x2
   14d08:	00010537          	lui	a0,0x10
   14d0c:	34050513          	addi	a0,a0,832 # 10340 <.LJTI2_0>
   14d10:	00a58533          	add	a0,a1,a0
   14d14:	00052503          	lw	a0,0(a0)
   14d18:	00050067          	jr	a0

0000000000014d1c <.LBB2_2>:
   14d1c:	00063503          	ld	a0,0(a2)
   14d20:	00850593          	addi	a1,a0,8
   14d24:	00b63023          	sd	a1,0(a2)
   14d28:	00053503          	ld	a0,0(a0)

0000000000014d2c <.LBB2_3>:
   14d2c:	00a43023          	sd	a0,0(s0)

0000000000014d30 <.LBB2_4>:
   14d30:	00813083          	ld	ra,8(sp)
   14d34:	00013403          	ld	s0,0(sp)
   14d38:	01010113          	addi	sp,sp,16
   14d3c:	00008067          	ret

0000000000014d40 <.LBB2_5>:
   14d40:	00063503          	ld	a0,0(a2)
   14d44:	00850593          	addi	a1,a0,8
   14d48:	00b63023          	sd	a1,0(a2)
   14d4c:	00052503          	lw	a0,0(a0)
   14d50:	fddff06f          	j	14d2c <.LBB2_3>

0000000000014d54 <.LBB2_6>:
   14d54:	00063503          	ld	a0,0(a2)
   14d58:	00850593          	addi	a1,a0,8
   14d5c:	00b63023          	sd	a1,0(a2)
   14d60:	00056503          	lwu	a0,0(a0)
   14d64:	fc9ff06f          	j	14d2c <.LBB2_3>

0000000000014d68 <.LBB2_7>:
   14d68:	00063503          	ld	a0,0(a2)
   14d6c:	00850593          	addi	a1,a0,8
   14d70:	00b63023          	sd	a1,0(a2)
   14d74:	00051503          	lh	a0,0(a0)
   14d78:	fb5ff06f          	j	14d2c <.LBB2_3>

0000000000014d7c <.LBB2_8>:
   14d7c:	00063503          	ld	a0,0(a2)
   14d80:	00850593          	addi	a1,a0,8
   14d84:	00b63023          	sd	a1,0(a2)
   14d88:	00055503          	lhu	a0,0(a0)
   14d8c:	fa1ff06f          	j	14d2c <.LBB2_3>

0000000000014d90 <.LBB2_9>:
   14d90:	00063503          	ld	a0,0(a2)
   14d94:	00850593          	addi	a1,a0,8
   14d98:	00b63023          	sd	a1,0(a2)
   14d9c:	00050503          	lb	a0,0(a0)
   14da0:	f8dff06f          	j	14d2c <.LBB2_3>

0000000000014da4 <.LBB2_10>:
   14da4:	00063503          	ld	a0,0(a2)
   14da8:	00850593          	addi	a1,a0,8
   14dac:	00b63023          	sd	a1,0(a2)
   14db0:	00054503          	lbu	a0,0(a0)
   14db4:	f79ff06f          	j	14d2c <.LBB2_3>

0000000000014db8 <.LBB2_11>:
   14db8:	00063503          	ld	a0,0(a2)
   14dbc:	00850593          	addi	a1,a0,8
   14dc0:	00b63023          	sd	a1,0(a2)
   14dc4:	00053503          	ld	a0,0(a0)
   14dc8:	4d0040ef          	jal	ra,19298 <__extenddftf2>
   14dcc:	00b43423          	sd	a1,8(s0)
   14dd0:	f5dff06f          	j	14d2c <.LBB2_3>

0000000000014dd4 <.LBB2_12>:
   14dd4:	00063503          	ld	a0,0(a2)
   14dd8:	00f50513          	addi	a0,a0,15
   14ddc:	ff057513          	andi	a0,a0,-16
   14de0:	01050593          	addi	a1,a0,16
   14de4:	00b63023          	sd	a1,0(a2)
   14de8:	00053583          	ld	a1,0(a0)
   14dec:	00853503          	ld	a0,8(a0)
   14df0:	00b43023          	sd	a1,0(s0)
   14df4:	00a43423          	sd	a0,8(s0)
   14df8:	f39ff06f          	j	14d30 <.LBB2_4>

0000000000014dfc <pad>:
   14dfc:	ee010113          	addi	sp,sp,-288
   14e00:	10113c23          	sd	ra,280(sp)
   14e04:	10813823          	sd	s0,272(sp)
   14e08:	10913423          	sd	s1,264(sp)
   14e0c:	11213023          	sd	s2,256(sp)
   14e10:	000127b7          	lui	a5,0x12
   14e14:	00f77733          	and	a4,a4,a5
   14e18:	00173713          	seqz	a4,a4
   14e1c:	00c6a7b3          	slt	a5,a3,a2
   14e20:	00f77733          	and	a4,a4,a5
   14e24:	06070863          	beqz	a4,14e94 <.LBB3_10>
   14e28:	00050413          	mv	s0,a0
   14e2c:	40d604bb          	subw	s1,a2,a3
   14e30:	10000913          	li	s2,256
   14e34:	00048613          	mv	a2,s1
   14e38:	0124e463          	bltu	s1,s2,14e40 <.LBB3_3>
   14e3c:	10000613          	li	a2,256

0000000000014e40 <.LBB3_3>:
   14e40:	00010513          	mv	a0,sp
   14e44:	959fd0ef          	jal	ra,1279c <memset>
   14e48:	0324e663          	bltu	s1,s2,14e74 <.LBB3_8>
   14e4c:	0ff00913          	li	s2,255

0000000000014e50 <.LBB3_5>:
   14e50:	00044503          	lbu	a0,0(s0)
   14e54:	02057513          	andi	a0,a0,32
   14e58:	00051a63          	bnez	a0,14e6c <.LBB3_7>
   14e5c:	00010513          	mv	a0,sp
   14e60:	10000593          	li	a1,256
   14e64:	00040613          	mv	a2,s0
   14e68:	3cc000ef          	jal	ra,15234 <__fwritex>

0000000000014e6c <.LBB3_7>:
   14e6c:	f004849b          	addiw	s1,s1,-256
   14e70:	fe9960e3          	bltu	s2,s1,14e50 <.LBB3_5>

0000000000014e74 <.LBB3_8>:
   14e74:	00044503          	lbu	a0,0(s0)
   14e78:	02057513          	andi	a0,a0,32
   14e7c:	00051c63          	bnez	a0,14e94 <.LBB3_10>
   14e80:	02049593          	slli	a1,s1,0x20
   14e84:	0205d593          	srli	a1,a1,0x20
   14e88:	00010513          	mv	a0,sp
   14e8c:	00040613          	mv	a2,s0
   14e90:	3a4000ef          	jal	ra,15234 <__fwritex>

0000000000014e94 <.LBB3_10>:
   14e94:	11813083          	ld	ra,280(sp)
   14e98:	11013403          	ld	s0,272(sp)
   14e9c:	10813483          	ld	s1,264(sp)
   14ea0:	10013903          	ld	s2,256(sp)
   14ea4:	12010113          	addi	sp,sp,288
   14ea8:	00008067          	ret

0000000000014eac <__lockfile>:
   14eac:	08c52603          	lw	a2,140(a0)
   14eb0:	00020593          	mv	a1,tp
   14eb4:	f585a583          	lw	a1,-168(a1)
   14eb8:	c00006b7          	lui	a3,0xc0000
   14ebc:	fff6869b          	addiw	a3,a3,-1 # ffffffffbfffffff <__global_pointer$+0xffffffffbffe5137>
   14ec0:	00d67633          	and	a2,a2,a3
   14ec4:	00b61663          	bne	a2,a1,14ed0 <.LBB0_2>
   14ec8:	00000713          	li	a4,0
   14ecc:	0800006f          	j	14f4c <.LBB0_10>

0000000000014ed0 <.LBB0_2>:
   14ed0:	08c50793          	addi	a5,a0,140
   14ed4:	0007a503          	lw	a0,0(a5) # 12000 <__init_tp+0x28>
   14ed8:	00b7a023          	sw	a1,0(a5)
   14edc:	00100713          	li	a4,1
   14ee0:	06050663          	beqz	a0,14f4c <.LBB0_10>
   14ee4:	0007a503          	lw	a0,0(a5)
   14ee8:	40000837          	lui	a6,0x40000
   14eec:	0105e2b3          	or	t0,a1,a6
   14ef0:	0057a023          	sw	t0,0(a5)
   14ef4:	04050c63          	beqz	a0,14f4c <.LBB0_10>
   14ef8:	fda00313          	li	t1,-38

0000000000014efc <.LBB0_5>:
   14efc:	02151593          	slli	a1,a0,0x21
   14f00:	01056633          	or	a2,a0,a6
   14f04:	0005c863          	bltz	a1,14f14 <.LBB0_7>
   14f08:	0007a583          	lw	a1,0(a5)
   14f0c:	00c7a023          	sw	a2,0(a5)
   14f10:	02a59863          	bne	a1,a0,14f40 <.LBB0_9>

0000000000014f14 <.LBB0_7>:
   14f14:	06200893          	li	a7,98
   14f18:	08000593          	li	a1,128
   14f1c:	00078513          	mv	a0,a5
   14f20:	00000693          	li	a3,0
   14f24:	00000073          	ecall
   14f28:	00651c63          	bne	a0,t1,14f40 <.LBB0_9>
   14f2c:	06200893          	li	a7,98
   14f30:	00078513          	mv	a0,a5
   14f34:	00000593          	li	a1,0
   14f38:	00000693          	li	a3,0
   14f3c:	00000073          	ecall

0000000000014f40 <.LBB0_9>:
   14f40:	0007a503          	lw	a0,0(a5)
   14f44:	0057a023          	sw	t0,0(a5)
   14f48:	fa051ae3          	bnez	a0,14efc <.LBB0_5>

0000000000014f4c <.LBB0_10>:
   14f4c:	00070513          	mv	a0,a4
   14f50:	00008067          	ret

0000000000014f54 <__unlockfile>:
   14f54:	08c50693          	addi	a3,a0,140

0000000000014f58 <.LBB1_1>:
   14f58:	0006a503          	lw	a0,0(a3)
   14f5c:	0006a583          	lw	a1,0(a3)
   14f60:	0006a023          	sw	zero,0(a3)
   14f64:	fea59ae3          	bne	a1,a0,14f58 <.LBB1_1>
   14f68:	02151513          	slli	a0,a0,0x21
   14f6c:	02055a63          	bgez	a0,14fa0 <.LBB1_5>
   14f70:	06200893          	li	a7,98
   14f74:	08100593          	li	a1,129
   14f78:	00100613          	li	a2,1
   14f7c:	fda00713          	li	a4,-38
   14f80:	00068513          	mv	a0,a3
   14f84:	00000073          	ecall
   14f88:	00e51c63          	bne	a0,a4,14fa0 <.LBB1_5>
   14f8c:	06200893          	li	a7,98
   14f90:	00100593          	li	a1,1
   14f94:	00100613          	li	a2,1
   14f98:	00068513          	mv	a0,a3
   14f9c:	00000073          	ecall

0000000000014fa0 <.LBB1_5>:
   14fa0:	00008067          	ret

0000000000014fa4 <__towrite>:
   14fa4:	08852603          	lw	a2,136(a0)
   14fa8:	00056583          	lwu	a1,0(a0)
   14fac:	fff6069b          	addiw	a3,a2,-1
   14fb0:	00c6e633          	or	a2,a3,a2
   14fb4:	0085f693          	andi	a3,a1,8
   14fb8:	08c52423          	sw	a2,136(a0)
   14fbc:	02069663          	bnez	a3,14fe8 <.LBB0_2>
   14fc0:	05853603          	ld	a2,88(a0)
   14fc4:	06053683          	ld	a3,96(a0)
   14fc8:	00000593          	li	a1,0
   14fcc:	02c53c23          	sd	a2,56(a0)
   14fd0:	02c53423          	sd	a2,40(a0)
   14fd4:	00d60633          	add	a2,a2,a3
   14fd8:	00053823          	sd	zero,16(a0)
   14fdc:	00053423          	sd	zero,8(a0)
   14fe0:	02c53023          	sd	a2,32(a0)
   14fe4:	0100006f          	j	14ff4 <.LBB0_3>

0000000000014fe8 <.LBB0_2>:
   14fe8:	0205e593          	ori	a1,a1,32
   14fec:	00b52023          	sw	a1,0(a0)
   14ff0:	fff00593          	li	a1,-1

0000000000014ff4 <.LBB0_3>:
   14ff4:	00058513          	mv	a0,a1
   14ff8:	00008067          	ret

0000000000014ffc <__towrite_needs_stdio_exit>:
   14ffc:	0040006f          	j	15000 <__stdio_exit>

0000000000015000 <__stdio_exit>:
   15000:	ff010113          	addi	sp,sp,-16
   15004:	00113423          	sd	ra,8(sp)
   15008:	00813023          	sd	s0,0(sp)
   1500c:	0cc000ef          	jal	ra,150d8 <__ofl_lock>
   15010:	00053403          	ld	s0,0(a0)
   15014:	00040a63          	beqz	s0,15028 <.LBB0_2>

0000000000015018 <.LBB0_1>:
   15018:	00040513          	mv	a0,s0
   1501c:	03c000ef          	jal	ra,15058 <close_file>
   15020:	07043403          	ld	s0,112(s0)
   15024:	fe041ae3          	bnez	s0,15018 <.LBB0_1>

0000000000015028 <.LBB0_2>:
   15028:	0001b537          	lui	a0,0x1b
   1502c:	80853503          	ld	a0,-2040(a0) # 1a808 <__stderr_used>
   15030:	028000ef          	jal	ra,15058 <close_file>
   15034:	0001a537          	lui	a0,0x1a
   15038:	6d053503          	ld	a0,1744(a0) # 1a6d0 <__stdout_used>
   1503c:	01c000ef          	jal	ra,15058 <close_file>
   15040:	0001b537          	lui	a0,0x1b
   15044:	80853503          	ld	a0,-2040(a0) # 1a808 <__stderr_used>
   15048:	00813083          	ld	ra,8(sp)
   1504c:	00013403          	ld	s0,0(sp)
   15050:	01010113          	addi	sp,sp,16
   15054:	0040006f          	j	15058 <close_file>

0000000000015058 <close_file>:
   15058:	ff010113          	addi	sp,sp,-16
   1505c:	00113423          	sd	ra,8(sp)
   15060:	00813023          	sd	s0,0(sp)
   15064:	06050263          	beqz	a0,150c8 <.LBB1_7>
   15068:	00050413          	mv	s0,a0
   1506c:	08c52503          	lw	a0,140(a0)
   15070:	00054663          	bltz	a0,1507c <.LBB1_3>
   15074:	00040513          	mv	a0,s0
   15078:	e35ff0ef          	jal	ra,14eac <__lockfile>

000000000001507c <.LBB1_3>:
   1507c:	02843503          	ld	a0,40(s0)
   15080:	03843583          	ld	a1,56(s0)
   15084:	00b50c63          	beq	a0,a1,1509c <.LBB1_5>
   15088:	04843683          	ld	a3,72(s0)
   1508c:	00040513          	mv	a0,s0
   15090:	00000593          	li	a1,0
   15094:	00000613          	li	a2,0
   15098:	000680e7          	jalr	a3

000000000001509c <.LBB1_5>:
   1509c:	00843503          	ld	a0,8(s0)
   150a0:	01043583          	ld	a1,16(s0)
   150a4:	02b50263          	beq	a0,a1,150c8 <.LBB1_7>
   150a8:	05043303          	ld	t1,80(s0)
   150ac:	40b505b3          	sub	a1,a0,a1
   150b0:	00100613          	li	a2,1
   150b4:	00040513          	mv	a0,s0
   150b8:	00813083          	ld	ra,8(sp)
   150bc:	00013403          	ld	s0,0(sp)
   150c0:	01010113          	addi	sp,sp,16
   150c4:	00030067          	jr	t1

00000000000150c8 <.LBB1_7>:
   150c8:	00813083          	ld	ra,8(sp)
   150cc:	00013403          	ld	s0,0(sp)
   150d0:	01010113          	addi	sp,sp,16
   150d4:	00008067          	ret

00000000000150d8 <__ofl_lock>:
   150d8:	ff010113          	addi	sp,sp,-16
   150dc:	00113423          	sd	ra,8(sp)
   150e0:	0001b537          	lui	a0,0x1b
   150e4:	81050513          	addi	a0,a0,-2032 # 1a810 <ofl_lock>
   150e8:	024000ef          	jal	ra,1510c <__lock>
   150ec:	0001b537          	lui	a0,0x1b
   150f0:	81850513          	addi	a0,a0,-2024 # 1a818 <ofl_head>
   150f4:	00813083          	ld	ra,8(sp)
   150f8:	01010113          	addi	sp,sp,16
   150fc:	00008067          	ret

0000000000015100 <__ofl_unlock>:
   15100:	0001b537          	lui	a0,0x1b
   15104:	81050513          	addi	a0,a0,-2032 # 1a810 <ofl_lock>
   15108:	0c00006f          	j	151c8 <__unlock>

000000000001510c <__lock>:
   1510c:	0001b5b7          	lui	a1,0x1b
   15110:	9c45a583          	lw	a1,-1596(a1) # 1a9c4 <__libc+0xc>
   15114:	0a058863          	beqz	a1,151c4 <.LBB0_14>
   15118:	00050713          	mv	a4,a0
   1511c:	00052503          	lw	a0,0(a0)
   15120:	800007b7          	lui	a5,0x80000
   15124:	0017859b          	addiw	a1,a5,1 # ffffffff80000001 <__global_pointer$+0xffffffff7ffe5139>
   15128:	00b72023          	sw	a1,0(a4)
   1512c:	08050c63          	beqz	a0,151c4 <.LBB0_14>
   15130:	00a00593          	li	a1,10
   15134:	fff7879b          	addiw	a5,a5,-1

0000000000015138 <.LBB0_3>:
   15138:	00055463          	bgez	a0,15140 <.LBB0_5>
   1513c:	00f5053b          	addw	a0,a0,a5

0000000000015140 <.LBB0_5>:
   15140:	00050613          	mv	a2,a0
   15144:	00072503          	lw	a0,0(a4)
   15148:	00c786b3          	add	a3,a5,a2
   1514c:	0026869b          	addiw	a3,a3,2
   15150:	00d72023          	sw	a3,0(a4)
   15154:	06c50863          	beq	a0,a2,151c4 <.LBB0_14>
   15158:	fff5859b          	addiw	a1,a1,-1
   1515c:	fc059ee3          	bnez	a1,15138 <.LBB0_3>

0000000000015160 <.LBB0_7>:
   15160:	00072503          	lw	a0,0(a4)
   15164:	00072583          	lw	a1,0(a4)
   15168:	0015061b          	addiw	a2,a0,1
   1516c:	00c72023          	sw	a2,0(a4)
   15170:	fea598e3          	bne	a1,a0,15160 <.LBB0_7>
   15174:	fda00813          	li	a6,-38
   15178:	800002b7          	lui	t0,0x80000

000000000001517c <.LBB0_9>:
   1517c:	02065a63          	bgez	a2,151b0 <.LBB0_13>
   15180:	06200893          	li	a7,98
   15184:	08000593          	li	a1,128
   15188:	00070513          	mv	a0,a4
   1518c:	00000693          	li	a3,0
   15190:	00000073          	ecall
   15194:	01051c63          	bne	a0,a6,151ac <.LBB0_12>
   15198:	06200893          	li	a7,98
   1519c:	00070513          	mv	a0,a4
   151a0:	00000593          	li	a1,0
   151a4:	00000693          	li	a3,0
   151a8:	00000073          	ecall

00000000000151ac <.LBB0_12>:
   151ac:	00f6063b          	addw	a2,a2,a5

00000000000151b0 <.LBB0_13>:
   151b0:	00060513          	mv	a0,a2
   151b4:	00072603          	lw	a2,0(a4)
   151b8:	005565b3          	or	a1,a0,t0
   151bc:	00b72023          	sw	a1,0(a4)
   151c0:	faa61ee3          	bne	a2,a0,1517c <.LBB0_9>

00000000000151c4 <.LBB0_14>:
   151c4:	00008067          	ret

00000000000151c8 <__unlock>:
   151c8:	00050693          	mv	a3,a0
   151cc:	00052503          	lw	a0,0(a0)
   151d0:	00054463          	bltz	a0,151d8 <.LBB1_2>

00000000000151d4 <.LBB1_1>:
   151d4:	00008067          	ret

00000000000151d8 <.LBB1_2>:
   151d8:	800005b7          	lui	a1,0x80000
   151dc:	fff5859b          	addiw	a1,a1,-1 # 7fffffff <__global_pointer$+0x7ffe5137>

00000000000151e0 <.LBB1_3>:
   151e0:	0006a503          	lw	a0,0(a3)
   151e4:	0006a603          	lw	a2,0(a3)
   151e8:	00b50733          	add	a4,a0,a1
   151ec:	00e6a023          	sw	a4,0(a3)
   151f0:	fea618e3          	bne	a2,a0,151e0 <.LBB1_3>
   151f4:	800005b7          	lui	a1,0x80000
   151f8:	0015859b          	addiw	a1,a1,1 # ffffffff80000001 <__global_pointer$+0xffffffff7ffe5139>
   151fc:	fcb50ce3          	beq	a0,a1,151d4 <.LBB1_1>
   15200:	06200893          	li	a7,98
   15204:	08100593          	li	a1,129
   15208:	00100613          	li	a2,1
   1520c:	fda00713          	li	a4,-38
   15210:	00068513          	mv	a0,a3
   15214:	00000073          	ecall
   15218:	fae51ee3          	bne	a0,a4,151d4 <.LBB1_1>
   1521c:	06200893          	li	a7,98
   15220:	00100593          	li	a1,1
   15224:	00100613          	li	a2,1
   15228:	00068513          	mv	a0,a3
   1522c:	00000073          	ecall
   15230:	00008067          	ret

0000000000015234 <__fwritex>:
   15234:	fc010113          	addi	sp,sp,-64
   15238:	02113c23          	sd	ra,56(sp)
   1523c:	02813823          	sd	s0,48(sp)
   15240:	02913423          	sd	s1,40(sp)
   15244:	03213023          	sd	s2,32(sp)
   15248:	01313c23          	sd	s3,24(sp)
   1524c:	01413823          	sd	s4,16(sp)
   15250:	01513423          	sd	s5,8(sp)
   15254:	00060413          	mv	s0,a2
   15258:	02063603          	ld	a2,32(a2)
   1525c:	00058493          	mv	s1,a1
   15260:	00050913          	mv	s2,a0
   15264:	0a060663          	beqz	a2,15310 <.LBB0_9>

0000000000015268 <.LBB0_1>:
   15268:	02843503          	ld	a0,40(s0)
   1526c:	40a60633          	sub	a2,a2,a0
   15270:	02967c63          	bgeu	a2,s1,152a8 <.LBB0_3>
   15274:	04843303          	ld	t1,72(s0)
   15278:	00040513          	mv	a0,s0
   1527c:	00090593          	mv	a1,s2
   15280:	00048613          	mv	a2,s1
   15284:	03813083          	ld	ra,56(sp)
   15288:	03013403          	ld	s0,48(sp)
   1528c:	02813483          	ld	s1,40(sp)
   15290:	02013903          	ld	s2,32(sp)
   15294:	01813983          	ld	s3,24(sp)
   15298:	01013a03          	ld	s4,16(sp)
   1529c:	00813a83          	ld	s5,8(sp)
   152a0:	04010113          	addi	sp,sp,64
   152a4:	00030067          	jr	t1

00000000000152a8 <.LBB0_3>:
   152a8:	09042583          	lw	a1,144(s0)
   152ac:	0605cc63          	bltz	a1,15324 <.LBB0_11>
   152b0:	00000593          	li	a1,0
   152b4:	00190a93          	addi	s5,s2,1
   152b8:	fff90613          	addi	a2,s2,-1
   152bc:	fff00a13          	li	s4,-1
   152c0:	00a00693          	li	a3,10

00000000000152c4 <.LBB0_5>:
   152c4:	06b48063          	beq	s1,a1,15324 <.LBB0_11>
   152c8:	00960733          	add	a4,a2,s1
   152cc:	00074703          	lbu	a4,0(a4)
   152d0:	001a0a13          	addi	s4,s4,1
   152d4:	fffa8a93          	addi	s5,s5,-1
   152d8:	fff60613          	addi	a2,a2,-1
   152dc:	00158593          	addi	a1,a1,1
   152e0:	fed712e3          	bne	a4,a3,152c4 <.LBB0_5>
   152e4:	04843683          	ld	a3,72(s0)
   152e8:	414489b3          	sub	s3,s1,s4
   152ec:	00040513          	mv	a0,s0
   152f0:	00090593          	mv	a1,s2
   152f4:	00098613          	mv	a2,s3
   152f8:	000680e7          	jalr	a3
   152fc:	05356463          	bltu	a0,s3,15344 <.LBB0_13>
   15300:	02843503          	ld	a0,40(s0)
   15304:	009a8933          	add	s2,s5,s1
   15308:	000a0493          	mv	s1,s4
   1530c:	01c0006f          	j	15328 <.LBB0_12>

0000000000015310 <.LBB0_9>:
   15310:	00040513          	mv	a0,s0
   15314:	c91ff0ef          	jal	ra,14fa4 <__towrite>
   15318:	04050863          	beqz	a0,15368 <.LBB0_14>
   1531c:	00000513          	li	a0,0
   15320:	0240006f          	j	15344 <.LBB0_13>

0000000000015324 <.LBB0_11>:
   15324:	00000993          	li	s3,0

0000000000015328 <.LBB0_12>:
   15328:	00090593          	mv	a1,s2
   1532c:	00048613          	mv	a2,s1
   15330:	858fd0ef          	jal	ra,12388 <memcpy>
   15334:	02843503          	ld	a0,40(s0)
   15338:	00950533          	add	a0,a0,s1
   1533c:	02a43423          	sd	a0,40(s0)
   15340:	00998533          	add	a0,s3,s1

0000000000015344 <.LBB0_13>:
   15344:	03813083          	ld	ra,56(sp)
   15348:	03013403          	ld	s0,48(sp)
   1534c:	02813483          	ld	s1,40(sp)
   15350:	02013903          	ld	s2,32(sp)
   15354:	01813983          	ld	s3,24(sp)
   15358:	01013a03          	ld	s4,16(sp)
   1535c:	00813a83          	ld	s5,8(sp)
   15360:	04010113          	addi	sp,sp,64
   15364:	00008067          	ret

0000000000015368 <.LBB0_14>:
   15368:	02043603          	ld	a2,32(s0)
   1536c:	efdff06f          	j	15268 <.LBB0_1>

0000000000015370 <fwrite>:
   15370:	fc010113          	addi	sp,sp,-64
   15374:	02113c23          	sd	ra,56(sp)
   15378:	02813823          	sd	s0,48(sp)
   1537c:	02913423          	sd	s1,40(sp)
   15380:	03213023          	sd	s2,32(sp)
   15384:	01313c23          	sd	s3,24(sp)
   15388:	01413823          	sd	s4,16(sp)
   1538c:	01513423          	sd	s5,8(sp)
   15390:	00068993          	mv	s3,a3
   15394:	00060493          	mv	s1,a2
   15398:	00058413          	mv	s0,a1
   1539c:	00050a13          	mv	s4,a0
   153a0:	00060513          	mv	a0,a2
   153a4:	d30fd0ef          	jal	ra,128d4 <__muldi3>
   153a8:	08c9a583          	lw	a1,140(s3)
   153ac:	00050913          	mv	s2,a0
   153b0:	0405c263          	bltz	a1,153f4 <.LBB1_5>
   153b4:	00098513          	mv	a0,s3
   153b8:	af5ff0ef          	jal	ra,14eac <__lockfile>
   153bc:	00050a93          	mv	s5,a0
   153c0:	000a0513          	mv	a0,s4
   153c4:	00090593          	mv	a1,s2
   153c8:	00098613          	mv	a2,s3
   153cc:	e69ff0ef          	jal	ra,15234 <__fwritex>
   153d0:	00050a13          	mv	s4,a0
   153d4:	000a8663          	beqz	s5,153e0 <.LBB1_3>
   153d8:	00098513          	mv	a0,s3
   153dc:	b79ff0ef          	jal	ra,14f54 <__unlockfile>

00000000000153e0 <.LBB1_3>:
   153e0:	032a1663          	bne	s4,s2,1540c <.LBB1_6>

00000000000153e4 <.LBB1_4>:
   153e4:	00143513          	seqz	a0,s0
   153e8:	fff50513          	addi	a0,a0,-1
   153ec:	00957533          	and	a0,a0,s1
   153f0:	0280006f          	j	15418 <.LBB1_7>

00000000000153f4 <.LBB1_5>:
   153f4:	000a0513          	mv	a0,s4
   153f8:	00090593          	mv	a1,s2
   153fc:	00098613          	mv	a2,s3
   15400:	e35ff0ef          	jal	ra,15234 <__fwritex>
   15404:	00050a13          	mv	s4,a0
   15408:	fd2a0ee3          	beq	s4,s2,153e4 <.LBB1_4>

000000000001540c <.LBB1_6>:
   1540c:	000a0513          	mv	a0,s4
   15410:	00040593          	mv	a1,s0
   15414:	028000ef          	jal	ra,1543c <__udivdi3>

0000000000015418 <.LBB1_7>:
   15418:	03813083          	ld	ra,56(sp)
   1541c:	03013403          	ld	s0,48(sp)
   15420:	02813483          	ld	s1,40(sp)
   15424:	02013903          	ld	s2,32(sp)
   15428:	01813983          	ld	s3,24(sp)
   1542c:	01013a03          	ld	s4,16(sp)
   15430:	00813a83          	ld	s5,8(sp)
   15434:	04010113          	addi	sp,sp,64
   15438:	00008067          	ret

000000000001543c <__udivdi3>:
   1543c:	fe010113          	addi	sp,sp,-32
   15440:	00113c23          	sd	ra,24(sp)
   15444:	00813823          	sd	s0,16(sp)
   15448:	02010413          	addi	s0,sp,32
   1544c:	fea43423          	sd	a0,-24(s0)
   15450:	feb43023          	sd	a1,-32(s0)
   15454:	fe843503          	ld	a0,-24(s0)
   15458:	fe043583          	ld	a1,-32(s0)
   1545c:	00000613          	li	a2,0
   15460:	014000ef          	jal	ra,15474 <__udivmoddi4>
   15464:	01813083          	ld	ra,24(sp)
   15468:	01013403          	ld	s0,16(sp)
   1546c:	02010113          	addi	sp,sp,32
   15470:	00008067          	ret

0000000000015474 <__udivmoddi4>:
   15474:	f1010113          	addi	sp,sp,-240
   15478:	0e113423          	sd	ra,232(sp)
   1547c:	0e813023          	sd	s0,224(sp)
   15480:	0f010413          	addi	s0,sp,240
   15484:	fea43023          	sd	a0,-32(s0)
   15488:	fcb43c23          	sd	a1,-40(s0)
   1548c:	fcc43823          	sd	a2,-48(s0)
   15490:	02000513          	li	a0,32
   15494:	fca42623          	sw	a0,-52(s0)
   15498:	04000513          	li	a0,64
   1549c:	fca42423          	sw	a0,-56(s0)
   154a0:	fe043503          	ld	a0,-32(s0)
   154a4:	fca43023          	sd	a0,-64(s0)
   154a8:	fd843503          	ld	a0,-40(s0)
   154ac:	faa43c23          	sd	a0,-72(s0)
   154b0:	fc442503          	lw	a0,-60(s0)
   154b4:	06051a63          	bnez	a0,15528 <.LBB0_8>
   154b8:	0040006f          	j	154bc <.LBB0_1>

00000000000154bc <.LBB0_1>:
   154bc:	fbc42503          	lw	a0,-68(s0)
   154c0:	04051063          	bnez	a0,15500 <.LBB0_5>
   154c4:	0040006f          	j	154c8 <.LBB0_2>

00000000000154c8 <.LBB0_2>:
   154c8:	fd043503          	ld	a0,-48(s0)
   154cc:	02050063          	beqz	a0,154ec <.LBB0_4>
   154d0:	0040006f          	j	154d4 <.LBB0_3>

00000000000154d4 <.LBB0_3>:
   154d4:	fc046503          	lwu	a0,-64(s0)
   154d8:	fb846583          	lwu	a1,-72(s0)
   154dc:	0fd000ef          	jal	ra,15dd8 <__umoddi3>
   154e0:	fd043583          	ld	a1,-48(s0)
   154e4:	00a5b023          	sd	a0,0(a1)
   154e8:	0040006f          	j	154ec <.LBB0_4>

00000000000154ec <.LBB0_4>:
   154ec:	fc046503          	lwu	a0,-64(s0)
   154f0:	fb846583          	lwu	a1,-72(s0)
   154f4:	f49ff0ef          	jal	ra,1543c <__udivdi3>
   154f8:	fea43423          	sd	a0,-24(s0)
   154fc:	0c90006f          	j	15dc4 <.LBB0_56>

0000000000015500 <.LBB0_5>:
   15500:	fd043503          	ld	a0,-48(s0)
   15504:	00050c63          	beqz	a0,1551c <.LBB0_7>
   15508:	0040006f          	j	1550c <.LBB0_6>

000000000001550c <.LBB0_6>:
   1550c:	fc046503          	lwu	a0,-64(s0)
   15510:	fd043583          	ld	a1,-48(s0)
   15514:	00a5b023          	sd	a0,0(a1)
   15518:	0040006f          	j	1551c <.LBB0_7>

000000000001551c <.LBB0_7>:
   1551c:	00000513          	li	a0,0
   15520:	fea43423          	sd	a0,-24(s0)
   15524:	0a10006f          	j	15dc4 <.LBB0_56>

0000000000015528 <.LBB0_8>:
   15528:	fb842503          	lw	a0,-72(s0)
   1552c:	2e051463          	bnez	a0,15814 <.LBB0_26>
   15530:	0040006f          	j	15534 <.LBB0_9>

0000000000015534 <.LBB0_9>:
   15534:	fbc42503          	lw	a0,-68(s0)
   15538:	04051063          	bnez	a0,15578 <.LBB0_13>
   1553c:	0040006f          	j	15540 <.LBB0_10>

0000000000015540 <.LBB0_10>:
   15540:	fd043503          	ld	a0,-48(s0)
   15544:	02050063          	beqz	a0,15564 <.LBB0_12>
   15548:	0040006f          	j	1554c <.LBB0_11>

000000000001554c <.LBB0_11>:
   1554c:	fc446503          	lwu	a0,-60(s0)
   15550:	fb846583          	lwu	a1,-72(s0)
   15554:	085000ef          	jal	ra,15dd8 <__umoddi3>
   15558:	fd043583          	ld	a1,-48(s0)
   1555c:	00a5b023          	sd	a0,0(a1)
   15560:	0040006f          	j	15564 <.LBB0_12>

0000000000015564 <.LBB0_12>:
   15564:	fc446503          	lwu	a0,-60(s0)
   15568:	fb846583          	lwu	a1,-72(s0)
   1556c:	ed1ff0ef          	jal	ra,1543c <__udivdi3>
   15570:	fea43423          	sd	a0,-24(s0)
   15574:	0510006f          	j	15dc4 <.LBB0_56>

0000000000015578 <.LBB0_13>:
   15578:	fc042503          	lw	a0,-64(s0)
   1557c:	04051863          	bnez	a0,155cc <.LBB0_17>
   15580:	0040006f          	j	15584 <.LBB0_14>

0000000000015584 <.LBB0_14>:
   15584:	fd043503          	ld	a0,-48(s0)
   15588:	02050863          	beqz	a0,155b8 <.LBB0_16>
   1558c:	0040006f          	j	15590 <.LBB0_15>

0000000000015590 <.LBB0_15>:
   15590:	fc446503          	lwu	a0,-60(s0)
   15594:	fbc46583          	lwu	a1,-68(s0)
   15598:	041000ef          	jal	ra,15dd8 <__umoddi3>
   1559c:	faa42623          	sw	a0,-84(s0)
   155a0:	00000513          	li	a0,0
   155a4:	faa42423          	sw	a0,-88(s0)
   155a8:	fa843503          	ld	a0,-88(s0)
   155ac:	fd043583          	ld	a1,-48(s0)
   155b0:	00a5b023          	sd	a0,0(a1)
   155b4:	0040006f          	j	155b8 <.LBB0_16>

00000000000155b8 <.LBB0_16>:
   155b8:	fc446503          	lwu	a0,-60(s0)
   155bc:	fbc46583          	lwu	a1,-68(s0)
   155c0:	e7dff0ef          	jal	ra,1543c <__udivdi3>
   155c4:	fea43423          	sd	a0,-24(s0)
   155c8:	7fc0006f          	j	15dc4 <.LBB0_56>

00000000000155cc <.LBB0_17>:
   155cc:	fbc42503          	lw	a0,-68(s0)
   155d0:	fff5059b          	addiw	a1,a0,-1
   155d4:	00b57533          	and	a0,a0,a1
   155d8:	08051a63          	bnez	a0,1566c <.LBB0_21>
   155dc:	0040006f          	j	155e0 <.LBB0_18>

00000000000155e0 <.LBB0_18>:
   155e0:	fd043503          	ld	a0,-48(s0)
   155e4:	02050a63          	beqz	a0,15618 <.LBB0_20>
   155e8:	0040006f          	j	155ec <.LBB0_19>

00000000000155ec <.LBB0_19>:
   155ec:	fc042503          	lw	a0,-64(s0)
   155f0:	faa42423          	sw	a0,-88(s0)
   155f4:	fc442503          	lw	a0,-60(s0)
   155f8:	fbc42583          	lw	a1,-68(s0)
   155fc:	fff5859b          	addiw	a1,a1,-1
   15600:	00b57533          	and	a0,a0,a1
   15604:	faa42623          	sw	a0,-84(s0)
   15608:	fa843503          	ld	a0,-88(s0)
   1560c:	fd043583          	ld	a1,-48(s0)
   15610:	00a5b023          	sd	a0,0(a1)
   15614:	0040006f          	j	15618 <.LBB0_20>

0000000000015618 <.LBB0_20>:
   15618:	fc442503          	lw	a0,-60(s0)
   1561c:	f8a43823          	sd	a0,-112(s0)
   15620:	fbc42503          	lw	a0,-68(s0)
   15624:	00000593          	li	a1,0
   15628:	40a585b3          	sub	a1,a1,a0
   1562c:	00b57533          	and	a0,a0,a1
   15630:	077cb5b7          	lui	a1,0x77cb
   15634:	5315859b          	addiw	a1,a1,1329 # 77cb531 <__global_pointer$+0x77b0669>
   15638:	a9cfd0ef          	jal	ra,128d4 <__muldi3>
   1563c:	00050593          	mv	a1,a0
   15640:	f9043503          	ld	a0,-112(s0)
   15644:	01b5d61b          	srliw	a2,a1,0x1b

0000000000015648 <.Lpcrel_hi0>:
   15648:	ffffb597          	auipc	a1,0xffffb
   1564c:	f2058593          	addi	a1,a1,-224 # 10568 <xdigits+0x10>
   15650:	00c585b3          	add	a1,a1,a2
   15654:	0005c583          	lbu	a1,0(a1)
   15658:	00b5553b          	srlw	a0,a0,a1
   1565c:	02051513          	slli	a0,a0,0x20
   15660:	02055513          	srli	a0,a0,0x20
   15664:	fea43423          	sd	a0,-24(s0)
   15668:	75c0006f          	j	15dc4 <.LBB0_56>

000000000001566c <.LBB0_21>:
   1566c:	fbc42503          	lw	a0,-68(s0)
   15670:	0015559b          	srliw	a1,a0,0x1
   15674:	00b56533          	or	a0,a0,a1
   15678:	0025559b          	srliw	a1,a0,0x2
   1567c:	00b56533          	or	a0,a0,a1
   15680:	0045559b          	srliw	a1,a0,0x4
   15684:	00b56533          	or	a0,a0,a1
   15688:	0085559b          	srliw	a1,a0,0x8
   1568c:	00b56533          	or	a0,a0,a1
   15690:	0105559b          	srliw	a1,a0,0x10
   15694:	00b56533          	or	a0,a0,a1
   15698:	fff54513          	not	a0,a0
   1569c:	00155593          	srli	a1,a0,0x1
   156a0:	55555637          	lui	a2,0x55555
   156a4:	5556061b          	addiw	a2,a2,1365 # 55555555 <__global_pointer$+0x5553a68d>
   156a8:	f6c43423          	sd	a2,-152(s0)
   156ac:	00c5f5b3          	and	a1,a1,a2
   156b0:	40b505b3          	sub	a1,a0,a1
   156b4:	33333537          	lui	a0,0x33333
   156b8:	3335061b          	addiw	a2,a0,819 # 33333333 <__global_pointer$+0x3331846b>
   156bc:	f6c43823          	sd	a2,-144(s0)
   156c0:	00c5f533          	and	a0,a1,a2
   156c4:	0025d593          	srli	a1,a1,0x2
   156c8:	00c5f5b3          	and	a1,a1,a2
   156cc:	00b50533          	add	a0,a0,a1
   156d0:	00455593          	srli	a1,a0,0x4
   156d4:	00b50533          	add	a0,a0,a1
   156d8:	0f0f15b7          	lui	a1,0xf0f1
   156dc:	f0f5859b          	addiw	a1,a1,-241 # f0f0f0f <__global_pointer$+0xf0d6047>
   156e0:	f6b43c23          	sd	a1,-136(s0)
   156e4:	00b57533          	and	a0,a0,a1
   156e8:	010105b7          	lui	a1,0x1010
   156ec:	1015859b          	addiw	a1,a1,257 # 1010101 <__global_pointer$+0xff5239>
   156f0:	f8b43023          	sd	a1,-128(s0)
   156f4:	9e0fd0ef          	jal	ra,128d4 <__muldi3>
   156f8:	f6843783          	ld	a5,-152(s0)
   156fc:	f7043703          	ld	a4,-144(s0)
   15700:	f7843603          	ld	a2,-136(s0)
   15704:	f8043583          	ld	a1,-128(s0)
   15708:	0185551b          	srliw	a0,a0,0x18
   1570c:	f8a43423          	sd	a0,-120(s0)
   15710:	fc442503          	lw	a0,-60(s0)
   15714:	0015569b          	srliw	a3,a0,0x1
   15718:	00d56533          	or	a0,a0,a3
   1571c:	0025569b          	srliw	a3,a0,0x2
   15720:	00d56533          	or	a0,a0,a3
   15724:	0045569b          	srliw	a3,a0,0x4
   15728:	00d56533          	or	a0,a0,a3
   1572c:	0085569b          	srliw	a3,a0,0x8
   15730:	00d56533          	or	a0,a0,a3
   15734:	0105569b          	srliw	a3,a0,0x10
   15738:	00d56533          	or	a0,a0,a3
   1573c:	fff54513          	not	a0,a0
   15740:	00155693          	srli	a3,a0,0x1
   15744:	00f6f6b3          	and	a3,a3,a5
   15748:	40d506b3          	sub	a3,a0,a3
   1574c:	00e6f533          	and	a0,a3,a4
   15750:	0026d693          	srli	a3,a3,0x2
   15754:	00e6f6b3          	and	a3,a3,a4
   15758:	00d50533          	add	a0,a0,a3
   1575c:	00455693          	srli	a3,a0,0x4
   15760:	00d50533          	add	a0,a0,a3
   15764:	00c57533          	and	a0,a0,a2
   15768:	96cfd0ef          	jal	ra,128d4 <__muldi3>
   1576c:	00050593          	mv	a1,a0
   15770:	f8843503          	ld	a0,-120(s0)
   15774:	0185d59b          	srliw	a1,a1,0x18
   15778:	40b5053b          	subw	a0,a0,a1
   1577c:	faa42223          	sw	a0,-92(s0)
   15780:	fa442503          	lw	a0,-92(s0)
   15784:	01f00593          	li	a1,31
   15788:	02b56863          	bltu	a0,a1,157b8 <.LBB0_25>
   1578c:	0040006f          	j	15790 <.LBB0_22>

0000000000015790 <.LBB0_22>:
   15790:	fd043503          	ld	a0,-48(s0)
   15794:	00050c63          	beqz	a0,157ac <.LBB0_24>
   15798:	0040006f          	j	1579c <.LBB0_23>

000000000001579c <.LBB0_23>:
   1579c:	fc043503          	ld	a0,-64(s0)
   157a0:	fd043583          	ld	a1,-48(s0)
   157a4:	00a5b023          	sd	a0,0(a1)
   157a8:	0040006f          	j	157ac <.LBB0_24>

00000000000157ac <.LBB0_24>:
   157ac:	00000513          	li	a0,0
   157b0:	fea43423          	sd	a0,-24(s0)
   157b4:	6100006f          	j	15dc4 <.LBB0_56>

00000000000157b8 <.LBB0_25>:
   157b8:	fa442503          	lw	a0,-92(s0)
   157bc:	0015051b          	addiw	a0,a0,1
   157c0:	faa42223          	sw	a0,-92(s0)
   157c4:	00000513          	li	a0,0
   157c8:	faa42823          	sw	a0,-80(s0)
   157cc:	fc042503          	lw	a0,-64(s0)
   157d0:	fa442583          	lw	a1,-92(s0)
   157d4:	40b005bb          	negw	a1,a1
   157d8:	00b5153b          	sllw	a0,a0,a1
   157dc:	faa42a23          	sw	a0,-76(s0)
   157e0:	fc442503          	lw	a0,-60(s0)
   157e4:	fa446583          	lwu	a1,-92(s0)
   157e8:	00b5553b          	srlw	a0,a0,a1
   157ec:	faa42623          	sw	a0,-84(s0)
   157f0:	fc442503          	lw	a0,-60(s0)
   157f4:	fa446603          	lwu	a2,-92(s0)
   157f8:	40c005bb          	negw	a1,a2
   157fc:	00b5153b          	sllw	a0,a0,a1
   15800:	fc042583          	lw	a1,-64(s0)
   15804:	00c5d5bb          	srlw	a1,a1,a2
   15808:	00b56533          	or	a0,a0,a1
   1580c:	faa42423          	sw	a0,-88(s0)
   15810:	4b40006f          	j	15cc4 <.LBB0_49>

0000000000015814 <.LBB0_26>:
   15814:	fbc42503          	lw	a0,-68(s0)
   15818:	2c051863          	bnez	a0,15ae8 <.LBB0_40>
   1581c:	0040006f          	j	15820 <.LBB0_27>

0000000000015820 <.LBB0_27>:
   15820:	fb842503          	lw	a0,-72(s0)
   15824:	fff5059b          	addiw	a1,a0,-1
   15828:	00b57533          	and	a0,a0,a1
   1582c:	0a051e63          	bnez	a0,158e8 <.LBB0_33>
   15830:	0040006f          	j	15834 <.LBB0_28>

0000000000015834 <.LBB0_28>:
   15834:	fd043503          	ld	a0,-48(s0)
   15838:	02050263          	beqz	a0,1585c <.LBB0_30>
   1583c:	0040006f          	j	15840 <.LBB0_29>

0000000000015840 <.LBB0_29>:
   15840:	fc046583          	lwu	a1,-64(s0)
   15844:	fb842503          	lw	a0,-72(s0)
   15848:	fff50513          	addi	a0,a0,-1
   1584c:	00b57533          	and	a0,a0,a1
   15850:	fd043583          	ld	a1,-48(s0)
   15854:	00a5b023          	sd	a0,0(a1)
   15858:	0040006f          	j	1585c <.LBB0_30>

000000000001585c <.LBB0_30>:
   1585c:	fb842503          	lw	a0,-72(s0)
   15860:	00100593          	li	a1,1
   15864:	00b51a63          	bne	a0,a1,15878 <.LBB0_32>
   15868:	0040006f          	j	1586c <.LBB0_31>

000000000001586c <.LBB0_31>:
   1586c:	fc043503          	ld	a0,-64(s0)
   15870:	fea43423          	sd	a0,-24(s0)
   15874:	5500006f          	j	15dc4 <.LBB0_56>

0000000000015878 <.LBB0_32>:
   15878:	fb842503          	lw	a0,-72(s0)
   1587c:	00000593          	li	a1,0
   15880:	40a585b3          	sub	a1,a1,a0
   15884:	00b57533          	and	a0,a0,a1
   15888:	077cb5b7          	lui	a1,0x77cb
   1588c:	5315859b          	addiw	a1,a1,1329 # 77cb531 <__global_pointer$+0x77b0669>
   15890:	844fd0ef          	jal	ra,128d4 <__muldi3>
   15894:	01b5559b          	srliw	a1,a0,0x1b

0000000000015898 <.Lpcrel_hi1>:
   15898:	ffffb517          	auipc	a0,0xffffb
   1589c:	cd050513          	addi	a0,a0,-816 # 10568 <xdigits+0x10>
   158a0:	00b50533          	add	a0,a0,a1
   158a4:	00054503          	lbu	a0,0(a0)
   158a8:	faa42223          	sw	a0,-92(s0)
   158ac:	fc442503          	lw	a0,-60(s0)
   158b0:	fa446583          	lwu	a1,-92(s0)
   158b4:	00b5553b          	srlw	a0,a0,a1
   158b8:	faa42a23          	sw	a0,-76(s0)
   158bc:	fc442503          	lw	a0,-60(s0)
   158c0:	fa446603          	lwu	a2,-92(s0)
   158c4:	40c005bb          	negw	a1,a2
   158c8:	00b5153b          	sllw	a0,a0,a1
   158cc:	fc042583          	lw	a1,-64(s0)
   158d0:	00c5d5bb          	srlw	a1,a1,a2
   158d4:	00b56533          	or	a0,a0,a1
   158d8:	faa42823          	sw	a0,-80(s0)
   158dc:	fb043503          	ld	a0,-80(s0)
   158e0:	fea43423          	sd	a0,-24(s0)
   158e4:	4e00006f          	j	15dc4 <.LBB0_56>

00000000000158e8 <.LBB0_33>:
   158e8:	fb842503          	lw	a0,-72(s0)
   158ec:	0015559b          	srliw	a1,a0,0x1
   158f0:	00b56533          	or	a0,a0,a1
   158f4:	0025559b          	srliw	a1,a0,0x2
   158f8:	00b56533          	or	a0,a0,a1
   158fc:	0045559b          	srliw	a1,a0,0x4
   15900:	00b56533          	or	a0,a0,a1
   15904:	0085559b          	srliw	a1,a0,0x8
   15908:	00b56533          	or	a0,a0,a1
   1590c:	0105559b          	srliw	a1,a0,0x10
   15910:	00b56533          	or	a0,a0,a1
   15914:	fff54513          	not	a0,a0
   15918:	00155593          	srli	a1,a0,0x1
   1591c:	55555637          	lui	a2,0x55555
   15920:	5556061b          	addiw	a2,a2,1365 # 55555555 <__global_pointer$+0x5553a68d>
   15924:	f4c43023          	sd	a2,-192(s0)
   15928:	00c5f5b3          	and	a1,a1,a2
   1592c:	40b505b3          	sub	a1,a0,a1
   15930:	33333537          	lui	a0,0x33333
   15934:	3335061b          	addiw	a2,a0,819 # 33333333 <__global_pointer$+0x3331846b>
   15938:	f4c43423          	sd	a2,-184(s0)
   1593c:	00c5f533          	and	a0,a1,a2
   15940:	0025d593          	srli	a1,a1,0x2
   15944:	00c5f5b3          	and	a1,a1,a2
   15948:	00b50533          	add	a0,a0,a1
   1594c:	00455593          	srli	a1,a0,0x4
   15950:	00b50533          	add	a0,a0,a1
   15954:	0f0f15b7          	lui	a1,0xf0f1
   15958:	f0f5859b          	addiw	a1,a1,-241 # f0f0f0f <__global_pointer$+0xf0d6047>
   1595c:	f4b43823          	sd	a1,-176(s0)
   15960:	00b57533          	and	a0,a0,a1
   15964:	010105b7          	lui	a1,0x1010
   15968:	1015859b          	addiw	a1,a1,257 # 1010101 <__global_pointer$+0xff5239>
   1596c:	f4b43c23          	sd	a1,-168(s0)
   15970:	f65fc0ef          	jal	ra,128d4 <__muldi3>
   15974:	f4043783          	ld	a5,-192(s0)
   15978:	f4843703          	ld	a4,-184(s0)
   1597c:	f5043603          	ld	a2,-176(s0)
   15980:	f5843583          	ld	a1,-168(s0)
   15984:	0185551b          	srliw	a0,a0,0x18
   15988:	f6a43023          	sd	a0,-160(s0)
   1598c:	fc442503          	lw	a0,-60(s0)
   15990:	0015569b          	srliw	a3,a0,0x1
   15994:	00d56533          	or	a0,a0,a3
   15998:	0025569b          	srliw	a3,a0,0x2
   1599c:	00d56533          	or	a0,a0,a3
   159a0:	0045569b          	srliw	a3,a0,0x4
   159a4:	00d56533          	or	a0,a0,a3
   159a8:	0085569b          	srliw	a3,a0,0x8
   159ac:	00d56533          	or	a0,a0,a3
   159b0:	0105569b          	srliw	a3,a0,0x10
   159b4:	00d56533          	or	a0,a0,a3
   159b8:	fff54513          	not	a0,a0
   159bc:	00155693          	srli	a3,a0,0x1
   159c0:	00f6f6b3          	and	a3,a3,a5
   159c4:	40d506b3          	sub	a3,a0,a3
   159c8:	00e6f533          	and	a0,a3,a4
   159cc:	0026d693          	srli	a3,a3,0x2
   159d0:	00e6f6b3          	and	a3,a3,a4
   159d4:	00d50533          	add	a0,a0,a3
   159d8:	00455693          	srli	a3,a0,0x4
   159dc:	00d50533          	add	a0,a0,a3
   159e0:	00c57533          	and	a0,a0,a2
   159e4:	ef1fc0ef          	jal	ra,128d4 <__muldi3>
   159e8:	00050593          	mv	a1,a0
   159ec:	f6043503          	ld	a0,-160(s0)
   159f0:	0185d59b          	srliw	a1,a1,0x18
   159f4:	40b5053b          	subw	a0,a0,a1
   159f8:	0215051b          	addiw	a0,a0,33
   159fc:	faa42223          	sw	a0,-92(s0)
   15a00:	fa442503          	lw	a0,-92(s0)
   15a04:	02000593          	li	a1,32
   15a08:	02b51463          	bne	a0,a1,15a30 <.LBB0_35>
   15a0c:	0040006f          	j	15a10 <.LBB0_34>

0000000000015a10 <.LBB0_34>:
   15a10:	00000513          	li	a0,0
   15a14:	faa42823          	sw	a0,-80(s0)
   15a18:	fc042583          	lw	a1,-64(s0)
   15a1c:	fab42a23          	sw	a1,-76(s0)
   15a20:	faa42623          	sw	a0,-84(s0)
   15a24:	fc442503          	lw	a0,-60(s0)
   15a28:	faa42423          	sw	a0,-88(s0)
   15a2c:	0b80006f          	j	15ae4 <.LBB0_39>

0000000000015a30 <.LBB0_35>:
   15a30:	fa442583          	lw	a1,-92(s0)
   15a34:	01f00513          	li	a0,31
   15a38:	04b56c63          	bltu	a0,a1,15a90 <.LBB0_37>
   15a3c:	0040006f          	j	15a40 <.LBB0_36>

0000000000015a40 <.LBB0_36>:
   15a40:	00000513          	li	a0,0
   15a44:	faa42823          	sw	a0,-80(s0)
   15a48:	fc042503          	lw	a0,-64(s0)
   15a4c:	fa442583          	lw	a1,-92(s0)
   15a50:	40b005bb          	negw	a1,a1
   15a54:	00b5153b          	sllw	a0,a0,a1
   15a58:	faa42a23          	sw	a0,-76(s0)
   15a5c:	fc442503          	lw	a0,-60(s0)
   15a60:	fa446583          	lwu	a1,-92(s0)
   15a64:	00b5553b          	srlw	a0,a0,a1
   15a68:	faa42623          	sw	a0,-84(s0)
   15a6c:	fc442503          	lw	a0,-60(s0)
   15a70:	fa446603          	lwu	a2,-92(s0)
   15a74:	40c005bb          	negw	a1,a2
   15a78:	00b5153b          	sllw	a0,a0,a1
   15a7c:	fc042583          	lw	a1,-64(s0)
   15a80:	00c5d5bb          	srlw	a1,a1,a2
   15a84:	00b56533          	or	a0,a0,a1
   15a88:	faa42423          	sw	a0,-88(s0)
   15a8c:	0540006f          	j	15ae0 <.LBB0_38>

0000000000015a90 <.LBB0_37>:
   15a90:	fc042503          	lw	a0,-64(s0)
   15a94:	fa442583          	lw	a1,-92(s0)
   15a98:	40b005bb          	negw	a1,a1
   15a9c:	00b5153b          	sllw	a0,a0,a1
   15aa0:	faa42823          	sw	a0,-80(s0)
   15aa4:	fc442503          	lw	a0,-60(s0)
   15aa8:	fa442603          	lw	a2,-92(s0)
   15aac:	40c005bb          	negw	a1,a2
   15ab0:	00b5153b          	sllw	a0,a0,a1
   15ab4:	fc042583          	lw	a1,-64(s0)
   15ab8:	00c5d5bb          	srlw	a1,a1,a2
   15abc:	00b56533          	or	a0,a0,a1
   15ac0:	faa42a23          	sw	a0,-76(s0)
   15ac4:	00000513          	li	a0,0
   15ac8:	faa42623          	sw	a0,-84(s0)
   15acc:	fc442503          	lw	a0,-60(s0)
   15ad0:	fa442583          	lw	a1,-92(s0)
   15ad4:	00b5553b          	srlw	a0,a0,a1
   15ad8:	faa42423          	sw	a0,-88(s0)
   15adc:	0040006f          	j	15ae0 <.LBB0_38>

0000000000015ae0 <.LBB0_38>:
   15ae0:	0040006f          	j	15ae4 <.LBB0_39>

0000000000015ae4 <.LBB0_39>:
   15ae4:	1dc0006f          	j	15cc0 <.LBB0_48>

0000000000015ae8 <.LBB0_40>:
   15ae8:	fbc42503          	lw	a0,-68(s0)
   15aec:	0015559b          	srliw	a1,a0,0x1
   15af0:	00b56533          	or	a0,a0,a1
   15af4:	0025559b          	srliw	a1,a0,0x2
   15af8:	00b56533          	or	a0,a0,a1
   15afc:	0045559b          	srliw	a1,a0,0x4
   15b00:	00b56533          	or	a0,a0,a1
   15b04:	0085559b          	srliw	a1,a0,0x8
   15b08:	00b56533          	or	a0,a0,a1
   15b0c:	0105559b          	srliw	a1,a0,0x10
   15b10:	00b56533          	or	a0,a0,a1
   15b14:	fff54513          	not	a0,a0
   15b18:	00155593          	srli	a1,a0,0x1
   15b1c:	55555637          	lui	a2,0x55555
   15b20:	5556061b          	addiw	a2,a2,1365 # 55555555 <__global_pointer$+0x5553a68d>
   15b24:	f0c43c23          	sd	a2,-232(s0)
   15b28:	00c5f5b3          	and	a1,a1,a2
   15b2c:	40b505b3          	sub	a1,a0,a1
   15b30:	33333537          	lui	a0,0x33333
   15b34:	3335061b          	addiw	a2,a0,819 # 33333333 <__global_pointer$+0x3331846b>
   15b38:	f2c43023          	sd	a2,-224(s0)
   15b3c:	00c5f533          	and	a0,a1,a2
   15b40:	0025d593          	srli	a1,a1,0x2
   15b44:	00c5f5b3          	and	a1,a1,a2
   15b48:	00b50533          	add	a0,a0,a1
   15b4c:	00455593          	srli	a1,a0,0x4
   15b50:	00b50533          	add	a0,a0,a1
   15b54:	0f0f15b7          	lui	a1,0xf0f1
   15b58:	f0f5859b          	addiw	a1,a1,-241 # f0f0f0f <__global_pointer$+0xf0d6047>
   15b5c:	f2b43423          	sd	a1,-216(s0)
   15b60:	00b57533          	and	a0,a0,a1
   15b64:	010105b7          	lui	a1,0x1010
   15b68:	1015859b          	addiw	a1,a1,257 # 1010101 <__global_pointer$+0xff5239>
   15b6c:	f2b43823          	sd	a1,-208(s0)
   15b70:	d65fc0ef          	jal	ra,128d4 <__muldi3>
   15b74:	f1843783          	ld	a5,-232(s0)
   15b78:	f2043703          	ld	a4,-224(s0)
   15b7c:	f2843603          	ld	a2,-216(s0)
   15b80:	f3043583          	ld	a1,-208(s0)
   15b84:	0185551b          	srliw	a0,a0,0x18
   15b88:	f2a43c23          	sd	a0,-200(s0)
   15b8c:	fc442503          	lw	a0,-60(s0)
   15b90:	0015569b          	srliw	a3,a0,0x1
   15b94:	00d56533          	or	a0,a0,a3
   15b98:	0025569b          	srliw	a3,a0,0x2
   15b9c:	00d56533          	or	a0,a0,a3
   15ba0:	0045569b          	srliw	a3,a0,0x4
   15ba4:	00d56533          	or	a0,a0,a3
   15ba8:	0085569b          	srliw	a3,a0,0x8
   15bac:	00d56533          	or	a0,a0,a3
   15bb0:	0105569b          	srliw	a3,a0,0x10
   15bb4:	00d56533          	or	a0,a0,a3
   15bb8:	fff54513          	not	a0,a0
   15bbc:	00155693          	srli	a3,a0,0x1
   15bc0:	00f6f6b3          	and	a3,a3,a5
   15bc4:	40d506b3          	sub	a3,a0,a3
   15bc8:	00e6f533          	and	a0,a3,a4
   15bcc:	0026d693          	srli	a3,a3,0x2
   15bd0:	00e6f6b3          	and	a3,a3,a4
   15bd4:	00d50533          	add	a0,a0,a3
   15bd8:	00455693          	srli	a3,a0,0x4
   15bdc:	00d50533          	add	a0,a0,a3
   15be0:	00c57533          	and	a0,a0,a2
   15be4:	cf1fc0ef          	jal	ra,128d4 <__muldi3>
   15be8:	00050593          	mv	a1,a0
   15bec:	f3843503          	ld	a0,-200(s0)
   15bf0:	0185d59b          	srliw	a1,a1,0x18
   15bf4:	40b5053b          	subw	a0,a0,a1
   15bf8:	faa42223          	sw	a0,-92(s0)
   15bfc:	fa442503          	lw	a0,-92(s0)
   15c00:	02000593          	li	a1,32
   15c04:	02b56863          	bltu	a0,a1,15c34 <.LBB0_44>
   15c08:	0040006f          	j	15c0c <.LBB0_41>

0000000000015c0c <.LBB0_41>:
   15c0c:	fd043503          	ld	a0,-48(s0)
   15c10:	00050c63          	beqz	a0,15c28 <.LBB0_43>
   15c14:	0040006f          	j	15c18 <.LBB0_42>

0000000000015c18 <.LBB0_42>:
   15c18:	fc043503          	ld	a0,-64(s0)
   15c1c:	fd043583          	ld	a1,-48(s0)
   15c20:	00a5b023          	sd	a0,0(a1)
   15c24:	0040006f          	j	15c28 <.LBB0_43>

0000000000015c28 <.LBB0_43>:
   15c28:	00000513          	li	a0,0
   15c2c:	fea43423          	sd	a0,-24(s0)
   15c30:	1940006f          	j	15dc4 <.LBB0_56>

0000000000015c34 <.LBB0_44>:
   15c34:	fa442503          	lw	a0,-92(s0)
   15c38:	0015051b          	addiw	a0,a0,1
   15c3c:	faa42223          	sw	a0,-92(s0)
   15c40:	00000513          	li	a0,0
   15c44:	faa42823          	sw	a0,-80(s0)
   15c48:	fa442503          	lw	a0,-92(s0)
   15c4c:	02000593          	li	a1,32
   15c50:	02b51263          	bne	a0,a1,15c74 <.LBB0_46>
   15c54:	0040006f          	j	15c58 <.LBB0_45>

0000000000015c58 <.LBB0_45>:
   15c58:	fc042503          	lw	a0,-64(s0)
   15c5c:	faa42a23          	sw	a0,-76(s0)
   15c60:	00000513          	li	a0,0
   15c64:	faa42623          	sw	a0,-84(s0)
   15c68:	fc442503          	lw	a0,-60(s0)
   15c6c:	faa42423          	sw	a0,-88(s0)
   15c70:	04c0006f          	j	15cbc <.LBB0_47>

0000000000015c74 <.LBB0_46>:
   15c74:	fc042503          	lw	a0,-64(s0)
   15c78:	fa442583          	lw	a1,-92(s0)
   15c7c:	40b005bb          	negw	a1,a1
   15c80:	00b5153b          	sllw	a0,a0,a1
   15c84:	faa42a23          	sw	a0,-76(s0)
   15c88:	fc442503          	lw	a0,-60(s0)
   15c8c:	fa446583          	lwu	a1,-92(s0)
   15c90:	00b5553b          	srlw	a0,a0,a1
   15c94:	faa42623          	sw	a0,-84(s0)
   15c98:	fc442503          	lw	a0,-60(s0)
   15c9c:	fa446603          	lwu	a2,-92(s0)
   15ca0:	40c005bb          	negw	a1,a2
   15ca4:	00b5153b          	sllw	a0,a0,a1
   15ca8:	fc042583          	lw	a1,-64(s0)
   15cac:	00c5d5bb          	srlw	a1,a1,a2
   15cb0:	00b56533          	or	a0,a0,a1
   15cb4:	faa42423          	sw	a0,-88(s0)
   15cb8:	0040006f          	j	15cbc <.LBB0_47>

0000000000015cbc <.LBB0_47>:
   15cbc:	0040006f          	j	15cc0 <.LBB0_48>

0000000000015cc0 <.LBB0_48>:
   15cc0:	0040006f          	j	15cc4 <.LBB0_49>

0000000000015cc4 <.LBB0_49>:
   15cc4:	00000513          	li	a0,0
   15cc8:	faa42023          	sw	a0,-96(s0)
   15ccc:	0040006f          	j	15cd0 <.LBB0_50>

0000000000015cd0 <.LBB0_50>:
   15cd0:	fa442503          	lw	a0,-92(s0)
   15cd4:	0a050a63          	beqz	a0,15d88 <.LBB0_53>
   15cd8:	0040006f          	j	15cdc <.LBB0_51>

0000000000015cdc <.LBB0_51>:
   15cdc:	fac42503          	lw	a0,-84(s0)
   15ce0:	0015151b          	slliw	a0,a0,0x1
   15ce4:	fa846583          	lwu	a1,-88(s0)
   15ce8:	01f5d593          	srli	a1,a1,0x1f
   15cec:	00b56533          	or	a0,a0,a1
   15cf0:	faa42623          	sw	a0,-84(s0)
   15cf4:	fa842503          	lw	a0,-88(s0)
   15cf8:	0015151b          	slliw	a0,a0,0x1
   15cfc:	fb446583          	lwu	a1,-76(s0)
   15d00:	01f5d593          	srli	a1,a1,0x1f
   15d04:	00b56533          	or	a0,a0,a1
   15d08:	faa42423          	sw	a0,-88(s0)
   15d0c:	fb442503          	lw	a0,-76(s0)
   15d10:	0015151b          	slliw	a0,a0,0x1
   15d14:	fb046583          	lwu	a1,-80(s0)
   15d18:	01f5d593          	srli	a1,a1,0x1f
   15d1c:	00b56533          	or	a0,a0,a1
   15d20:	faa42a23          	sw	a0,-76(s0)
   15d24:	fb042503          	lw	a0,-80(s0)
   15d28:	0015151b          	slliw	a0,a0,0x1
   15d2c:	fa042583          	lw	a1,-96(s0)
   15d30:	00b56533          	or	a0,a0,a1
   15d34:	faa42823          	sw	a0,-80(s0)
   15d38:	fb843583          	ld	a1,-72(s0)
   15d3c:	fa843503          	ld	a0,-88(s0)
   15d40:	fff54513          	not	a0,a0
   15d44:	00b50533          	add	a0,a0,a1
   15d48:	43f55513          	srai	a0,a0,0x3f
   15d4c:	f8a43c23          	sd	a0,-104(s0)
   15d50:	f9843503          	ld	a0,-104(s0)
   15d54:	00157513          	andi	a0,a0,1
   15d58:	faa42023          	sw	a0,-96(s0)
   15d5c:	fb843503          	ld	a0,-72(s0)
   15d60:	f9843583          	ld	a1,-104(s0)
   15d64:	00b575b3          	and	a1,a0,a1
   15d68:	fa843503          	ld	a0,-88(s0)
   15d6c:	40b50533          	sub	a0,a0,a1
   15d70:	faa43423          	sd	a0,-88(s0)
   15d74:	0040006f          	j	15d78 <.LBB0_52>

0000000000015d78 <.LBB0_52>:
   15d78:	fa442503          	lw	a0,-92(s0)
   15d7c:	fff5051b          	addiw	a0,a0,-1
   15d80:	faa42223          	sw	a0,-92(s0)
   15d84:	f4dff06f          	j	15cd0 <.LBB0_50>

0000000000015d88 <.LBB0_53>:
   15d88:	fb043503          	ld	a0,-80(s0)
   15d8c:	00151513          	slli	a0,a0,0x1
   15d90:	fa046583          	lwu	a1,-96(s0)
   15d94:	00b56533          	or	a0,a0,a1
   15d98:	faa43823          	sd	a0,-80(s0)
   15d9c:	fd043503          	ld	a0,-48(s0)
   15da0:	00050c63          	beqz	a0,15db8 <.LBB0_55>
   15da4:	0040006f          	j	15da8 <.LBB0_54>

0000000000015da8 <.LBB0_54>:
   15da8:	fa843503          	ld	a0,-88(s0)
   15dac:	fd043583          	ld	a1,-48(s0)
   15db0:	00a5b023          	sd	a0,0(a1)
   15db4:	0040006f          	j	15db8 <.LBB0_55>

0000000000015db8 <.LBB0_55>:
   15db8:	fb043503          	ld	a0,-80(s0)
   15dbc:	fea43423          	sd	a0,-24(s0)
   15dc0:	0040006f          	j	15dc4 <.LBB0_56>

0000000000015dc4 <.LBB0_56>:
   15dc4:	fe843503          	ld	a0,-24(s0)
   15dc8:	0e813083          	ld	ra,232(sp)
   15dcc:	0e013403          	ld	s0,224(sp)
   15dd0:	0f010113          	addi	sp,sp,240
   15dd4:	00008067          	ret

0000000000015dd8 <__umoddi3>:
   15dd8:	fd010113          	addi	sp,sp,-48
   15ddc:	02113423          	sd	ra,40(sp)
   15de0:	02813023          	sd	s0,32(sp)
   15de4:	03010413          	addi	s0,sp,48
   15de8:	fea43423          	sd	a0,-24(s0)
   15dec:	feb43023          	sd	a1,-32(s0)
   15df0:	fe843503          	ld	a0,-24(s0)
   15df4:	fe043583          	ld	a1,-32(s0)
   15df8:	fd840613          	addi	a2,s0,-40
   15dfc:	e78ff0ef          	jal	ra,15474 <__udivmoddi4>
   15e00:	fd843503          	ld	a0,-40(s0)
   15e04:	02813083          	ld	ra,40(sp)
   15e08:	02013403          	ld	s0,32(sp)
   15e0c:	03010113          	addi	sp,sp,48
   15e10:	00008067          	ret

0000000000015e14 <__signbitl>:
   15e14:	03f5d513          	srli	a0,a1,0x3f
   15e18:	00008067          	ret

0000000000015e1c <wctomb>:
   15e1c:	00050e63          	beqz	a0,15e38 <.LBB0_2>
   15e20:	ff010113          	addi	sp,sp,-16
   15e24:	00113423          	sd	ra,8(sp)
   15e28:	00000613          	li	a2,0
   15e2c:	014000ef          	jal	ra,15e40 <wcrtomb>
   15e30:	00813083          	ld	ra,8(sp)
   15e34:	01010113          	addi	sp,sp,16

0000000000015e38 <.LBB0_2>:
   15e38:	0005051b          	sext.w	a0,a0
   15e3c:	00008067          	ret

0000000000015e40 <wcrtomb>:
   15e40:	ff010113          	addi	sp,sp,-16
   15e44:	00113423          	sd	ra,8(sp)
   15e48:	00100613          	li	a2,1
   15e4c:	10050463          	beqz	a0,15f54 <.LBB0_12>
   15e50:	07f00693          	li	a3,127
   15e54:	00b6e663          	bltu	a3,a1,15e60 <.LBB0_3>

0000000000015e58 <.LBB0_2>:
   15e58:	00b50023          	sb	a1,0(a0)
   15e5c:	0f80006f          	j	15f54 <.LBB0_12>

0000000000015e60 <.LBB0_3>:
   15e60:	00020693          	mv	a3,tp
   15e64:	fd06b683          	ld	a3,-48(a3)
   15e68:	0006b683          	ld	a3,0(a3)
   15e6c:	02068663          	beqz	a3,15e98 <.LBB0_6>
   15e70:	7ff00613          	li	a2,2047
   15e74:	02b66a63          	bltu	a2,a1,15ea8 <.LBB0_7>
   15e78:	0065d613          	srli	a2,a1,0x6
   15e7c:	0c066613          	ori	a2,a2,192
   15e80:	00c50023          	sb	a2,0(a0)
   15e84:	03f5f593          	andi	a1,a1,63
   15e88:	08058593          	addi	a1,a1,128
   15e8c:	00b500a3          	sb	a1,1(a0)
   15e90:	00200613          	li	a2,2
   15e94:	0c00006f          	j	15f54 <.LBB0_12>

0000000000015e98 <.LBB0_6>:
   15e98:	0075d69b          	srliw	a3,a1,0x7
   15e9c:	1bf00713          	li	a4,447
   15ea0:	fae68ce3          	beq	a3,a4,15e58 <.LBB0_2>
   15ea4:	0a00006f          	j	15f44 <.LBB0_11>

0000000000015ea8 <.LBB0_7>:
   15ea8:	00b5d61b          	srliw	a2,a1,0xb
   15eac:	01b63613          	sltiu	a2,a2,27
   15eb0:	00d5d69b          	srliw	a3,a1,0xd
   15eb4:	ff968693          	addi	a3,a3,-7
   15eb8:	0016b693          	seqz	a3,a3
   15ebc:	00c6e633          	or	a2,a3,a2
   15ec0:	02060a63          	beqz	a2,15ef4 <.LBB0_9>
   15ec4:	00c5d613          	srli	a2,a1,0xc
   15ec8:	0e066613          	ori	a2,a2,224
   15ecc:	00c50023          	sb	a2,0(a0)
   15ed0:	03459613          	slli	a2,a1,0x34
   15ed4:	03a65613          	srli	a2,a2,0x3a
   15ed8:	08060613          	addi	a2,a2,128
   15edc:	00c500a3          	sb	a2,1(a0)
   15ee0:	03f5f593          	andi	a1,a1,63
   15ee4:	08058593          	addi	a1,a1,128
   15ee8:	00b50123          	sb	a1,2(a0)
   15eec:	00300613          	li	a2,3
   15ef0:	0640006f          	j	15f54 <.LBB0_12>

0000000000015ef4 <.LBB0_9>:
   15ef4:	ffff0637          	lui	a2,0xffff0
   15ef8:	00c58633          	add	a2,a1,a2
   15efc:	0146561b          	srliw	a2,a2,0x14
   15f00:	04061263          	bnez	a2,15f44 <.LBB0_11>
   15f04:	0125d613          	srli	a2,a1,0x12
   15f08:	0f066613          	ori	a2,a2,240
   15f0c:	00c50023          	sb	a2,0(a0)
   15f10:	02e59613          	slli	a2,a1,0x2e
   15f14:	03a65613          	srli	a2,a2,0x3a
   15f18:	08060613          	addi	a2,a2,128 # ffffffffffff0080 <__global_pointer$+0xfffffffffffd51b8>
   15f1c:	00c500a3          	sb	a2,1(a0)
   15f20:	03459613          	slli	a2,a1,0x34
   15f24:	03a65613          	srli	a2,a2,0x3a
   15f28:	08060613          	addi	a2,a2,128
   15f2c:	00c50123          	sb	a2,2(a0)
   15f30:	03f5f593          	andi	a1,a1,63
   15f34:	08058593          	addi	a1,a1,128
   15f38:	00b501a3          	sb	a1,3(a0)
   15f3c:	00400613          	li	a2,4
   15f40:	0140006f          	j	15f54 <.LBB0_12>

0000000000015f44 <.LBB0_11>:
   15f44:	a91fc0ef          	jal	ra,129d4 <__errno_location>
   15f48:	05400593          	li	a1,84
   15f4c:	00b52023          	sw	a1,0(a0)
   15f50:	fff00613          	li	a2,-1

0000000000015f54 <.LBB0_12>:
   15f54:	00060513          	mv	a0,a2
   15f58:	00813083          	ld	ra,8(sp)
   15f5c:	01010113          	addi	sp,sp,16
   15f60:	00008067          	ret

0000000000015f64 <__strerror_l>:
   15f64:	00000613          	li	a2,0
   15f68:	000106b7          	lui	a3,0x10
   15f6c:	20768693          	addi	a3,a3,519 # 10207 <errid>
   15f70:	05800713          	li	a4,88

0000000000015f74 <.LBB0_1>:
   15f74:	0006c783          	lbu	a5,0(a3)
   15f78:	00a78e63          	beq	a5,a0,15f94 <.LBB0_4>
   15f7c:	0016061b          	addiw	a2,a2,1
   15f80:	fff70713          	addi	a4,a4,-1
   15f84:	00168693          	addi	a3,a3,1
   15f88:	fe0716e3          	bnez	a4,15f74 <.LBB0_1>
   15f8c:	05800613          	li	a2,88
   15f90:	0080006f          	j	15f98 <.LBB0_5>

0000000000015f94 <.LBB0_4>:
   15f94:	02060263          	beqz	a2,15fb8 <.LBB0_8>

0000000000015f98 <.LBB0_5>:
   15f98:	00010537          	lui	a0,0x10
   15f9c:	58850513          	addi	a0,a0,1416 # 10588 <errmsg>

0000000000015fa0 <.LBB0_6>:
   15fa0:	00054683          	lbu	a3,0(a0)
   15fa4:	00150513          	addi	a0,a0,1
   15fa8:	fe069ce3          	bnez	a3,15fa0 <.LBB0_6>
   15fac:	fff6061b          	addiw	a2,a2,-1
   15fb0:	fe0618e3          	bnez	a2,15fa0 <.LBB0_6>
   15fb4:	00c0006f          	j	15fc0 <.LBB0_9>

0000000000015fb8 <.LBB0_8>:
   15fb8:	00010537          	lui	a0,0x10
   15fbc:	58850513          	addi	a0,a0,1416 # 10588 <errmsg>

0000000000015fc0 <.LBB0_9>:
   15fc0:	0285b583          	ld	a1,40(a1)
   15fc4:	0140006f          	j	15fd8 <__lctrans>

0000000000015fc8 <strerror>:
   15fc8:	00020593          	mv	a1,tp
   15fcc:	fd05b583          	ld	a1,-48(a1)
   15fd0:	f95ff06f          	j	15f64 <__strerror_l>

0000000000015fd4 <__lctrans_impl>:
   15fd4:	00008067          	ret

0000000000015fd8 <__lctrans>:
   15fd8:	ffdff06f          	j	15fd4 <__lctrans_impl>

0000000000015fdc <__lctrans_cur>:
   15fdc:	00020593          	mv	a1,tp
   15fe0:	fd05b583          	ld	a1,-48(a1)
   15fe4:	0285b583          	ld	a1,40(a1)
   15fe8:	fedff06f          	j	15fd4 <__lctrans_impl>

0000000000015fec <strnlen>:
   15fec:	fe010113          	addi	sp,sp,-32
   15ff0:	00113c23          	sd	ra,24(sp)
   15ff4:	00813823          	sd	s0,16(sp)
   15ff8:	00913423          	sd	s1,8(sp)
   15ffc:	00058413          	mv	s0,a1
   16000:	00050493          	mv	s1,a0
   16004:	00000593          	li	a1,0
   16008:	00040613          	mv	a2,s0
   1600c:	024000ef          	jal	ra,16030 <memchr>
   16010:	00050463          	beqz	a0,16018 <.LBB0_2>
   16014:	40950433          	sub	s0,a0,s1

0000000000016018 <.LBB0_2>:
   16018:	00040513          	mv	a0,s0
   1601c:	01813083          	ld	ra,24(sp)
   16020:	01013403          	ld	s0,16(sp)
   16024:	00813483          	ld	s1,8(sp)
   16028:	02010113          	addi	sp,sp,32
   1602c:	00008067          	ret

0000000000016030 <memchr>:
   16030:	fe010113          	addi	sp,sp,-32
   16034:	00113c23          	sd	ra,24(sp)
   16038:	00813823          	sd	s0,16(sp)
   1603c:	00913423          	sd	s1,8(sp)
   16040:	01213023          	sd	s2,0(sp)
   16044:	00060493          	mv	s1,a2
   16048:	00050413          	mv	s0,a0
   1604c:	00757513          	andi	a0,a0,7
   16050:	00153513          	seqz	a0,a0
   16054:	00163613          	seqz	a2,a2
   16058:	00c56533          	or	a0,a0,a2
   1605c:	0ff5f913          	zext.b	s2,a1
   16060:	02051c63          	bnez	a0,16098 <.LBB0_5>
   16064:	00140513          	addi	a0,s0,1

0000000000016068 <.LBB0_2>:
   16068:	00044583          	lbu	a1,0(s0)
   1606c:	09258a63          	beq	a1,s2,16100 <.LBB0_12>
   16070:	00140413          	addi	s0,s0,1
   16074:	fff48493          	addi	s1,s1,-1
   16078:	00757593          	andi	a1,a0,7
   1607c:	00b03633          	snez	a2,a1
   16080:	009035b3          	snez	a1,s1
   16084:	00b67633          	and	a2,a2,a1
   16088:	00150513          	addi	a0,a0,1
   1608c:	fc061ee3          	bnez	a2,16068 <.LBB0_2>
   16090:	00059863          	bnez	a1,160a0 <.LBB0_6>
   16094:	0800006f          	j	16114 <.LBB0_14>

0000000000016098 <.LBB0_5>:
   16098:	009035b3          	snez	a1,s1
   1609c:	06058c63          	beqz	a1,16114 <.LBB0_14>

00000000000160a0 <.LBB0_6>:
   160a0:	00044503          	lbu	a0,0(s0)
   160a4:	05250c63          	beq	a0,s2,160fc <.LBB0_11>
   160a8:	0001a537          	lui	a0,0x1a
   160ac:	6d853583          	ld	a1,1752(a0) # 1a6d8 <.LCPI0_0>
   160b0:	00090513          	mv	a0,s2
   160b4:	821fc0ef          	jal	ra,128d4 <__muldi3>
   160b8:	00800593          	li	a1,8
   160bc:	04b4e063          	bltu	s1,a1,160fc <.LBB0_11>
   160c0:	0001a5b7          	lui	a1,0x1a
   160c4:	6e05b583          	ld	a1,1760(a1) # 1a6e0 <.LCPI0_1>
   160c8:	0001a637          	lui	a2,0x1a
   160cc:	6e863603          	ld	a2,1768(a2) # 1a6e8 <.LCPI0_2>
   160d0:	00700693          	li	a3,7

00000000000160d4 <.LBB0_9>:
   160d4:	00043703          	ld	a4,0(s0)
   160d8:	00a74733          	xor	a4,a4,a0
   160dc:	fff74793          	not	a5,a4
   160e0:	00c70733          	add	a4,a4,a2
   160e4:	00b7f7b3          	and	a5,a5,a1
   160e8:	00e7f733          	and	a4,a5,a4
   160ec:	00071a63          	bnez	a4,16100 <.LBB0_12>
   160f0:	ff848493          	addi	s1,s1,-8
   160f4:	00840413          	addi	s0,s0,8
   160f8:	fc96eee3          	bltu	a3,s1,160d4 <.LBB0_9>

00000000000160fc <.LBB0_11>:
   160fc:	00048c63          	beqz	s1,16114 <.LBB0_14>

0000000000016100 <.LBB0_12>:
   16100:	00044503          	lbu	a0,0(s0)
   16104:	01250a63          	beq	a0,s2,16118 <.LBB0_15>
   16108:	fff48493          	addi	s1,s1,-1
   1610c:	00140413          	addi	s0,s0,1
   16110:	fe0498e3          	bnez	s1,16100 <.LBB0_12>

0000000000016114 <.LBB0_14>:
   16114:	00000413          	li	s0,0

0000000000016118 <.LBB0_15>:
   16118:	00040513          	mv	a0,s0
   1611c:	01813083          	ld	ra,24(sp)
   16120:	01013403          	ld	s0,16(sp)
   16124:	00813483          	ld	s1,8(sp)
   16128:	00013903          	ld	s2,0(sp)
   1612c:	02010113          	addi	sp,sp,32
   16130:	00008067          	ret

0000000000016134 <__fpclassifyl>:
   16134:	01059613          	slli	a2,a1,0x10
   16138:	00159593          	slli	a1,a1,0x1
   1613c:	0315d693          	srli	a3,a1,0x31
   16140:	000085b7          	lui	a1,0x8
   16144:	fff5859b          	addiw	a1,a1,-1 # 7fff <.Lline_table_start0+0x7fff>
   16148:	01065613          	srli	a2,a2,0x10
   1614c:	00b68e63          	beq	a3,a1,16168 <.LBB0_3>
   16150:	00400593          	li	a1,4
   16154:	00069e63          	bnez	a3,16170 <.LBB0_4>
   16158:	00a66533          	or	a0,a2,a0
   1615c:	00153513          	seqz	a0,a0
   16160:	00354593          	xori	a1,a0,3
   16164:	00c0006f          	j	16170 <.LBB0_4>

0000000000016168 <.LBB0_3>:
   16168:	00a66533          	or	a0,a2,a0
   1616c:	00153593          	seqz	a1,a0

0000000000016170 <.LBB0_4>:
   16170:	00058513          	mv	a0,a1
   16174:	00008067          	ret

0000000000016178 <frexpl>:
   16178:	fe010113          	addi	sp,sp,-32
   1617c:	00113c23          	sd	ra,24(sp)
   16180:	00813823          	sd	s0,16(sp)
   16184:	00913423          	sd	s1,8(sp)
   16188:	01213023          	sd	s2,0(sp)
   1618c:	00058413          	mv	s0,a1
   16190:	0305d593          	srli	a1,a1,0x30
   16194:	000086b7          	lui	a3,0x8
   16198:	fff6871b          	addiw	a4,a3,-1 # 7fff <.Lline_table_start0+0x7fff>
   1619c:	00e5f6b3          	and	a3,a1,a4
   161a0:	00050493          	mv	s1,a0
   161a4:	08e68663          	beq	a3,a4,16230 <.LBB0_6>
   161a8:	00060913          	mv	s2,a2
   161ac:	04069863          	bnez	a3,161fc <.LBB0_5>
   161b0:	00048513          	mv	a0,s1
   161b4:	00040593          	mv	a1,s0
   161b8:	00000613          	li	a2,0
   161bc:	094000ef          	jal	ra,16250 <__cmptf2>
   161c0:	02050a63          	beqz	a0,161f4 <.LBB0_4>
   161c4:	040776b7          	lui	a3,0x4077
   161c8:	02469693          	slli	a3,a3,0x24
   161cc:	00048513          	mv	a0,s1
   161d0:	00040593          	mv	a1,s0
   161d4:	00000613          	li	a2,0
   161d8:	678000ef          	jal	ra,16850 <__multf3>
   161dc:	00090613          	mv	a2,s2
   161e0:	f99ff0ef          	jal	ra,16178 <frexpl>
   161e4:	00092603          	lw	a2,0(s2)
   161e8:	00050493          	mv	s1,a0
   161ec:	00058413          	mv	s0,a1
   161f0:	f886051b          	addiw	a0,a2,-120

00000000000161f4 <.LBB0_4>:
   161f4:	00a92023          	sw	a0,0(s2)
   161f8:	0380006f          	j	16230 <.LBB0_6>

00000000000161fc <.LBB0_5>:
   161fc:	ffffc537          	lui	a0,0xffffc
   16200:	0025051b          	addiw	a0,a0,2 # ffffffffffffc002 <__global_pointer$+0xfffffffffffe113a>
   16204:	00a68533          	add	a0,a3,a0
   16208:	00a92023          	sw	a0,0(s2)
   1620c:	00008537          	lui	a0,0x8
   16210:	00a5f533          	and	a0,a1,a0
   16214:	03051513          	slli	a0,a0,0x30
   16218:	01041413          	slli	s0,s0,0x10
   1621c:	01045413          	srli	s0,s0,0x10
   16220:	01fff5b7          	lui	a1,0x1fff
   16224:	02559593          	slli	a1,a1,0x25
   16228:	00b465b3          	or	a1,s0,a1
   1622c:	00b56433          	or	s0,a0,a1

0000000000016230 <.LBB0_6>:
   16230:	00048513          	mv	a0,s1
   16234:	00040593          	mv	a1,s0
   16238:	01813083          	ld	ra,24(sp)
   1623c:	01013403          	ld	s0,16(sp)
   16240:	00813483          	ld	s1,8(sp)
   16244:	00013903          	ld	s2,0(sp)
   16248:	02010113          	addi	sp,sp,32
   1624c:	00008067          	ret

0000000000016250 <__cmptf2>:
   16250:	f4010113          	addi	sp,sp,-192
   16254:	0a113c23          	sd	ra,184(sp)
   16258:	0a813823          	sd	s0,176(sp)
   1625c:	0c010413          	addi	s0,sp,192
   16260:	fcb43c23          	sd	a1,-40(s0)
   16264:	fca43823          	sd	a0,-48(s0)
   16268:	fcd43423          	sd	a3,-56(s0)
   1626c:	fcc43023          	sd	a2,-64(s0)
   16270:	fd843583          	ld	a1,-40(s0)
   16274:	fd043503          	ld	a0,-48(s0)
   16278:	234000ef          	jal	ra,164ac <toRep>
   1627c:	fab43c23          	sd	a1,-72(s0)
   16280:	faa43823          	sd	a0,-80(s0)
   16284:	fc843583          	ld	a1,-56(s0)
   16288:	fc043503          	ld	a0,-64(s0)
   1628c:	220000ef          	jal	ra,164ac <toRep>
   16290:	fab43423          	sd	a1,-88(s0)
   16294:	faa43023          	sd	a0,-96(s0)
   16298:	fb043583          	ld	a1,-80(s0)
   1629c:	fb843503          	ld	a0,-72(s0)
   162a0:	fff00613          	li	a2,-1
   162a4:	00165613          	srli	a2,a2,0x1
   162a8:	00c57533          	and	a0,a0,a2
   162ac:	f8b43823          	sd	a1,-112(s0)
   162b0:	f8a43c23          	sd	a0,-104(s0)
   162b4:	fa043583          	ld	a1,-96(s0)
   162b8:	fa843503          	ld	a0,-88(s0)
   162bc:	00c57533          	and	a0,a0,a2
   162c0:	f8b43023          	sd	a1,-128(s0)
   162c4:	f8a43423          	sd	a0,-120(s0)
   162c8:	f9043603          	ld	a2,-112(s0)
   162cc:	f9843503          	ld	a0,-104(s0)
   162d0:	07fff5b7          	lui	a1,0x7fff
   162d4:	02459593          	slli	a1,a1,0x24
   162d8:	00a5b6b3          	sltu	a3,a1,a0
   162dc:	f6d43823          	sd	a3,-144(s0)
   162e0:	00c03633          	snez	a2,a2
   162e4:	f6c43c23          	sd	a2,-136(s0)
   162e8:	00b50663          	beq	a0,a1,162f4 <.LBB0_2>
   162ec:	f7043503          	ld	a0,-144(s0)
   162f0:	f6a43c23          	sd	a0,-136(s0)

00000000000162f4 <.LBB0_2>:
   162f4:	f7843503          	ld	a0,-136(s0)
   162f8:	04051063          	bnez	a0,16338 <.LBB0_6>
   162fc:	0040006f          	j	16300 <.LBB0_3>

0000000000016300 <.LBB0_3>:
   16300:	f8043603          	ld	a2,-128(s0)
   16304:	f8843503          	ld	a0,-120(s0)
   16308:	07fff5b7          	lui	a1,0x7fff
   1630c:	02459593          	slli	a1,a1,0x24
   16310:	00b536b3          	sltu	a3,a0,a1
   16314:	f6d43023          	sd	a3,-160(s0)
   16318:	00163613          	seqz	a2,a2
   1631c:	f6c43423          	sd	a2,-152(s0)
   16320:	00b50663          	beq	a0,a1,1632c <.LBB0_5>
   16324:	f6043503          	ld	a0,-160(s0)
   16328:	f6a43423          	sd	a0,-152(s0)

000000000001632c <.LBB0_5>:
   1632c:	f6843503          	ld	a0,-152(s0)
   16330:	00051a63          	bnez	a0,16344 <.LBB0_7>
   16334:	0040006f          	j	16338 <.LBB0_6>

0000000000016338 <.LBB0_6>:
   16338:	00100513          	li	a0,1
   1633c:	fea42623          	sw	a0,-20(s0)
   16340:	1580006f          	j	16498 <.LBB0_24>

0000000000016344 <.LBB0_7>:
   16344:	f9043503          	ld	a0,-112(s0)
   16348:	f9843583          	ld	a1,-104(s0)
   1634c:	f8043603          	ld	a2,-128(s0)
   16350:	f8843683          	ld	a3,-120(s0)
   16354:	00d5e5b3          	or	a1,a1,a3
   16358:	00c56533          	or	a0,a0,a2
   1635c:	00b56533          	or	a0,a0,a1
   16360:	00051a63          	bnez	a0,16374 <.LBB0_9>
   16364:	0040006f          	j	16368 <.LBB0_8>

0000000000016368 <.LBB0_8>:
   16368:	00000513          	li	a0,0
   1636c:	fea42623          	sw	a0,-20(s0)
   16370:	1280006f          	j	16498 <.LBB0_24>

0000000000016374 <.LBB0_9>:
   16374:	fb843503          	ld	a0,-72(s0)
   16378:	fa843583          	ld	a1,-88(s0)
   1637c:	00b57533          	and	a0,a0,a1
   16380:	08054863          	bltz	a0,16410 <.LBB0_17>
   16384:	0040006f          	j	16388 <.LBB0_10>

0000000000016388 <.LBB0_10>:
   16388:	fb043603          	ld	a2,-80(s0)
   1638c:	fb843503          	ld	a0,-72(s0)
   16390:	fa043683          	ld	a3,-96(s0)
   16394:	fa843583          	ld	a1,-88(s0)
   16398:	00b52733          	slt	a4,a0,a1
   1639c:	00174713          	xori	a4,a4,1
   163a0:	f4e43823          	sd	a4,-176(s0)
   163a4:	00d63633          	sltu	a2,a2,a3
   163a8:	00164613          	xori	a2,a2,1
   163ac:	f4c43c23          	sd	a2,-168(s0)
   163b0:	00b50663          	beq	a0,a1,163bc <.LBB0_12>
   163b4:	f5043503          	ld	a0,-176(s0)
   163b8:	f4a43c23          	sd	a0,-168(s0)

00000000000163bc <.LBB0_12>:
   163bc:	f5843503          	ld	a0,-168(s0)
   163c0:	00051a63          	bnez	a0,163d4 <.LBB0_14>
   163c4:	0040006f          	j	163c8 <.LBB0_13>

00000000000163c8 <.LBB0_13>:
   163c8:	fff00513          	li	a0,-1
   163cc:	fea42623          	sw	a0,-20(s0)
   163d0:	0c80006f          	j	16498 <.LBB0_24>

00000000000163d4 <.LBB0_14>:
   163d4:	fb043503          	ld	a0,-80(s0)
   163d8:	fb843583          	ld	a1,-72(s0)
   163dc:	fa043603          	ld	a2,-96(s0)
   163e0:	fa843683          	ld	a3,-88(s0)
   163e4:	00d5c5b3          	xor	a1,a1,a3
   163e8:	00c54533          	xor	a0,a0,a2
   163ec:	00b56533          	or	a0,a0,a1
   163f0:	00051a63          	bnez	a0,16404 <.LBB0_16>
   163f4:	0040006f          	j	163f8 <.LBB0_15>

00000000000163f8 <.LBB0_15>:
   163f8:	00000513          	li	a0,0
   163fc:	fea42623          	sw	a0,-20(s0)
   16400:	0980006f          	j	16498 <.LBB0_24>

0000000000016404 <.LBB0_16>:
   16404:	00100513          	li	a0,1
   16408:	fea42623          	sw	a0,-20(s0)
   1640c:	08c0006f          	j	16498 <.LBB0_24>

0000000000016410 <.LBB0_17>:
   16410:	fb043683          	ld	a3,-80(s0)
   16414:	fb843503          	ld	a0,-72(s0)
   16418:	fa043603          	ld	a2,-96(s0)
   1641c:	fa843583          	ld	a1,-88(s0)
   16420:	00a5a733          	slt	a4,a1,a0
   16424:	00174713          	xori	a4,a4,1
   16428:	f4e43023          	sd	a4,-192(s0)
   1642c:	00d63633          	sltu	a2,a2,a3
   16430:	00164613          	xori	a2,a2,1
   16434:	f4c43423          	sd	a2,-184(s0)
   16438:	00b50663          	beq	a0,a1,16444 <.LBB0_19>
   1643c:	f4043503          	ld	a0,-192(s0)
   16440:	f4a43423          	sd	a0,-184(s0)

0000000000016444 <.LBB0_19>:
   16444:	f4843503          	ld	a0,-184(s0)
   16448:	00051a63          	bnez	a0,1645c <.LBB0_21>
   1644c:	0040006f          	j	16450 <.LBB0_20>

0000000000016450 <.LBB0_20>:
   16450:	fff00513          	li	a0,-1
   16454:	fea42623          	sw	a0,-20(s0)
   16458:	0400006f          	j	16498 <.LBB0_24>

000000000001645c <.LBB0_21>:
   1645c:	fb043503          	ld	a0,-80(s0)
   16460:	fb843583          	ld	a1,-72(s0)
   16464:	fa043603          	ld	a2,-96(s0)
   16468:	fa843683          	ld	a3,-88(s0)
   1646c:	00d5c5b3          	xor	a1,a1,a3
   16470:	00c54533          	xor	a0,a0,a2
   16474:	00b56533          	or	a0,a0,a1
   16478:	00051a63          	bnez	a0,1648c <.LBB0_23>
   1647c:	0040006f          	j	16480 <.LBB0_22>

0000000000016480 <.LBB0_22>:
   16480:	00000513          	li	a0,0
   16484:	fea42623          	sw	a0,-20(s0)
   16488:	0100006f          	j	16498 <.LBB0_24>

000000000001648c <.LBB0_23>:
   1648c:	00100513          	li	a0,1
   16490:	fea42623          	sw	a0,-20(s0)
   16494:	0040006f          	j	16498 <.LBB0_24>

0000000000016498 <.LBB0_24>:
   16498:	fec42503          	lw	a0,-20(s0)
   1649c:	0b813083          	ld	ra,184(sp)
   164a0:	0b013403          	ld	s0,176(sp)
   164a4:	0c010113          	addi	sp,sp,192
   164a8:	00008067          	ret

00000000000164ac <toRep>:
   164ac:	fd010113          	addi	sp,sp,-48
   164b0:	02113423          	sd	ra,40(sp)
   164b4:	02813023          	sd	s0,32(sp)
   164b8:	03010413          	addi	s0,sp,48
   164bc:	feb43423          	sd	a1,-24(s0)
   164c0:	fea43023          	sd	a0,-32(s0)
   164c4:	fe043503          	ld	a0,-32(s0)
   164c8:	fe843583          	ld	a1,-24(s0)
   164cc:	fcb43c23          	sd	a1,-40(s0)
   164d0:	fca43823          	sd	a0,-48(s0)
   164d4:	fd043503          	ld	a0,-48(s0)
   164d8:	fd843583          	ld	a1,-40(s0)
   164dc:	02813083          	ld	ra,40(sp)
   164e0:	02013403          	ld	s0,32(sp)
   164e4:	03010113          	addi	sp,sp,48
   164e8:	00008067          	ret

00000000000164ec <__getf2>:
   164ec:	f4010113          	addi	sp,sp,-192
   164f0:	0a113c23          	sd	ra,184(sp)
   164f4:	0a813823          	sd	s0,176(sp)
   164f8:	0c010413          	addi	s0,sp,192
   164fc:	fcb43c23          	sd	a1,-40(s0)
   16500:	fca43823          	sd	a0,-48(s0)
   16504:	fcd43423          	sd	a3,-56(s0)
   16508:	fcc43023          	sd	a2,-64(s0)
   1650c:	fd843583          	ld	a1,-40(s0)
   16510:	fd043503          	ld	a0,-48(s0)
   16514:	f99ff0ef          	jal	ra,164ac <toRep>
   16518:	fab43c23          	sd	a1,-72(s0)
   1651c:	faa43823          	sd	a0,-80(s0)
   16520:	fc843583          	ld	a1,-56(s0)
   16524:	fc043503          	ld	a0,-64(s0)
   16528:	f85ff0ef          	jal	ra,164ac <toRep>
   1652c:	fab43423          	sd	a1,-88(s0)
   16530:	faa43023          	sd	a0,-96(s0)
   16534:	fb043583          	ld	a1,-80(s0)
   16538:	fb843503          	ld	a0,-72(s0)
   1653c:	fff00613          	li	a2,-1
   16540:	00165613          	srli	a2,a2,0x1
   16544:	00c57533          	and	a0,a0,a2
   16548:	f8b43823          	sd	a1,-112(s0)
   1654c:	f8a43c23          	sd	a0,-104(s0)
   16550:	fa043583          	ld	a1,-96(s0)
   16554:	fa843503          	ld	a0,-88(s0)
   16558:	00c57533          	and	a0,a0,a2
   1655c:	f8b43023          	sd	a1,-128(s0)
   16560:	f8a43423          	sd	a0,-120(s0)
   16564:	f9043603          	ld	a2,-112(s0)
   16568:	f9843503          	ld	a0,-104(s0)
   1656c:	07fff5b7          	lui	a1,0x7fff
   16570:	02459593          	slli	a1,a1,0x24
   16574:	00a5b6b3          	sltu	a3,a1,a0
   16578:	f6d43823          	sd	a3,-144(s0)
   1657c:	00c03633          	snez	a2,a2
   16580:	f6c43c23          	sd	a2,-136(s0)
   16584:	00b50663          	beq	a0,a1,16590 <.LBB2_2>
   16588:	f7043503          	ld	a0,-144(s0)
   1658c:	f6a43c23          	sd	a0,-136(s0)

0000000000016590 <.LBB2_2>:
   16590:	f7843503          	ld	a0,-136(s0)
   16594:	04051063          	bnez	a0,165d4 <.LBB2_6>
   16598:	0040006f          	j	1659c <.LBB2_3>

000000000001659c <.LBB2_3>:
   1659c:	f8043603          	ld	a2,-128(s0)
   165a0:	f8843503          	ld	a0,-120(s0)
   165a4:	07fff5b7          	lui	a1,0x7fff
   165a8:	02459593          	slli	a1,a1,0x24
   165ac:	00b536b3          	sltu	a3,a0,a1
   165b0:	f6d43023          	sd	a3,-160(s0)
   165b4:	00163613          	seqz	a2,a2
   165b8:	f6c43423          	sd	a2,-152(s0)
   165bc:	00b50663          	beq	a0,a1,165c8 <.LBB2_5>
   165c0:	f6043503          	ld	a0,-160(s0)
   165c4:	f6a43423          	sd	a0,-152(s0)

00000000000165c8 <.LBB2_5>:
   165c8:	f6843503          	ld	a0,-152(s0)
   165cc:	00051a63          	bnez	a0,165e0 <.LBB2_7>
   165d0:	0040006f          	j	165d4 <.LBB2_6>

00000000000165d4 <.LBB2_6>:
   165d4:	fff00513          	li	a0,-1
   165d8:	fea42623          	sw	a0,-20(s0)
   165dc:	1580006f          	j	16734 <.LBB2_24>

00000000000165e0 <.LBB2_7>:
   165e0:	f9043503          	ld	a0,-112(s0)
   165e4:	f9843583          	ld	a1,-104(s0)
   165e8:	f8043603          	ld	a2,-128(s0)
   165ec:	f8843683          	ld	a3,-120(s0)
   165f0:	00d5e5b3          	or	a1,a1,a3
   165f4:	00c56533          	or	a0,a0,a2
   165f8:	00b56533          	or	a0,a0,a1
   165fc:	00051a63          	bnez	a0,16610 <.LBB2_9>
   16600:	0040006f          	j	16604 <.LBB2_8>

0000000000016604 <.LBB2_8>:
   16604:	00000513          	li	a0,0
   16608:	fea42623          	sw	a0,-20(s0)
   1660c:	1280006f          	j	16734 <.LBB2_24>

0000000000016610 <.LBB2_9>:
   16610:	fb843503          	ld	a0,-72(s0)
   16614:	fa843583          	ld	a1,-88(s0)
   16618:	00b57533          	and	a0,a0,a1
   1661c:	08054863          	bltz	a0,166ac <.LBB2_17>
   16620:	0040006f          	j	16624 <.LBB2_10>

0000000000016624 <.LBB2_10>:
   16624:	fb043603          	ld	a2,-80(s0)
   16628:	fb843503          	ld	a0,-72(s0)
   1662c:	fa043683          	ld	a3,-96(s0)
   16630:	fa843583          	ld	a1,-88(s0)
   16634:	00b52733          	slt	a4,a0,a1
   16638:	00174713          	xori	a4,a4,1
   1663c:	f4e43823          	sd	a4,-176(s0)
   16640:	00d63633          	sltu	a2,a2,a3
   16644:	00164613          	xori	a2,a2,1
   16648:	f4c43c23          	sd	a2,-168(s0)
   1664c:	00b50663          	beq	a0,a1,16658 <.LBB2_12>
   16650:	f5043503          	ld	a0,-176(s0)
   16654:	f4a43c23          	sd	a0,-168(s0)

0000000000016658 <.LBB2_12>:
   16658:	f5843503          	ld	a0,-168(s0)
   1665c:	00051a63          	bnez	a0,16670 <.LBB2_14>
   16660:	0040006f          	j	16664 <.LBB2_13>

0000000000016664 <.LBB2_13>:
   16664:	fff00513          	li	a0,-1
   16668:	fea42623          	sw	a0,-20(s0)
   1666c:	0c80006f          	j	16734 <.LBB2_24>

0000000000016670 <.LBB2_14>:
   16670:	fb043503          	ld	a0,-80(s0)
   16674:	fb843583          	ld	a1,-72(s0)
   16678:	fa043603          	ld	a2,-96(s0)
   1667c:	fa843683          	ld	a3,-88(s0)
   16680:	00d5c5b3          	xor	a1,a1,a3
   16684:	00c54533          	xor	a0,a0,a2
   16688:	00b56533          	or	a0,a0,a1
   1668c:	00051a63          	bnez	a0,166a0 <.LBB2_16>
   16690:	0040006f          	j	16694 <.LBB2_15>

0000000000016694 <.LBB2_15>:
   16694:	00000513          	li	a0,0
   16698:	fea42623          	sw	a0,-20(s0)
   1669c:	0980006f          	j	16734 <.LBB2_24>

00000000000166a0 <.LBB2_16>:
   166a0:	00100513          	li	a0,1
   166a4:	fea42623          	sw	a0,-20(s0)
   166a8:	08c0006f          	j	16734 <.LBB2_24>

00000000000166ac <.LBB2_17>:
   166ac:	fb043683          	ld	a3,-80(s0)
   166b0:	fb843503          	ld	a0,-72(s0)
   166b4:	fa043603          	ld	a2,-96(s0)
   166b8:	fa843583          	ld	a1,-88(s0)
   166bc:	00a5a733          	slt	a4,a1,a0
   166c0:	00174713          	xori	a4,a4,1
   166c4:	f4e43023          	sd	a4,-192(s0)
   166c8:	00d63633          	sltu	a2,a2,a3
   166cc:	00164613          	xori	a2,a2,1
   166d0:	f4c43423          	sd	a2,-184(s0)
   166d4:	00b50663          	beq	a0,a1,166e0 <.LBB2_19>
   166d8:	f4043503          	ld	a0,-192(s0)
   166dc:	f4a43423          	sd	a0,-184(s0)

00000000000166e0 <.LBB2_19>:
   166e0:	f4843503          	ld	a0,-184(s0)
   166e4:	00051a63          	bnez	a0,166f8 <.LBB2_21>
   166e8:	0040006f          	j	166ec <.LBB2_20>

00000000000166ec <.LBB2_20>:
   166ec:	fff00513          	li	a0,-1
   166f0:	fea42623          	sw	a0,-20(s0)
   166f4:	0400006f          	j	16734 <.LBB2_24>

00000000000166f8 <.LBB2_21>:
   166f8:	fb043503          	ld	a0,-80(s0)
   166fc:	fb843583          	ld	a1,-72(s0)
   16700:	fa043603          	ld	a2,-96(s0)
   16704:	fa843683          	ld	a3,-88(s0)
   16708:	00d5c5b3          	xor	a1,a1,a3
   1670c:	00c54533          	xor	a0,a0,a2
   16710:	00b56533          	or	a0,a0,a1
   16714:	00051a63          	bnez	a0,16728 <.LBB2_23>
   16718:	0040006f          	j	1671c <.LBB2_22>

000000000001671c <.LBB2_22>:
   1671c:	00000513          	li	a0,0
   16720:	fea42623          	sw	a0,-20(s0)
   16724:	0100006f          	j	16734 <.LBB2_24>

0000000000016728 <.LBB2_23>:
   16728:	00100513          	li	a0,1
   1672c:	fea42623          	sw	a0,-20(s0)
   16730:	0040006f          	j	16734 <.LBB2_24>

0000000000016734 <.LBB2_24>:
   16734:	fec42503          	lw	a0,-20(s0)
   16738:	0b813083          	ld	ra,184(sp)
   1673c:	0b013403          	ld	s0,176(sp)
   16740:	0c010113          	addi	sp,sp,192
   16744:	00008067          	ret

0000000000016748 <__unordtf2>:
   16748:	f7010113          	addi	sp,sp,-144
   1674c:	08113423          	sd	ra,136(sp)
   16750:	08813023          	sd	s0,128(sp)
   16754:	09010413          	addi	s0,sp,144
   16758:	feb43423          	sd	a1,-24(s0)
   1675c:	fea43023          	sd	a0,-32(s0)
   16760:	fcd43c23          	sd	a3,-40(s0)
   16764:	fcc43823          	sd	a2,-48(s0)
   16768:	fe843583          	ld	a1,-24(s0)
   1676c:	fe043503          	ld	a0,-32(s0)
   16770:	d3dff0ef          	jal	ra,164ac <toRep>
   16774:	f8a43423          	sd	a0,-120(s0)
   16778:	00058513          	mv	a0,a1
   1677c:	f8843583          	ld	a1,-120(s0)
   16780:	fff00613          	li	a2,-1
   16784:	00165613          	srli	a2,a2,0x1
   16788:	f8c43823          	sd	a2,-112(s0)
   1678c:	00c57533          	and	a0,a0,a2
   16790:	fcb43023          	sd	a1,-64(s0)
   16794:	fca43423          	sd	a0,-56(s0)
   16798:	fd843583          	ld	a1,-40(s0)
   1679c:	fd043503          	ld	a0,-48(s0)
   167a0:	d0dff0ef          	jal	ra,164ac <toRep>
   167a4:	f9043603          	ld	a2,-112(s0)
   167a8:	f8a43c23          	sd	a0,-104(s0)
   167ac:	00058513          	mv	a0,a1
   167b0:	f9843583          	ld	a1,-104(s0)
   167b4:	00c57533          	and	a0,a0,a2
   167b8:	fab43823          	sd	a1,-80(s0)
   167bc:	faa43c23          	sd	a0,-72(s0)
   167c0:	fc043603          	ld	a2,-64(s0)
   167c4:	fc843503          	ld	a0,-56(s0)
   167c8:	07fff5b7          	lui	a1,0x7fff
   167cc:	02459593          	slli	a1,a1,0x24
   167d0:	00a5b6b3          	sltu	a3,a1,a0
   167d4:	fad43023          	sd	a3,-96(s0)
   167d8:	00c03633          	snez	a2,a2
   167dc:	fac43423          	sd	a2,-88(s0)
   167e0:	00b50663          	beq	a0,a1,167ec <.LBB3_2>
   167e4:	fa043503          	ld	a0,-96(s0)
   167e8:	faa43423          	sd	a0,-88(s0)

00000000000167ec <.LBB3_2>:
   167ec:	fa843503          	ld	a0,-88(s0)
   167f0:	00100593          	li	a1,1
   167f4:	f8b43023          	sd	a1,-128(s0)
   167f8:	04051063          	bnez	a0,16838 <.LBB3_6>
   167fc:	0040006f          	j	16800 <.LBB3_3>

0000000000016800 <.LBB3_3>:
   16800:	fb043603          	ld	a2,-80(s0)
   16804:	fb843503          	ld	a0,-72(s0)
   16808:	07fff5b7          	lui	a1,0x7fff
   1680c:	02459593          	slli	a1,a1,0x24
   16810:	00a5b6b3          	sltu	a3,a1,a0
   16814:	f6d43823          	sd	a3,-144(s0)
   16818:	00c03633          	snez	a2,a2
   1681c:	f6c43c23          	sd	a2,-136(s0)
   16820:	00b50663          	beq	a0,a1,1682c <.LBB3_5>
   16824:	f7043503          	ld	a0,-144(s0)
   16828:	f6a43c23          	sd	a0,-136(s0)

000000000001682c <.LBB3_5>:
   1682c:	f7843503          	ld	a0,-136(s0)
   16830:	f8a43023          	sd	a0,-128(s0)
   16834:	0040006f          	j	16838 <.LBB3_6>

0000000000016838 <.LBB3_6>:
   16838:	f8043503          	ld	a0,-128(s0)
   1683c:	00157513          	andi	a0,a0,1
   16840:	08813083          	ld	ra,136(sp)
   16844:	08013403          	ld	s0,128(sp)
   16848:	09010113          	addi	sp,sp,144
   1684c:	00008067          	ret

0000000000016850 <__multf3>:
   16850:	fd010113          	addi	sp,sp,-48
   16854:	02113423          	sd	ra,40(sp)
   16858:	02813023          	sd	s0,32(sp)
   1685c:	03010413          	addi	s0,sp,48
   16860:	feb43423          	sd	a1,-24(s0)
   16864:	fea43023          	sd	a0,-32(s0)
   16868:	fcd43c23          	sd	a3,-40(s0)
   1686c:	fcc43823          	sd	a2,-48(s0)
   16870:	fd843683          	ld	a3,-40(s0)
   16874:	fd043603          	ld	a2,-48(s0)
   16878:	fe843583          	ld	a1,-24(s0)
   1687c:	fe043503          	ld	a0,-32(s0)
   16880:	014000ef          	jal	ra,16894 <__mulXf3__>
   16884:	02813083          	ld	ra,40(sp)
   16888:	02013403          	ld	s0,32(sp)
   1688c:	03010113          	addi	sp,sp,48
   16890:	00008067          	ret

0000000000016894 <__mulXf3__>:
   16894:	ec010113          	addi	sp,sp,-320
   16898:	12113c23          	sd	ra,312(sp)
   1689c:	12813823          	sd	s0,304(sp)
   168a0:	14010413          	addi	s0,sp,320
   168a4:	fcb43c23          	sd	a1,-40(s0)
   168a8:	fca43823          	sd	a0,-48(s0)
   168ac:	fcd43423          	sd	a3,-56(s0)
   168b0:	fcc43023          	sd	a2,-64(s0)
   168b4:	fd843583          	ld	a1,-40(s0)
   168b8:	fd043503          	ld	a0,-48(s0)
   168bc:	5fc000ef          	jal	ra,16eb8 <toRep>
   168c0:	00159513          	slli	a0,a1,0x1
   168c4:	03155513          	srli	a0,a0,0x31
   168c8:	faa42e23          	sw	a0,-68(s0)
   168cc:	fc843583          	ld	a1,-56(s0)
   168d0:	fc043503          	ld	a0,-64(s0)
   168d4:	5e4000ef          	jal	ra,16eb8 <toRep>
   168d8:	00159513          	slli	a0,a1,0x1
   168dc:	03155513          	srli	a0,a0,0x31
   168e0:	faa42c23          	sw	a0,-72(s0)
   168e4:	fd843583          	ld	a1,-40(s0)
   168e8:	fd043503          	ld	a0,-48(s0)
   168ec:	5cc000ef          	jal	ra,16eb8 <toRep>
   168f0:	f0b43423          	sd	a1,-248(s0)
   168f4:	fc843583          	ld	a1,-56(s0)
   168f8:	fc043503          	ld	a0,-64(s0)
   168fc:	5bc000ef          	jal	ra,16eb8 <toRep>
   16900:	00058513          	mv	a0,a1
   16904:	f0843583          	ld	a1,-248(s0)
   16908:	00a5c533          	xor	a0,a1,a0
   1690c:	03f55513          	srli	a0,a0,0x3f
   16910:	03f51513          	slli	a0,a0,0x3f
   16914:	00000593          	li	a1,0
   16918:	f2b43023          	sd	a1,-224(s0)
   1691c:	fab43023          	sd	a1,-96(s0)
   16920:	faa43423          	sd	a0,-88(s0)
   16924:	fd843583          	ld	a1,-40(s0)
   16928:	fd043503          	ld	a0,-48(s0)
   1692c:	58c000ef          	jal	ra,16eb8 <toRep>
   16930:	f0a43823          	sd	a0,-240(s0)
   16934:	00058513          	mv	a0,a1
   16938:	f1043583          	ld	a1,-240(s0)
   1693c:	fff00613          	li	a2,-1
   16940:	01065613          	srli	a2,a2,0x10
   16944:	f0c43c23          	sd	a2,-232(s0)
   16948:	00c57533          	and	a0,a0,a2
   1694c:	f8b43823          	sd	a1,-112(s0)
   16950:	f8a43c23          	sd	a0,-104(s0)
   16954:	fc843583          	ld	a1,-56(s0)
   16958:	fc043503          	ld	a0,-64(s0)
   1695c:	55c000ef          	jal	ra,16eb8 <toRep>
   16960:	f1843683          	ld	a3,-232(s0)
   16964:	00050613          	mv	a2,a0
   16968:	f2043503          	ld	a0,-224(s0)
   1696c:	00d5f5b3          	and	a1,a1,a3
   16970:	f8c43023          	sd	a2,-128(s0)
   16974:	f8b43423          	sd	a1,-120(s0)
   16978:	f6a42e23          	sw	a0,-132(s0)
   1697c:	fbc42503          	lw	a0,-68(s0)
   16980:	fff5059b          	addiw	a1,a0,-1 # 7fff <.Lline_table_start0+0x7fff>
   16984:	00008537          	lui	a0,0x8
   16988:	ffd5051b          	addiw	a0,a0,-3 # 7ffd <.Lline_table_start0+0x7ffd>
   1698c:	02b56063          	bltu	a0,a1,169ac <.LBB1_2>
   16990:	0040006f          	j	16994 <.LBB1_1>

0000000000016994 <.LBB1_1>:
   16994:	fb842503          	lw	a0,-72(s0)
   16998:	fff5051b          	addiw	a0,a0,-1
   1699c:	000085b7          	lui	a1,0x8
   169a0:	ffe5859b          	addiw	a1,a1,-2 # 7ffe <.Lline_table_start0+0x7ffe>
   169a4:	2ab56e63          	bltu	a0,a1,16c60 <.LBB1_27>
   169a8:	0040006f          	j	169ac <.LBB1_2>

00000000000169ac <.LBB1_2>:
   169ac:	fd843583          	ld	a1,-40(s0)
   169b0:	fd043503          	ld	a0,-48(s0)
   169b4:	504000ef          	jal	ra,16eb8 <toRep>
   169b8:	eea43023          	sd	a0,-288(s0)
   169bc:	00058513          	mv	a0,a1
   169c0:	ee043583          	ld	a1,-288(s0)
   169c4:	fff00613          	li	a2,-1
   169c8:	00165613          	srli	a2,a2,0x1
   169cc:	eec43423          	sd	a2,-280(s0)
   169d0:	00c57533          	and	a0,a0,a2
   169d4:	f6b43023          	sd	a1,-160(s0)
   169d8:	f6a43423          	sd	a0,-152(s0)
   169dc:	fc843583          	ld	a1,-56(s0)
   169e0:	fc043503          	ld	a0,-64(s0)
   169e4:	4d4000ef          	jal	ra,16eb8 <toRep>
   169e8:	ee843603          	ld	a2,-280(s0)
   169ec:	eea43823          	sd	a0,-272(s0)
   169f0:	00058513          	mv	a0,a1
   169f4:	ef043583          	ld	a1,-272(s0)
   169f8:	00c57533          	and	a0,a0,a2
   169fc:	f4b43823          	sd	a1,-176(s0)
   16a00:	f4a43c23          	sd	a0,-168(s0)
   16a04:	f6043603          	ld	a2,-160(s0)
   16a08:	f6843503          	ld	a0,-152(s0)
   16a0c:	07fff5b7          	lui	a1,0x7fff
   16a10:	02459593          	slli	a1,a1,0x24
   16a14:	00b536b3          	sltu	a3,a0,a1
   16a18:	eed43c23          	sd	a3,-264(s0)
   16a1c:	00163613          	seqz	a2,a2
   16a20:	f0c43023          	sd	a2,-256(s0)
   16a24:	00b50663          	beq	a0,a1,16a30 <.LBB1_4>
   16a28:	ef843503          	ld	a0,-264(s0)
   16a2c:	f0a43023          	sd	a0,-256(s0)

0000000000016a30 <.LBB1_4>:
   16a30:	f0043503          	ld	a0,-256(s0)
   16a34:	02051863          	bnez	a0,16a64 <.LBB1_6>
   16a38:	0040006f          	j	16a3c <.LBB1_5>

0000000000016a3c <.LBB1_5>:
   16a3c:	fd843583          	ld	a1,-40(s0)
   16a40:	fd043503          	ld	a0,-48(s0)
   16a44:	474000ef          	jal	ra,16eb8 <toRep>
   16a48:	00100613          	li	a2,1
   16a4c:	02f61613          	slli	a2,a2,0x2f
   16a50:	00c5e5b3          	or	a1,a1,a2
   16a54:	4a4000ef          	jal	ra,16ef8 <fromRep>
   16a58:	feb43423          	sd	a1,-24(s0)
   16a5c:	fea43023          	sd	a0,-32(s0)
   16a60:	4400006f          	j	16ea0 <.LBB1_44>

0000000000016a64 <.LBB1_6>:
   16a64:	f5043603          	ld	a2,-176(s0)
   16a68:	f5843503          	ld	a0,-168(s0)
   16a6c:	07fff5b7          	lui	a1,0x7fff
   16a70:	02459593          	slli	a1,a1,0x24
   16a74:	00b536b3          	sltu	a3,a0,a1
   16a78:	ecd43823          	sd	a3,-304(s0)
   16a7c:	00163613          	seqz	a2,a2
   16a80:	ecc43c23          	sd	a2,-296(s0)
   16a84:	00b50663          	beq	a0,a1,16a90 <.LBB1_8>
   16a88:	ed043503          	ld	a0,-304(s0)
   16a8c:	eca43c23          	sd	a0,-296(s0)

0000000000016a90 <.LBB1_8>:
   16a90:	ed843503          	ld	a0,-296(s0)
   16a94:	02051863          	bnez	a0,16ac4 <.LBB1_10>
   16a98:	0040006f          	j	16a9c <.LBB1_9>

0000000000016a9c <.LBB1_9>:
   16a9c:	fc843583          	ld	a1,-56(s0)
   16aa0:	fc043503          	ld	a0,-64(s0)
   16aa4:	414000ef          	jal	ra,16eb8 <toRep>
   16aa8:	00100613          	li	a2,1
   16aac:	02f61613          	slli	a2,a2,0x2f
   16ab0:	00c5e5b3          	or	a1,a1,a2
   16ab4:	444000ef          	jal	ra,16ef8 <fromRep>
   16ab8:	feb43423          	sd	a1,-24(s0)
   16abc:	fea43023          	sd	a0,-32(s0)
   16ac0:	3e00006f          	j	16ea0 <.LBB1_44>

0000000000016ac4 <.LBB1_10>:
   16ac4:	f6043503          	ld	a0,-160(s0)
   16ac8:	f6843583          	ld	a1,-152(s0)
   16acc:	07fff637          	lui	a2,0x7fff
   16ad0:	02461613          	slli	a2,a2,0x24
   16ad4:	00c5c5b3          	xor	a1,a1,a2
   16ad8:	00b56533          	or	a0,a0,a1
   16adc:	06051063          	bnez	a0,16b3c <.LBB1_14>
   16ae0:	0040006f          	j	16ae4 <.LBB1_11>

0000000000016ae4 <.LBB1_11>:
   16ae4:	f5843583          	ld	a1,-168(s0)
   16ae8:	f5043503          	ld	a0,-176(s0)
   16aec:	00b56533          	or	a0,a0,a1
   16af0:	02050863          	beqz	a0,16b20 <.LBB1_13>
   16af4:	0040006f          	j	16af8 <.LBB1_12>

0000000000016af8 <.LBB1_12>:
   16af8:	f6843583          	ld	a1,-152(s0)
   16afc:	f6043503          	ld	a0,-160(s0)
   16b00:	fa843603          	ld	a2,-88(s0)
   16b04:	fa043683          	ld	a3,-96(s0)
   16b08:	00d56533          	or	a0,a0,a3
   16b0c:	00c5e5b3          	or	a1,a1,a2
   16b10:	3e8000ef          	jal	ra,16ef8 <fromRep>
   16b14:	feb43423          	sd	a1,-24(s0)
   16b18:	fea43023          	sd	a0,-32(s0)
   16b1c:	3840006f          	j	16ea0 <.LBB1_44>

0000000000016b20 <.LBB1_13>:
   16b20:	0ffff537          	lui	a0,0xffff
   16b24:	02351593          	slli	a1,a0,0x23
   16b28:	00000513          	li	a0,0
   16b2c:	3cc000ef          	jal	ra,16ef8 <fromRep>
   16b30:	feb43423          	sd	a1,-24(s0)
   16b34:	fea43023          	sd	a0,-32(s0)
   16b38:	3680006f          	j	16ea0 <.LBB1_44>

0000000000016b3c <.LBB1_14>:
   16b3c:	f5043503          	ld	a0,-176(s0)
   16b40:	f5843583          	ld	a1,-168(s0)
   16b44:	07fff637          	lui	a2,0x7fff
   16b48:	02461613          	slli	a2,a2,0x24
   16b4c:	00c5c5b3          	xor	a1,a1,a2
   16b50:	00b56533          	or	a0,a0,a1
   16b54:	06051063          	bnez	a0,16bb4 <.LBB1_18>
   16b58:	0040006f          	j	16b5c <.LBB1_15>

0000000000016b5c <.LBB1_15>:
   16b5c:	f6843583          	ld	a1,-152(s0)
   16b60:	f6043503          	ld	a0,-160(s0)
   16b64:	00b56533          	or	a0,a0,a1
   16b68:	02050863          	beqz	a0,16b98 <.LBB1_17>
   16b6c:	0040006f          	j	16b70 <.LBB1_16>

0000000000016b70 <.LBB1_16>:
   16b70:	f5843583          	ld	a1,-168(s0)
   16b74:	f5043503          	ld	a0,-176(s0)
   16b78:	fa843603          	ld	a2,-88(s0)
   16b7c:	fa043683          	ld	a3,-96(s0)
   16b80:	00d56533          	or	a0,a0,a3
   16b84:	00c5e5b3          	or	a1,a1,a2
   16b88:	370000ef          	jal	ra,16ef8 <fromRep>
   16b8c:	feb43423          	sd	a1,-24(s0)
   16b90:	fea43023          	sd	a0,-32(s0)
   16b94:	30c0006f          	j	16ea0 <.LBB1_44>

0000000000016b98 <.LBB1_17>:
   16b98:	0ffff537          	lui	a0,0xffff
   16b9c:	02351593          	slli	a1,a0,0x23
   16ba0:	00000513          	li	a0,0
   16ba4:	354000ef          	jal	ra,16ef8 <fromRep>
   16ba8:	feb43423          	sd	a1,-24(s0)
   16bac:	fea43023          	sd	a0,-32(s0)
   16bb0:	2f00006f          	j	16ea0 <.LBB1_44>

0000000000016bb4 <.LBB1_18>:
   16bb4:	f6843583          	ld	a1,-152(s0)
   16bb8:	f6043503          	ld	a0,-160(s0)
   16bbc:	00b56533          	or	a0,a0,a1
   16bc0:	02051063          	bnez	a0,16be0 <.LBB1_20>
   16bc4:	0040006f          	j	16bc8 <.LBB1_19>

0000000000016bc8 <.LBB1_19>:
   16bc8:	fa843583          	ld	a1,-88(s0)
   16bcc:	fa043503          	ld	a0,-96(s0)
   16bd0:	328000ef          	jal	ra,16ef8 <fromRep>
   16bd4:	feb43423          	sd	a1,-24(s0)
   16bd8:	fea43023          	sd	a0,-32(s0)
   16bdc:	2c40006f          	j	16ea0 <.LBB1_44>

0000000000016be0 <.LBB1_20>:
   16be0:	f5843583          	ld	a1,-168(s0)
   16be4:	f5043503          	ld	a0,-176(s0)
   16be8:	00b56533          	or	a0,a0,a1
   16bec:	02051063          	bnez	a0,16c0c <.LBB1_22>
   16bf0:	0040006f          	j	16bf4 <.LBB1_21>

0000000000016bf4 <.LBB1_21>:
   16bf4:	fa843583          	ld	a1,-88(s0)
   16bf8:	fa043503          	ld	a0,-96(s0)
   16bfc:	2fc000ef          	jal	ra,16ef8 <fromRep>
   16c00:	feb43423          	sd	a1,-24(s0)
   16c04:	fea43023          	sd	a0,-32(s0)
   16c08:	2980006f          	j	16ea0 <.LBB1_44>

0000000000016c0c <.LBB1_22>:
   16c0c:	f6e45503          	lhu	a0,-146(s0)
   16c10:	02051263          	bnez	a0,16c34 <.LBB1_24>
   16c14:	0040006f          	j	16c18 <.LBB1_23>

0000000000016c18 <.LBB1_23>:
   16c18:	f9040513          	addi	a0,s0,-112
   16c1c:	31c000ef          	jal	ra,16f38 <normalize>
   16c20:	00050593          	mv	a1,a0
   16c24:	f7c42503          	lw	a0,-132(s0)
   16c28:	00b5053b          	addw	a0,a0,a1
   16c2c:	f6a42e23          	sw	a0,-132(s0)
   16c30:	0040006f          	j	16c34 <.LBB1_24>

0000000000016c34 <.LBB1_24>:
   16c34:	f5e45503          	lhu	a0,-162(s0)
   16c38:	02051263          	bnez	a0,16c5c <.LBB1_26>
   16c3c:	0040006f          	j	16c40 <.LBB1_25>

0000000000016c40 <.LBB1_25>:
   16c40:	f8040513          	addi	a0,s0,-128
   16c44:	2f4000ef          	jal	ra,16f38 <normalize>
   16c48:	00050593          	mv	a1,a0
   16c4c:	f7c42503          	lw	a0,-132(s0)
   16c50:	00b5053b          	addw	a0,a0,a1
   16c54:	f6a42e23          	sw	a0,-132(s0)
   16c58:	0040006f          	j	16c5c <.LBB1_26>

0000000000016c5c <.LBB1_26>:
   16c5c:	0040006f          	j	16c60 <.LBB1_27>

0000000000016c60 <.LBB1_27>:
   16c60:	f9843503          	ld	a0,-104(s0)
   16c64:	00100593          	li	a1,1
   16c68:	03059593          	slli	a1,a1,0x30
   16c6c:	00b56533          	or	a0,a0,a1
   16c70:	f8a43c23          	sd	a0,-104(s0)
   16c74:	f8843503          	ld	a0,-120(s0)
   16c78:	00b56533          	or	a0,a0,a1
   16c7c:	f8a43423          	sd	a0,-120(s0)
   16c80:	f9843583          	ld	a1,-104(s0)
   16c84:	f9043503          	ld	a0,-112(s0)
   16c88:	f8843683          	ld	a3,-120(s0)
   16c8c:	f8043603          	ld	a2,-128(s0)
   16c90:	03165713          	srli	a4,a2,0x31
   16c94:	00f69693          	slli	a3,a3,0xf
   16c98:	00e6e6b3          	or	a3,a3,a4
   16c9c:	00f61613          	slli	a2,a2,0xf
   16ca0:	f4040713          	addi	a4,s0,-192
   16ca4:	f3040793          	addi	a5,s0,-208
   16ca8:	36c000ef          	jal	ra,17014 <wideMultiply>
   16cac:	fbc42503          	lw	a0,-68(s0)
   16cb0:	fb842583          	lw	a1,-72(s0)
   16cb4:	00b5053b          	addw	a0,a0,a1
   16cb8:	f7c42583          	lw	a1,-132(s0)
   16cbc:	00b5053b          	addw	a0,a0,a1
   16cc0:	ffffc5b7          	lui	a1,0xffffc
   16cc4:	0015859b          	addiw	a1,a1,1 # ffffffffffffc001 <__global_pointer$+0xfffffffffffe1139>
   16cc8:	00b5053b          	addw	a0,a0,a1
   16ccc:	f2a42623          	sw	a0,-212(s0)
   16cd0:	f4e44503          	lbu	a0,-178(s0)
   16cd4:	00157513          	andi	a0,a0,1
   16cd8:	00050c63          	beqz	a0,16cf0 <.LBB1_29>
   16cdc:	0040006f          	j	16ce0 <.LBB1_28>

0000000000016ce0 <.LBB1_28>:
   16ce0:	f2c42503          	lw	a0,-212(s0)
   16ce4:	0015051b          	addiw	a0,a0,1 # ffff001 <__global_pointer$+0xffe4139>
   16ce8:	f2a42623          	sw	a0,-212(s0)
   16cec:	0180006f          	j	16d04 <.LBB1_30>

0000000000016cf0 <.LBB1_29>:
   16cf0:	f4040513          	addi	a0,s0,-192
   16cf4:	f3040593          	addi	a1,s0,-208
   16cf8:	00100613          	li	a2,1
   16cfc:	63c000ef          	jal	ra,17338 <wideLeftShift>
   16d00:	0040006f          	j	16d04 <.LBB1_30>

0000000000016d04 <.LBB1_30>:
   16d04:	f2c42503          	lw	a0,-212(s0)
   16d08:	000085b7          	lui	a1,0x8
   16d0c:	fff5859b          	addiw	a1,a1,-1 # 7fff <.Lline_table_start0+0x7fff>
   16d10:	02b54663          	blt	a0,a1,16d3c <.LBB1_32>
   16d14:	0040006f          	j	16d18 <.LBB1_31>

0000000000016d18 <.LBB1_31>:
   16d18:	fa043503          	ld	a0,-96(s0)
   16d1c:	fa843583          	ld	a1,-88(s0)
   16d20:	07fff637          	lui	a2,0x7fff
   16d24:	02461613          	slli	a2,a2,0x24
   16d28:	00c5e5b3          	or	a1,a1,a2
   16d2c:	1cc000ef          	jal	ra,16ef8 <fromRep>
   16d30:	feb43423          	sd	a1,-24(s0)
   16d34:	fea43023          	sd	a0,-32(s0)
   16d38:	1680006f          	j	16ea0 <.LBB1_44>

0000000000016d3c <.LBB1_32>:
   16d3c:	f2c42583          	lw	a1,-212(s0)
   16d40:	00000513          	li	a0,0
   16d44:	04b54a63          	blt	a0,a1,16d98 <.LBB1_36>
   16d48:	0040006f          	j	16d4c <.LBB1_33>

0000000000016d4c <.LBB1_33>:
   16d4c:	f2c42583          	lw	a1,-212(s0)
   16d50:	00100513          	li	a0,1
   16d54:	40b5053b          	subw	a0,a0,a1
   16d58:	f2a42423          	sw	a0,-216(s0)
   16d5c:	f2842503          	lw	a0,-216(s0)
   16d60:	08000593          	li	a1,128
   16d64:	02b56063          	bltu	a0,a1,16d84 <.LBB1_35>
   16d68:	0040006f          	j	16d6c <.LBB1_34>

0000000000016d6c <.LBB1_34>:
   16d6c:	fa843583          	ld	a1,-88(s0)
   16d70:	fa043503          	ld	a0,-96(s0)
   16d74:	184000ef          	jal	ra,16ef8 <fromRep>
   16d78:	feb43423          	sd	a1,-24(s0)
   16d7c:	fea43023          	sd	a0,-32(s0)
   16d80:	1200006f          	j	16ea0 <.LBB1_44>

0000000000016d84 <.LBB1_35>:
   16d84:	f2842603          	lw	a2,-216(s0)
   16d88:	f4040513          	addi	a0,s0,-192
   16d8c:	f3040593          	addi	a1,s0,-208
   16d90:	74c000ef          	jal	ra,174dc <wideRightShiftWithSticky>
   16d94:	0340006f          	j	16dc8 <.LBB1_37>

0000000000016d98 <.LBB1_36>:
   16d98:	f4843503          	ld	a0,-184(s0)
   16d9c:	01051513          	slli	a0,a0,0x10
   16da0:	01055513          	srli	a0,a0,0x10
   16da4:	f4a43423          	sd	a0,-184(s0)
   16da8:	f2c42503          	lw	a0,-212(s0)
   16dac:	03051613          	slli	a2,a0,0x30
   16db0:	f4043583          	ld	a1,-192(s0)
   16db4:	f4843503          	ld	a0,-184(s0)
   16db8:	00c56533          	or	a0,a0,a2
   16dbc:	f4b43023          	sd	a1,-192(s0)
   16dc0:	f4a43423          	sd	a0,-184(s0)
   16dc4:	0040006f          	j	16dc8 <.LBB1_37>

0000000000016dc8 <.LBB1_37>:
   16dc8:	fa843603          	ld	a2,-88(s0)
   16dcc:	fa043683          	ld	a3,-96(s0)
   16dd0:	f4843583          	ld	a1,-184(s0)
   16dd4:	f4043503          	ld	a0,-192(s0)
   16dd8:	00d56533          	or	a0,a0,a3
   16ddc:	00c5e5b3          	or	a1,a1,a2
   16de0:	f4b43423          	sd	a1,-184(s0)
   16de4:	f4a43023          	sd	a0,-192(s0)
   16de8:	f3843503          	ld	a0,-200(s0)
   16dec:	f3043583          	ld	a1,-208(s0)
   16df0:	0015b613          	seqz	a2,a1
   16df4:	00052593          	slti	a1,a0,0
   16df8:	0015c593          	xori	a1,a1,1
   16dfc:	ecb43023          	sd	a1,-320(s0)
   16e00:	fff00593          	li	a1,-1
   16e04:	03f59593          	slli	a1,a1,0x3f
   16e08:	ecc43423          	sd	a2,-312(s0)
   16e0c:	00b50663          	beq	a0,a1,16e18 <.LBB1_39>
   16e10:	ec043503          	ld	a0,-320(s0)
   16e14:	eca43423          	sd	a0,-312(s0)

0000000000016e18 <.LBB1_39>:
   16e18:	ec843503          	ld	a0,-312(s0)
   16e1c:	02051463          	bnez	a0,16e44 <.LBB1_41>
   16e20:	0040006f          	j	16e24 <.LBB1_40>

0000000000016e24 <.LBB1_40>:
   16e24:	f4843503          	ld	a0,-184(s0)
   16e28:	f4043603          	ld	a2,-192(s0)
   16e2c:	00160593          	addi	a1,a2,1 # 7fff001 <__global_pointer$+0x7fe4139>
   16e30:	00c5b633          	sltu	a2,a1,a2
   16e34:	00c50533          	add	a0,a0,a2
   16e38:	f4b43023          	sd	a1,-192(s0)
