
test:     file format elf64-littleriscv


Disassembly of section .text:

0000000000011c70 <_start>:
   11c70:	00009197          	auipc	gp,0x9
   11c74:	3d818193          	add	gp,gp,984 # 1b048 <__global_pointer$>
   11c78:	00010513          	mv	a0,sp

0000000000011c7c <.Lpcrel_hi1>:
   11c7c:	fffee597          	auipc	a1,0xfffee
   11c80:	38458593          	add	a1,a1,900 # 0 <.Lline_table_start0>
   11c84:	ff017113          	and	sp,sp,-16
   11c88:	0040006f          	j	11c8c <_start_c>

0000000000011c8c <_start_c>:
   11c8c:	00052583          	lw	a1,0(a0)
   11c90:	00850613          	add	a2,a0,8
   11c94:	00013537          	lui	a0,0x13
   11c98:	8a050513          	add	a0,a0,-1888 # 128a0 <main>
   11c9c:	000126b7          	lui	a3,0x12
   11ca0:	cb468693          	add	a3,a3,-844 # 11cb4 <_init>
   11ca4:	00012737          	lui	a4,0x12
   11ca8:	2a070713          	add	a4,a4,672 # 122a0 <_fini>
   11cac:	00000793          	li	a5,0
   11cb0:	2280006f          	j	11ed8 <__libc_start_main>

0000000000011cb4 <_init>:
   11cb4:	00008067          	ret

0000000000011cb8 <__init_ssp>:
   11cb8:	00008067          	ret

0000000000011cbc <__init_libc>:
   11cbc:	e9010113          	add	sp,sp,-368
   11cc0:	16113423          	sd	ra,360(sp)
   11cc4:	16813023          	sd	s0,352(sp)
   11cc8:	14913c23          	sd	s1,344(sp)
   11ccc:	00058413          	mv	s0,a1
   11cd0:	00050493          	mv	s1,a0
   11cd4:	02810513          	add	a0,sp,40
   11cd8:	13000613          	li	a2,304
   11cdc:	00000593          	li	a1,0
   11ce0:	265000ef          	jal	12744 <memset>
   11ce4:	0001b537          	lui	a0,0x1b
   11ce8:	96953423          	sd	s1,-1688(a0) # 1a968 <__environ>

0000000000011cec <.LBB2_1>:
   11cec:	0004b503          	ld	a0,0(s1)
   11cf0:	00848493          	add	s1,s1,8
   11cf4:	fe051ce3          	bnez	a0,11cec <.LBB2_1>
   11cf8:	0001b537          	lui	a0,0x1b
   11cfc:	b4953c23          	sd	s1,-1192(a0) # 1ab58 <__libc+0x10>
   11d00:	0004b583          	ld	a1,0(s1)
   11d04:	04058863          	beqz	a1,11d54 <.LBB2_9>
   11d08:	01048493          	add	s1,s1,16
   11d0c:	02500513          	li	a0,37
   11d10:	02810613          	add	a2,sp,40

0000000000011d14 <.LBB2_4>:
   11d14:	00b56a63          	bltu	a0,a1,11d28 <.LBB2_6>
   11d18:	ff84b683          	ld	a3,-8(s1)
   11d1c:	00359593          	sll	a1,a1,0x3
   11d20:	00b605b3          	add	a1,a2,a1
   11d24:	00d5b023          	sd	a3,0(a1)

0000000000011d28 <.LBB2_6>:
   11d28:	0004b583          	ld	a1,0(s1)
   11d2c:	01048493          	add	s1,s1,16
   11d30:	fe0592e3          	bnez	a1,11d14 <.LBB2_4>
   11d34:	0a813583          	ld	a1,168(sp)
   11d38:	12813503          	ld	a0,296(sp)
   11d3c:	0001b637          	lui	a2,0x1b
   11d40:	98b63823          	sd	a1,-1648(a2) # 1a990 <__hwcap>
   11d44:	00050c63          	beqz	a0,11d5c <.LBB2_10>
   11d48:	0001b5b7          	lui	a1,0x1b
   11d4c:	96a5bc23          	sd	a0,-1672(a1) # 1a978 <__sysinfo>
   11d50:	00c0006f          	j	11d5c <.LBB2_10>

0000000000011d54 <.LBB2_9>:
   11d54:	0001b537          	lui	a0,0x1b
   11d58:	98053823          	sd	zero,-1648(a0) # 1a990 <__hwcap>

0000000000011d5c <.LBB2_10>:
   11d5c:	05813503          	ld	a0,88(sp)
   11d60:	0001b5b7          	lui	a1,0x1b
   11d64:	b8a5b023          	sd	a0,-1152(a1) # 1ab80 <__libc+0x38>
   11d68:	00041463          	bnez	s0,11d70 <.LBB2_12>
   11d6c:	12013403          	ld	s0,288(sp)

0000000000011d70 <.LBB2_12>:
   11d70:	00041663          	bnez	s0,11d7c <.LBB2_14>
   11d74:	00010537          	lui	a0,0x10
   11d78:	17750413          	add	s0,a0,375 # 10177 <.Lline_table_start0+0x10177>

0000000000011d7c <.LBB2_14>:
   11d7c:	0001b537          	lui	a0,0x1b
   11d80:	98853423          	sd	s0,-1656(a0) # 1a988 <__progname_full>
   11d84:	0001b537          	lui	a0,0x1b
   11d88:	98853023          	sd	s0,-1664(a0) # 1a980 <__progname>
   11d8c:	00140413          	add	s0,s0,1
   11d90:	02f00593          	li	a1,47

0000000000011d94 <.LBB2_15>:
   11d94:	fff44603          	lbu	a2,-1(s0)
   11d98:	00b60663          	beq	a2,a1,11da4 <.LBB2_17>
   11d9c:	00061663          	bnez	a2,11da8 <.LBB2_18>
   11da0:	0100006f          	j	11db0 <.LBB2_19>

0000000000011da4 <.LBB2_17>:
   11da4:	98853023          	sd	s0,-1664(a0)

0000000000011da8 <.LBB2_18>:
   11da8:	00140413          	add	s0,s0,1
   11dac:	fe9ff06f          	j	11d94 <.LBB2_15>

0000000000011db0 <.LBB2_19>:
   11db0:	02810513          	add	a0,sp,40
   11db4:	334000ef          	jal	120e8 <__init_tls>
   11db8:	0f013503          	ld	a0,240(sp)
   11dbc:	efdff0ef          	jal	11cb8 <__init_ssp>
   11dc0:	08013503          	ld	a0,128(sp)
   11dc4:	08813583          	ld	a1,136(sp)
   11dc8:	00b51e63          	bne	a0,a1,11de4 <.LBB2_21>
   11dcc:	09013503          	ld	a0,144(sp)
   11dd0:	09813583          	ld	a1,152(sp)
   11dd4:	0e013603          	ld	a2,224(sp)
   11dd8:	00b54533          	xor	a0,a0,a1
   11ddc:	00c56533          	or	a0,a0,a2
   11de0:	08050c63          	beqz	a0,11e78 <.LBB2_29>

0000000000011de4 <.LBB2_21>:
   11de4:	00200513          	li	a0,2
   11de8:	02a13023          	sd	a0,32(sp)
   11dec:	00100513          	li	a0,1
   11df0:	00a13c23          	sd	a0,24(sp)
   11df4:	00013823          	sd	zero,16(sp)
   11df8:	00013023          	sd	zero,0(sp)
   11dfc:	00013423          	sd	zero,8(sp)
   11e00:	04900893          	li	a7,73
   11e04:	01010513          	add	a0,sp,16
   11e08:	00300593          	li	a1,3
   11e0c:	00010613          	mv	a2,sp
   11e10:	00800713          	li	a4,8
   11e14:	00000693          	li	a3,0
   11e18:	00000073          	ecall
   11e1c:	02051513          	sll	a0,a0,0x20
   11e20:	00300693          	li	a3,3
   11e24:	00055463          	bgez	a0,11e2c <.LBB2_23>
   11e28:	00000023          	sb	zero,0(zero) # 0 <.Lline_table_start0>

0000000000011e2c <.LBB2_23>:
   11e2c:	01610713          	add	a4,sp,22
   11e30:	00010537          	lui	a0,0x10
   11e34:	1a150593          	add	a1,a0,417 # 101a1 <.Lline_table_start0+0x101a1>
   11e38:	00008637          	lui	a2,0x8
   11e3c:	0026061b          	addw	a2,a2,2 # 8002 <.Lline_table_start0+0x8002>
   11e40:	03800893          	li	a7,56

0000000000011e44 <.LBB2_24>:
   11e44:	00074503          	lbu	a0,0(a4)
   11e48:	02057513          	and	a0,a0,32
   11e4c:	00050a63          	beqz	a0,11e60 <.LBB2_27>
   11e50:	f9c00513          	li	a0,-100
   11e54:	00000073          	ecall
   11e58:	00055463          	bgez	a0,11e60 <.LBB2_27>
   11e5c:	00000023          	sb	zero,0(zero) # 0 <.Lline_table_start0>

0000000000011e60 <.LBB2_27>:
   11e60:	fff68693          	add	a3,a3,-1
   11e64:	00870713          	add	a4,a4,8
   11e68:	fc069ee3          	bnez	a3,11e44 <.LBB2_24>
   11e6c:	0001b537          	lui	a0,0x1b
   11e70:	00100593          	li	a1,1
   11e74:	b4b52823          	sw	a1,-1200(a0) # 1ab50 <__libc+0x8>

0000000000011e78 <.LBB2_29>:
   11e78:	16813083          	ld	ra,360(sp)
   11e7c:	16013403          	ld	s0,352(sp)
   11e80:	15813483          	ld	s1,344(sp)
   11e84:	17010113          	add	sp,sp,368
   11e88:	00008067          	ret

0000000000011e8c <__libc_start_init>:
   11e8c:	fe010113          	add	sp,sp,-32
   11e90:	00113c23          	sd	ra,24(sp)
   11e94:	00813823          	sd	s0,16(sp)
   11e98:	00913423          	sd	s1,8(sp)
   11e9c:	e19ff0ef          	jal	11cb4 <_init>
   11ea0:	00012537          	lui	a0,0x12
   11ea4:	c7050413          	add	s0,a0,-912 # 11c70 <_start>
   11ea8:	00012537          	lui	a0,0x12
   11eac:	c7050493          	add	s1,a0,-912 # 11c70 <_start>
   11eb0:	0084fa63          	bgeu	s1,s0,11ec4 <.LBB3_2>

0000000000011eb4 <.LBB3_1>:
   11eb4:	0004b503          	ld	a0,0(s1)
   11eb8:	000500e7          	jalr	a0
   11ebc:	00848493          	add	s1,s1,8
   11ec0:	fe84eae3          	bltu	s1,s0,11eb4 <.LBB3_1>

0000000000011ec4 <.LBB3_2>:
   11ec4:	01813083          	ld	ra,24(sp)
   11ec8:	01013403          	ld	s0,16(sp)
   11ecc:	00813483          	ld	s1,8(sp)
   11ed0:	02010113          	add	sp,sp,32
   11ed4:	00008067          	ret

0000000000011ed8 <__libc_start_main>:
   11ed8:	fe010113          	add	sp,sp,-32
   11edc:	00113c23          	sd	ra,24(sp)
   11ee0:	00813823          	sd	s0,16(sp)
   11ee4:	00913423          	sd	s1,8(sp)
   11ee8:	01213023          	sd	s2,0(sp)
   11eec:	00060413          	mv	s0,a2
   11ef0:	00058493          	mv	s1,a1
   11ef4:	00050913          	mv	s2,a0
   11ef8:	00063583          	ld	a1,0(a2)
   11efc:	00349513          	sll	a0,s1,0x3
   11f00:	00a60533          	add	a0,a2,a0
   11f04:	00850513          	add	a0,a0,8
   11f08:	db5ff0ef          	jal	11cbc <__init_libc>
   11f0c:	00012537          	lui	a0,0x12
   11f10:	f3850313          	add	t1,a0,-200 # 11f38 <libc_start_main_stage2>
   11f14:	00090513          	mv	a0,s2
   11f18:	00048593          	mv	a1,s1
   11f1c:	00040613          	mv	a2,s0
   11f20:	01813083          	ld	ra,24(sp)
   11f24:	01013403          	ld	s0,16(sp)
   11f28:	00813483          	ld	s1,8(sp)
   11f2c:	00013903          	ld	s2,0(sp)
   11f30:	02010113          	add	sp,sp,32
   11f34:	00030067          	jr	t1

0000000000011f38 <libc_start_main_stage2>:
   11f38:	fd010113          	add	sp,sp,-48
   11f3c:	02113423          	sd	ra,40(sp)
   11f40:	02813023          	sd	s0,32(sp)
   11f44:	00913c23          	sd	s1,24(sp)
   11f48:	01213823          	sd	s2,16(sp)
   11f4c:	01313423          	sd	s3,8(sp)
   11f50:	00060413          	mv	s0,a2
   11f54:	00058493          	mv	s1,a1
   11f58:	00050913          	mv	s2,a0
   11f5c:	00359513          	sll	a0,a1,0x3
   11f60:	00a60533          	add	a0,a2,a0
   11f64:	00850993          	add	s3,a0,8
   11f68:	f25ff0ef          	jal	11e8c <__libc_start_init>
   11f6c:	00048513          	mv	a0,s1
   11f70:	00040593          	mv	a1,s0
   11f74:	00098613          	mv	a2,s3
   11f78:	000900e7          	jalr	s2
   11f7c:	374000ef          	jal	122f0 <exit>

0000000000011f80 <__init_tp>:
   11f80:	ff010113          	add	sp,sp,-16
   11f84:	00113423          	sd	ra,8(sp)
   11f88:	00813023          	sd	s0,0(sp)
   11f8c:	00050413          	mv	s0,a0
   11f90:	00a53023          	sd	a0,0(a0)
   11f94:	0e050513          	add	a0,a0,224
   11f98:	0d9000ef          	jal	12870 <__set_thread_area>
   11f9c:	06054063          	bltz	a0,11ffc <.LBB0_4>
   11fa0:	00051863          	bnez	a0,11fb0 <.LBB0_3>
   11fa4:	0001b537          	lui	a0,0x1b
   11fa8:	00100593          	li	a1,1
   11fac:	b4b52423          	sw	a1,-1208(a0) # 1ab48 <__libc>

0000000000011fb0 <.LBB0_3>:
   11fb0:	00100513          	li	a0,1
   11fb4:	04a42023          	sw	a0,64(s0)
   11fb8:	0001b537          	lui	a0,0x1b
   11fbc:	97050513          	add	a0,a0,-1680 # 1a970 <__thread_list_lock>
   11fc0:	06000893          	li	a7,96
   11fc4:	00000073          	ecall
   11fc8:	02a42c23          	sw	a0,56(s0)
   11fcc:	0001b537          	lui	a0,0x1b
   11fd0:	b8850513          	add	a0,a0,-1144 # 1ab88 <__libc+0x40>
   11fd4:	0aa43823          	sd	a0,176(s0)
   11fd8:	09040513          	add	a0,s0,144
   11fdc:	08a43823          	sd	a0,144(s0)
   11fe0:	0001b537          	lui	a0,0x1b
   11fe4:	97853583          	ld	a1,-1672(a0) # 1a978 <__sysinfo>
   11fe8:	00000513          	li	a0,0
   11fec:	02b43023          	sd	a1,32(s0)
   11ff0:	00843823          	sd	s0,16(s0)
   11ff4:	00843c23          	sd	s0,24(s0)
   11ff8:	0080006f          	j	12000 <.LBB0_5>

0000000000011ffc <.LBB0_4>:
   11ffc:	fff00513          	li	a0,-1

0000000000012000 <.LBB0_5>:
   12000:	00813083          	ld	ra,8(sp)
   12004:	00013403          	ld	s0,0(sp)
   12008:	01010113          	add	sp,sp,16
   1200c:	00008067          	ret

0000000000012010 <__copy_tls>:
   12010:	fd010113          	add	sp,sp,-48
   12014:	02113423          	sd	ra,40(sp)
   12018:	02813023          	sd	s0,32(sp)
   1201c:	00913c23          	sd	s1,24(sp)
   12020:	01213823          	sd	s2,16(sp)
   12024:	01313423          	sd	s3,8(sp)
   12028:	01413023          	sd	s4,0(sp)
   1202c:	0001b5b7          	lui	a1,0x1b
   12030:	b4858693          	add	a3,a1,-1208 # 1ab48 <__libc>
   12034:	0206b603          	ld	a2,32(a3)
   12038:	0306b583          	ld	a1,48(a3)
   1203c:	00c504b3          	add	s1,a0,a2
   12040:	fff5c713          	not	a4,a1
   12044:	00371713          	sll	a4,a4,0x3
   12048:	00e484b3          	add	s1,s1,a4
   1204c:	0286b703          	ld	a4,40(a3)
   12050:	f2000793          	li	a5,-224
   12054:	0186b903          	ld	s2,24(a3)
   12058:	40a787b3          	sub	a5,a5,a0
   1205c:	fff70713          	add	a4,a4,-1
   12060:	00f77733          	and	a4,a4,a5
   12064:	00e50433          	add	s0,a0,a4
   12068:	04090863          	beqz	s2,120b8 <.LBB1_4>
   1206c:	0e040993          	add	s3,s0,224
   12070:	00359593          	sll	a1,a1,0x3
   12074:	00c50533          	add	a0,a0,a2
   12078:	40b50a33          	sub	s4,a0,a1

000000000001207c <.LBB1_2>:
   1207c:	02893503          	ld	a0,40(s2)
   12080:	00a98533          	add	a0,s3,a0
   12084:	7ff50513          	add	a0,a0,2047
   12088:	00150513          	add	a0,a0,1
   1208c:	00aa3023          	sd	a0,0(s4)
   12090:	02893503          	ld	a0,40(s2)
   12094:	00893583          	ld	a1,8(s2)
   12098:	01093603          	ld	a2,16(s2)
   1209c:	00a98533          	add	a0,s3,a0
   120a0:	290000ef          	jal	12330 <memcpy>
   120a4:	00093903          	ld	s2,0(s2)
   120a8:	008a0a13          	add	s4,s4,8
   120ac:	fc0918e3          	bnez	s2,1207c <.LBB1_2>
   120b0:	0001b537          	lui	a0,0x1b
   120b4:	b7853583          	ld	a1,-1160(a0) # 1ab78 <__libc+0x30>

00000000000120b8 <.LBB1_4>:
   120b8:	00b4b023          	sd	a1,0(s1)
   120bc:	0c943c23          	sd	s1,216(s0)
   120c0:	00943423          	sd	s1,8(s0)
   120c4:	00040513          	mv	a0,s0
   120c8:	02813083          	ld	ra,40(sp)
   120cc:	02013403          	ld	s0,32(sp)
   120d0:	01813483          	ld	s1,24(sp)
   120d4:	01013903          	ld	s2,16(sp)
   120d8:	00813983          	ld	s3,8(sp)
   120dc:	00013a03          	ld	s4,0(sp)
   120e0:	03010113          	add	sp,sp,48
   120e4:	00008067          	ret

00000000000120e8 <__init_tls>:
   120e8:	ff010113          	add	sp,sp,-16
   120ec:	00113423          	sd	ra,8(sp)
   120f0:	02853583          	ld	a1,40(a0)
   120f4:	0e058a63          	beqz	a1,121e8 <.LBB2_17>
   120f8:	00000613          	li	a2,0
   120fc:	00000e93          	li	t4,0
   12100:	01853683          	ld	a3,24(a0)
   12104:	0001b737          	lui	a4,0x1b
   12108:	84872e03          	lw	t3,-1976(a4) # 1a848 <__default_stacksize>
   1210c:	02053503          	ld	a0,32(a0)
   12110:	00600793          	li	a5,6
   12114:	00000837          	lui	a6,0x0
   12118:	00080813          	mv	a6,a6
   1211c:	00183893          	seqz	a7,a6
   12120:	00700293          	li	t0,7
   12124:	6474e337          	lui	t1,0x6474e
   12128:	5513031b          	addw	t1,t1,1361 # 6474e551 <__global_pointer$+0x64733509>
   1212c:	00068393          	mv	t2,a3

0000000000012130 <.LBB2_2>:
   12130:	0003af83          	lw	t6,0(t2)
   12134:	00ff9863          	bne	t6,a5,12144 <.LBB2_4>
   12138:	0103b603          	ld	a2,16(t2)
   1213c:	40c68633          	sub	a2,a3,a2
   12140:	0580006f          	j	12198 <.LBB2_14>

0000000000012144 <.LBB2_4>:
   12144:	ffef8f13          	add	t5,t6,-2
   12148:	01e03f33          	snez	t5,t5
   1214c:	011f6f33          	or	t5,t5,a7
   12150:	040f0063          	beqz	t5,12190 <.LBB2_13>
   12154:	00038f13          	mv	t5,t2
   12158:	005f8463          	beq	t6,t0,12160 <.LBB2_7>
   1215c:	000e8f13          	mv	t5,t4

0000000000012160 <.LBB2_7>:
   12160:	026f9463          	bne	t6,t1,12188 <.LBB2_12>
   12164:	0283be83          	ld	t4,40(t2)
   12168:	020e1f93          	sll	t6,t3,0x20
   1216c:	020fdf93          	srl	t6,t6,0x20
   12170:	01dffc63          	bgeu	t6,t4,12188 <.LBB2_12>
   12174:	00800e37          	lui	t3,0x800
   12178:	01cee463          	bltu	t4,t3,12180 <.LBB2_11>
   1217c:	00800eb7          	lui	t4,0x800

0000000000012180 <.LBB2_11>:
   12180:	85d72423          	sw	t4,-1976(a4)
   12184:	000e8e13          	mv	t3,t4

0000000000012188 <.LBB2_12>:
   12188:	000f0e93          	mv	t4,t5
   1218c:	00c0006f          	j	12198 <.LBB2_14>

0000000000012190 <.LBB2_13>:
   12190:	0103b603          	ld	a2,16(t2)
   12194:	40c80633          	sub	a2,a6,a2

0000000000012198 <.LBB2_14>:
   12198:	fff58593          	add	a1,a1,-1
   1219c:	00a383b3          	add	t2,t2,a0
   121a0:	f80598e3          	bnez	a1,12130 <.LBB2_2>
   121a4:	040e8263          	beqz	t4,121e8 <.LBB2_17>
   121a8:	010eb503          	ld	a0,16(t4) # 800010 <__global_pointer$+0x7e4fc8>
   121ac:	00c50633          	add	a2,a0,a2
   121b0:	0001b537          	lui	a0,0x1b
   121b4:	9b050693          	add	a3,a0,-1616 # 1a9b0 <main_tls>
   121b8:	00c6b423          	sd	a2,8(a3)
   121bc:	020eb503          	ld	a0,32(t4)
   121c0:	00a6b823          	sd	a0,16(a3)
   121c4:	030eb503          	ld	a0,48(t4)
   121c8:	028eb583          	ld	a1,40(t4)
   121cc:	02a6b023          	sd	a0,32(a3)
   121d0:	0001b737          	lui	a4,0x1b
   121d4:	b4870713          	add	a4,a4,-1208 # 1ab48 <__libc>
   121d8:	00100793          	li	a5,1
   121dc:	02f73823          	sd	a5,48(a4)
   121e0:	00d73c23          	sd	a3,24(a4)
   121e4:	0180006f          	j	121fc <.LBB2_18>

00000000000121e8 <.LBB2_17>:
   121e8:	0001b537          	lui	a0,0x1b
   121ec:	9b050613          	add	a2,a0,-1616 # 1a9b0 <main_tls>
   121f0:	02063503          	ld	a0,32(a2)
   121f4:	01863583          	ld	a1,24(a2)
   121f8:	00863603          	ld	a2,8(a2)

00000000000121fc <.LBB2_18>:
   121fc:	40c006b3          	neg	a3,a2
   12200:	40b686b3          	sub	a3,a3,a1
   12204:	fff50713          	add	a4,a0,-1
   12208:	00d776b3          	and	a3,a4,a3
   1220c:	00b685b3          	add	a1,a3,a1
   12210:	0001b6b7          	lui	a3,0x1b
   12214:	9b068693          	add	a3,a3,-1616 # 1a9b0 <main_tls>
   12218:	00b6bc23          	sd	a1,24(a3)
   1221c:	00c77633          	and	a2,a4,a2
   12220:	00700713          	li	a4,7
   12224:	02c6b423          	sd	a2,40(a3)
   12228:	00a76663          	bltu	a4,a0,12234 <.LBB2_20>
   1222c:	00800513          	li	a0,8
   12230:	02a6b023          	sd	a0,32(a3)

0000000000012234 <.LBB2_20>:
   12234:	0001b6b7          	lui	a3,0x1b
   12238:	b4868693          	add	a3,a3,-1208 # 1ab48 <__libc>
   1223c:	02a6b423          	sd	a0,40(a3)
   12240:	00b605b3          	add	a1,a2,a1
   12244:	00a58533          	add	a0,a1,a0
   12248:	0f750593          	add	a1,a0,247
   1224c:	ff85f593          	and	a1,a1,-8
   12250:	16900513          	li	a0,361
   12254:	02b6b023          	sd	a1,32(a3)
   12258:	02a5e263          	bltu	a1,a0,1227c <.LBB2_22>
   1225c:	0de00893          	li	a7,222
   12260:	00300613          	li	a2,3
   12264:	02200693          	li	a3,34
   12268:	fff00713          	li	a4,-1
   1226c:	00000513          	li	a0,0
   12270:	00000793          	li	a5,0
   12274:	00000073          	ecall
   12278:	00c0006f          	j	12284 <.LBB2_23>

000000000001227c <.LBB2_22>:
   1227c:	0001b537          	lui	a0,0x1b
   12280:	9e050513          	add	a0,a0,-1568 # 1a9e0 <builtin_tls>

0000000000012284 <.LBB2_23>:
   12284:	d8dff0ef          	jal	12010 <__copy_tls>
   12288:	cf9ff0ef          	jal	11f80 <__init_tp>
   1228c:	00055463          	bgez	a0,12294 <.LBB2_25>
   12290:	00000023          	sb	zero,0(zero) # 0 <.Lline_table_start0>

0000000000012294 <.LBB2_25>:
   12294:	00813083          	ld	ra,8(sp)
   12298:	01010113          	add	sp,sp,16
   1229c:	00008067          	ret

00000000000122a0 <_fini>:
   122a0:	00008067          	ret

00000000000122a4 <__libc_exit_fini>:
   122a4:	fe010113          	add	sp,sp,-32
   122a8:	00113c23          	sd	ra,24(sp)
   122ac:	00813823          	sd	s0,16(sp)
   122b0:	00913423          	sd	s1,8(sp)
   122b4:	00012537          	lui	a0,0x12
   122b8:	c7050513          	add	a0,a0,-912 # 11c70 <_start>
   122bc:	000125b7          	lui	a1,0x12
   122c0:	c7058413          	add	s0,a1,-912 # 11c70 <_start>
   122c4:	00a47c63          	bgeu	s0,a0,122dc <.LBB1_2>

00000000000122c8 <.LBB1_1>:
   122c8:	ff853583          	ld	a1,-8(a0)
   122cc:	ff850493          	add	s1,a0,-8
   122d0:	000580e7          	jalr	a1
   122d4:	00048513          	mv	a0,s1
   122d8:	fe9468e3          	bltu	s0,s1,122c8 <.LBB1_1>

00000000000122dc <.LBB1_2>:
   122dc:	01813083          	ld	ra,24(sp)
   122e0:	01013403          	ld	s0,16(sp)
   122e4:	00813483          	ld	s1,8(sp)
   122e8:	02010113          	add	sp,sp,32
   122ec:	fb5ff06f          	j	122a0 <_fini>

00000000000122f0 <exit>:
   122f0:	ff010113          	add	sp,sp,-16
   122f4:	00113423          	sd	ra,8(sp)
   122f8:	00813023          	sd	s0,0(sp)
   122fc:	00050413          	mv	s0,a0
   12300:	fa1ff0ef          	jal	122a0 <_fini>
   12304:	fa1ff0ef          	jal	122a4 <__libc_exit_fini>
   12308:	43d020ef          	jal	14f44 <__stdio_exit>
   1230c:	00040513          	mv	a0,s0
   12310:	004000ef          	jal	12314 <_Exit>

0000000000012314 <_Exit>:
   12314:	00050593          	mv	a1,a0
   12318:	05e00893          	li	a7,94
   1231c:	00000073          	ecall
   12320:	05d00893          	li	a7,93

0000000000012324 <.LBB0_1>:
   12324:	00058513          	mv	a0,a1
   12328:	00000073          	ecall
   1232c:	ff9ff06f          	j	12324 <.LBB0_1>

0000000000012330 <memcpy>:
   12330:	0035f693          	and	a3,a1,3
   12334:	0016b693          	seqz	a3,a3
   12338:	00163713          	seqz	a4,a2
   1233c:	00e6e6b3          	or	a3,a3,a4
   12340:	10069063          	bnez	a3,12440 <.LBB0_11>
   12344:	00158793          	add	a5,a1,1
   12348:	00050813          	mv	a6,a0

000000000001234c <.LBB0_2>:
   1234c:	00058883          	lb	a7,0(a1)
   12350:	00158713          	add	a4,a1,1
   12354:	00180693          	add	a3,a6,1 # 1 <.Lline_table_start0+0x1>
   12358:	01180023          	sb	a7,0(a6)
   1235c:	fff60613          	add	a2,a2,-1
   12360:	0037f593          	and	a1,a5,3
   12364:	00b035b3          	snez	a1,a1
   12368:	00c03833          	snez	a6,a2
   1236c:	0105f8b3          	and	a7,a1,a6
   12370:	00178793          	add	a5,a5,1
   12374:	00070593          	mv	a1,a4
   12378:	00068813          	mv	a6,a3
   1237c:	fc0898e3          	bnez	a7,1234c <.LBB0_2>
   12380:	0036f593          	and	a1,a3,3
   12384:	0c058663          	beqz	a1,12450 <.LBB0_12>

0000000000012388 <.LBB0_4>:
   12388:	02000793          	li	a5,32
   1238c:	1af66c63          	bltu	a2,a5,12544 <.LBB0_22>
   12390:	00300793          	li	a5,3
   12394:	12f58a63          	beq	a1,a5,124c8 <.LBB0_19>
   12398:	00200793          	li	a5,2
   1239c:	22f58863          	beq	a1,a5,125cc <.LBB0_31>
   123a0:	00100793          	li	a5,1
   123a4:	1af59063          	bne	a1,a5,12544 <.LBB0_22>
   123a8:	00072783          	lw	a5,0(a4)
   123ac:	00f68023          	sb	a5,0(a3)
   123b0:	0087d593          	srl	a1,a5,0x8
   123b4:	00b680a3          	sb	a1,1(a3)
   123b8:	0107d593          	srl	a1,a5,0x10
   123bc:	00b68123          	sb	a1,2(a3)
   123c0:	00368693          	add	a3,a3,3
   123c4:	ffd60613          	add	a2,a2,-3
   123c8:	01070713          	add	a4,a4,16
   123cc:	01000593          	li	a1,16

00000000000123d0 <.LBB0_9>:
   123d0:	ff472803          	lw	a6,-12(a4)
   123d4:	0187d79b          	srlw	a5,a5,0x18
   123d8:	00881893          	sll	a7,a6,0x8
   123dc:	ff872283          	lw	t0,-8(a4)
   123e0:	00f8e7b3          	or	a5,a7,a5
   123e4:	00f6a023          	sw	a5,0(a3)
   123e8:	0188579b          	srlw	a5,a6,0x18
   123ec:	00829813          	sll	a6,t0,0x8
   123f0:	ffc72883          	lw	a7,-4(a4)
   123f4:	00f867b3          	or	a5,a6,a5
   123f8:	00f6a223          	sw	a5,4(a3)
   123fc:	0182d81b          	srlw	a6,t0,0x18
   12400:	00889293          	sll	t0,a7,0x8
   12404:	00072783          	lw	a5,0(a4)
   12408:	0102e833          	or	a6,t0,a6
   1240c:	0106a423          	sw	a6,8(a3)
   12410:	0188d81b          	srlw	a6,a7,0x18
   12414:	00879893          	sll	a7,a5,0x8
   12418:	0108e833          	or	a6,a7,a6
   1241c:	0106a623          	sw	a6,12(a3)
   12420:	01068693          	add	a3,a3,16
   12424:	ff060613          	add	a2,a2,-16
   12428:	01070713          	add	a4,a4,16
   1242c:	fac5e2e3          	bltu	a1,a2,123d0 <.LBB0_9>
   12430:	ff370713          	add	a4,a4,-13
   12434:	01067593          	and	a1,a2,16
   12438:	10058a63          	beqz	a1,1254c <.LBB0_23>
   1243c:	21c0006f          	j	12658 <.LBB0_34>

0000000000012440 <.LBB0_11>:
   12440:	00050693          	mv	a3,a0
   12444:	00058713          	mv	a4,a1
   12448:	0036f593          	and	a1,a3,3
   1244c:	f2059ee3          	bnez	a1,12388 <.LBB0_4>

0000000000012450 <.LBB0_12>:
   12450:	01000593          	li	a1,16
   12454:	02b66c63          	bltu	a2,a1,1248c <.LBB0_15>
   12458:	00f00593          	li	a1,15

000000000001245c <.LBB0_14>:
   1245c:	00072783          	lw	a5,0(a4)
   12460:	00472803          	lw	a6,4(a4)
   12464:	00872883          	lw	a7,8(a4)
   12468:	00c72283          	lw	t0,12(a4)
   1246c:	00f6a023          	sw	a5,0(a3)
   12470:	0106a223          	sw	a6,4(a3)
   12474:	0116a423          	sw	a7,8(a3)
   12478:	0056a623          	sw	t0,12(a3)
   1247c:	01070713          	add	a4,a4,16
   12480:	ff060613          	add	a2,a2,-16
   12484:	01068693          	add	a3,a3,16
   12488:	fcc5eae3          	bltu	a1,a2,1245c <.LBB0_14>

000000000001248c <.LBB0_15>:
   1248c:	00800593          	li	a1,8
   12490:	00b66e63          	bltu	a2,a1,124ac <.LBB0_17>
   12494:	00072583          	lw	a1,0(a4)
   12498:	00472783          	lw	a5,4(a4)
   1249c:	00b6a023          	sw	a1,0(a3)
   124a0:	00f6a223          	sw	a5,4(a3)
   124a4:	00868693          	add	a3,a3,8
   124a8:	00870713          	add	a4,a4,8

00000000000124ac <.LBB0_17>:
   124ac:	00467593          	and	a1,a2,4
   124b0:	0c058c63          	beqz	a1,12588 <.LBB0_26>
   124b4:	00072583          	lw	a1,0(a4)
   124b8:	00b6a023          	sw	a1,0(a3)
   124bc:	00468693          	add	a3,a3,4
   124c0:	00470713          	add	a4,a4,4
   124c4:	0c40006f          	j	12588 <.LBB0_26>

00000000000124c8 <.LBB0_19>:
   124c8:	00072783          	lw	a5,0(a4)
   124cc:	00f68023          	sb	a5,0(a3)
   124d0:	00168693          	add	a3,a3,1
   124d4:	fff60613          	add	a2,a2,-1
   124d8:	01070713          	add	a4,a4,16
   124dc:	01200593          	li	a1,18

00000000000124e0 <.LBB0_20>:
   124e0:	ff472803          	lw	a6,-12(a4)
   124e4:	0087d79b          	srlw	a5,a5,0x8
   124e8:	01881893          	sll	a7,a6,0x18
   124ec:	ff872283          	lw	t0,-8(a4)
   124f0:	00f8e7b3          	or	a5,a7,a5
   124f4:	00f6a023          	sw	a5,0(a3)
   124f8:	0088579b          	srlw	a5,a6,0x8
   124fc:	01829813          	sll	a6,t0,0x18
   12500:	ffc72883          	lw	a7,-4(a4)
   12504:	00f867b3          	or	a5,a6,a5
   12508:	00f6a223          	sw	a5,4(a3)
   1250c:	0082d81b          	srlw	a6,t0,0x8
   12510:	01889293          	sll	t0,a7,0x18
   12514:	00072783          	lw	a5,0(a4)
   12518:	0102e833          	or	a6,t0,a6
   1251c:	0106a423          	sw	a6,8(a3)
   12520:	0088d81b          	srlw	a6,a7,0x8
   12524:	01879893          	sll	a7,a5,0x18
   12528:	0108e833          	or	a6,a7,a6
   1252c:	0106a623          	sw	a6,12(a3)
   12530:	01068693          	add	a3,a3,16
   12534:	ff060613          	add	a2,a2,-16
   12538:	01070713          	add	a4,a4,16
   1253c:	fac5e2e3          	bltu	a1,a2,124e0 <.LBB0_20>
   12540:	ff170713          	add	a4,a4,-15

0000000000012544 <.LBB0_22>:
   12544:	01067593          	and	a1,a2,16
   12548:	10059863          	bnez	a1,12658 <.LBB0_34>

000000000001254c <.LBB0_23>:
   1254c:	00867593          	and	a1,a2,8
   12550:	18059e63          	bnez	a1,126ec <.LBB0_35>

0000000000012554 <.LBB0_24>:
   12554:	00467593          	and	a1,a2,4
   12558:	02058863          	beqz	a1,12588 <.LBB0_26>

000000000001255c <.LBB0_25>:
   1255c:	00070583          	lb	a1,0(a4)
   12560:	00170783          	lb	a5,1(a4)
   12564:	00270803          	lb	a6,2(a4)
   12568:	00b68023          	sb	a1,0(a3)
   1256c:	00f680a3          	sb	a5,1(a3)
   12570:	00370583          	lb	a1,3(a4)
   12574:	01068123          	sb	a6,2(a3)
   12578:	00470713          	add	a4,a4,4
   1257c:	00468793          	add	a5,a3,4
   12580:	00b681a3          	sb	a1,3(a3)
   12584:	00078693          	mv	a3,a5

0000000000012588 <.LBB0_26>:
   12588:	00267593          	and	a1,a2,2
   1258c:	00059863          	bnez	a1,1259c <.LBB0_29>
   12590:	00167613          	and	a2,a2,1
   12594:	02061663          	bnez	a2,125c0 <.LBB0_30>

0000000000012598 <.LBB0_28>:
   12598:	00008067          	ret

000000000001259c <.LBB0_29>:
   1259c:	00070583          	lb	a1,0(a4)
   125a0:	00170783          	lb	a5,1(a4)
   125a4:	00b68023          	sb	a1,0(a3)
   125a8:	00270713          	add	a4,a4,2
   125ac:	00268593          	add	a1,a3,2
   125b0:	00f680a3          	sb	a5,1(a3)
   125b4:	00058693          	mv	a3,a1
   125b8:	00167613          	and	a2,a2,1
   125bc:	fc060ee3          	beqz	a2,12598 <.LBB0_28>

00000000000125c0 <.LBB0_30>:
   125c0:	00070583          	lb	a1,0(a4)
   125c4:	00b68023          	sb	a1,0(a3)
   125c8:	00008067          	ret

00000000000125cc <.LBB0_31>:
   125cc:	00072783          	lw	a5,0(a4)
   125d0:	00f68023          	sb	a5,0(a3)
   125d4:	0087d593          	srl	a1,a5,0x8
   125d8:	00b680a3          	sb	a1,1(a3)
   125dc:	00268693          	add	a3,a3,2
   125e0:	ffe60613          	add	a2,a2,-2
   125e4:	01070713          	add	a4,a4,16
   125e8:	01100593          	li	a1,17

00000000000125ec <.LBB0_32>:
   125ec:	ff472803          	lw	a6,-12(a4)
   125f0:	0107d79b          	srlw	a5,a5,0x10
   125f4:	01081893          	sll	a7,a6,0x10
   125f8:	ff872283          	lw	t0,-8(a4)
   125fc:	00f8e7b3          	or	a5,a7,a5
   12600:	00f6a023          	sw	a5,0(a3)
   12604:	0108579b          	srlw	a5,a6,0x10
   12608:	01029813          	sll	a6,t0,0x10
   1260c:	ffc72883          	lw	a7,-4(a4)
   12610:	00f867b3          	or	a5,a6,a5
   12614:	00f6a223          	sw	a5,4(a3)
   12618:	0102d81b          	srlw	a6,t0,0x10
   1261c:	01089293          	sll	t0,a7,0x10
   12620:	00072783          	lw	a5,0(a4)
   12624:	0102e833          	or	a6,t0,a6
   12628:	0106a423          	sw	a6,8(a3)
   1262c:	0108d81b          	srlw	a6,a7,0x10
   12630:	01079893          	sll	a7,a5,0x10
   12634:	0108e833          	or	a6,a7,a6
   12638:	0106a623          	sw	a6,12(a3)
   1263c:	01068693          	add	a3,a3,16
   12640:	ff060613          	add	a2,a2,-16
   12644:	01070713          	add	a4,a4,16
   12648:	fac5e2e3          	bltu	a1,a2,125ec <.LBB0_32>
   1264c:	ff270713          	add	a4,a4,-14
   12650:	01067593          	and	a1,a2,16
   12654:	ee058ce3          	beqz	a1,1254c <.LBB0_23>

0000000000012658 <.LBB0_34>:
   12658:	00070583          	lb	a1,0(a4)
   1265c:	00170783          	lb	a5,1(a4)
   12660:	00270803          	lb	a6,2(a4)
   12664:	00b68023          	sb	a1,0(a3)
   12668:	00f680a3          	sb	a5,1(a3)
   1266c:	00370583          	lb	a1,3(a4)
   12670:	01068123          	sb	a6,2(a3)
   12674:	00470783          	lb	a5,4(a4)
   12678:	00570803          	lb	a6,5(a4)
   1267c:	00b681a3          	sb	a1,3(a3)
   12680:	00670583          	lb	a1,6(a4)
   12684:	00f68223          	sb	a5,4(a3)
   12688:	010682a3          	sb	a6,5(a3)
   1268c:	00770783          	lb	a5,7(a4)
   12690:	00b68323          	sb	a1,6(a3)
   12694:	00870583          	lb	a1,8(a4)
   12698:	00970803          	lb	a6,9(a4)
   1269c:	00f683a3          	sb	a5,7(a3)
   126a0:	00a70783          	lb	a5,10(a4)
   126a4:	00b68423          	sb	a1,8(a3)
   126a8:	010684a3          	sb	a6,9(a3)
   126ac:	00b70583          	lb	a1,11(a4)
   126b0:	00f68523          	sb	a5,10(a3)
   126b4:	00c70783          	lb	a5,12(a4)
   126b8:	00d70803          	lb	a6,13(a4)
   126bc:	00b685a3          	sb	a1,11(a3)
   126c0:	00e70583          	lb	a1,14(a4)
   126c4:	00f68623          	sb	a5,12(a3)
   126c8:	010686a3          	sb	a6,13(a3)
   126cc:	00f70783          	lb	a5,15(a4)
   126d0:	00b68723          	sb	a1,14(a3)
   126d4:	01070713          	add	a4,a4,16
   126d8:	01068593          	add	a1,a3,16
   126dc:	00f687a3          	sb	a5,15(a3)
   126e0:	00058693          	mv	a3,a1
   126e4:	00867593          	and	a1,a2,8
   126e8:	e60586e3          	beqz	a1,12554 <.LBB0_24>

00000000000126ec <.LBB0_35>:
   126ec:	00070583          	lb	a1,0(a4)
   126f0:	00170783          	lb	a5,1(a4)
   126f4:	00270803          	lb	a6,2(a4)
   126f8:	00b68023          	sb	a1,0(a3)
   126fc:	00f680a3          	sb	a5,1(a3)
   12700:	00370583          	lb	a1,3(a4)
   12704:	01068123          	sb	a6,2(a3)
   12708:	00470783          	lb	a5,4(a4)
   1270c:	00570803          	lb	a6,5(a4)
   12710:	00b681a3          	sb	a1,3(a3)
   12714:	00670583          	lb	a1,6(a4)
   12718:	00f68223          	sb	a5,4(a3)
   1271c:	010682a3          	sb	a6,5(a3)
   12720:	00770783          	lb	a5,7(a4)
   12724:	00b68323          	sb	a1,6(a3)
   12728:	00870713          	add	a4,a4,8
   1272c:	00868593          	add	a1,a3,8
   12730:	00f683a3          	sb	a5,7(a3)
   12734:	00058693          	mv	a3,a1
   12738:	00467593          	and	a1,a2,4
   1273c:	e20590e3          	bnez	a1,1255c <.LBB0_25>
   12740:	e49ff06f          	j	12588 <.LBB0_26>

0000000000012744 <memset>:
   12744:	fd010113          	add	sp,sp,-48
   12748:	02113423          	sd	ra,40(sp)
   1274c:	02813023          	sd	s0,32(sp)
   12750:	00913c23          	sd	s1,24(sp)
   12754:	01213823          	sd	s2,16(sp)
   12758:	01313423          	sd	s3,8(sp)
   1275c:	00050413          	mv	s0,a0
   12760:	0e060863          	beqz	a2,12850 <.LBB0_9>
   12764:	00b40023          	sb	a1,0(s0)
   12768:	00860533          	add	a0,a2,s0
   1276c:	00300693          	li	a3,3
   12770:	feb50fa3          	sb	a1,-1(a0)
   12774:	0cd66e63          	bltu	a2,a3,12850 <.LBB0_9>
   12778:	00b400a3          	sb	a1,1(s0)
   1277c:	00b40123          	sb	a1,2(s0)
   12780:	feb50f23          	sb	a1,-2(a0)
   12784:	00700693          	li	a3,7
   12788:	feb50ea3          	sb	a1,-3(a0)
   1278c:	0cd66263          	bltu	a2,a3,12850 <.LBB0_9>
   12790:	00b401a3          	sb	a1,3(s0)
   12794:	00900993          	li	s3,9
   12798:	feb50e23          	sb	a1,-4(a0)
   1279c:	0b366a63          	bltu	a2,s3,12850 <.LBB0_9>
   127a0:	4080053b          	negw	a0,s0
   127a4:	00357513          	and	a0,a0,3
   127a8:	00a404b3          	add	s1,s0,a0
   127ac:	40a60633          	sub	a2,a2,a0
   127b0:	ffc67913          	and	s2,a2,-4
   127b4:	0ff5f513          	zext.b	a0,a1
   127b8:	010105b7          	lui	a1,0x1010
   127bc:	1015859b          	addw	a1,a1,257 # 1010101 <__global_pointer$+0xff50b9>
   127c0:	0bc000ef          	jal	1287c <__muldi3>
   127c4:	00a4a023          	sw	a0,0(s1)
   127c8:	012485b3          	add	a1,s1,s2
   127cc:	fea5ae23          	sw	a0,-4(a1)
   127d0:	09396063          	bltu	s2,s3,12850 <.LBB0_9>
   127d4:	00a4a223          	sw	a0,4(s1)
   127d8:	00a4a423          	sw	a0,8(s1)
   127dc:	fea5aa23          	sw	a0,-12(a1)
   127e0:	01900613          	li	a2,25
   127e4:	fea5ac23          	sw	a0,-8(a1)
   127e8:	06c96463          	bltu	s2,a2,12850 <.LBB0_9>
   127ec:	00a4a623          	sw	a0,12(s1)
   127f0:	00a4a823          	sw	a0,16(s1)
   127f4:	00a4aa23          	sw	a0,20(s1)
   127f8:	00a4ac23          	sw	a0,24(s1)
   127fc:	fea5a223          	sw	a0,-28(a1)
   12800:	fea5a423          	sw	a0,-24(a1)
   12804:	fea5a623          	sw	a0,-20(a1)
   12808:	0044f693          	and	a3,s1,4
   1280c:	01868693          	add	a3,a3,24
   12810:	40d90633          	sub	a2,s2,a3
   12814:	02000713          	li	a4,32
   12818:	fea5a823          	sw	a0,-16(a1)
   1281c:	02e66a63          	bltu	a2,a4,12850 <.LBB0_9>
   12820:	02051513          	sll	a0,a0,0x20
   12824:	02055593          	srl	a1,a0,0x20
   12828:	00b56533          	or	a0,a0,a1
   1282c:	00d484b3          	add	s1,s1,a3
   12830:	01f00593          	li	a1,31

0000000000012834 <.LBB0_8>:
   12834:	00a4b023          	sd	a0,0(s1)
   12838:	00a4b423          	sd	a0,8(s1)
   1283c:	00a4b823          	sd	a0,16(s1)
   12840:	00a4bc23          	sd	a0,24(s1)
   12844:	fe060613          	add	a2,a2,-32
   12848:	02048493          	add	s1,s1,32
   1284c:	fec5e4e3          	bltu	a1,a2,12834 <.LBB0_8>

0000000000012850 <.LBB0_9>:
   12850:	00040513          	mv	a0,s0
   12854:	02813083          	ld	ra,40(sp)
   12858:	02013403          	ld	s0,32(sp)
   1285c:	01813483          	ld	s1,24(sp)
   12860:	01013903          	ld	s2,16(sp)
   12864:	00813983          	ld	s3,8(sp)
   12868:	03010113          	add	sp,sp,48
   1286c:	00008067          	ret

0000000000012870 <__set_thread_area>:
   12870:	00050213          	mv	tp,a0
   12874:	00000513          	li	a0,0
   12878:	00008067          	ret

000000000001287c <__muldi3>:
   1287c:	00050613          	mv	a2,a0
   12880:	00000513          	li	a0,0

0000000000012884 <.L1>:
   12884:	0015f693          	and	a3,a1,1
   12888:	00068463          	beqz	a3,12890 <.L2>
   1288c:	00c50533          	add	a0,a0,a2

0000000000012890 <.L2>:
   12890:	0015d593          	srl	a1,a1,0x1
   12894:	00161613          	sll	a2,a2,0x1
   12898:	fe0596e3          	bnez	a1,12884 <.L1>
   1289c:	00008067          	ret

00000000000128a0 <main>:
   128a0:	ff010113          	add	sp,sp,-16
   128a4:	00113423          	sd	ra,8(sp)
   128a8:	00010537          	lui	a0,0x10
   128ac:	20850513          	add	a0,a0,520 # 10208 <errid+0x59>
   128b0:	00900593          	li	a1,9
   128b4:	02c000ef          	jal	128e0 <printf>
   128b8:	00010537          	lui	a0,0x10
   128bc:	17c50513          	add	a0,a0,380 # 1017c <.Lline_table_start0+0x1017c>
   128c0:	020000ef          	jal	128e0 <printf>
   128c4:	00010537          	lui	a0,0x10
   128c8:	15f50513          	add	a0,a0,351 # 1015f <.Lline_table_start0+0x1015f>
   128cc:	53d060ef          	jal	19608 <puts>
   128d0:	00000513          	li	a0,0
   128d4:	00813083          	ld	ra,8(sp)
   128d8:	01010113          	add	sp,sp,16
   128dc:	00008067          	ret

00000000000128e0 <printf>:
   128e0:	fb010113          	add	sp,sp,-80
   128e4:	00113423          	sd	ra,8(sp)
   128e8:	00050293          	mv	t0,a0
   128ec:	05113423          	sd	a7,72(sp)
   128f0:	05013023          	sd	a6,64(sp)
   128f4:	02f13c23          	sd	a5,56(sp)
   128f8:	02e13823          	sd	a4,48(sp)
   128fc:	02d13423          	sd	a3,40(sp)
   12900:	02c13023          	sd	a2,32(sp)
   12904:	00b13c23          	sd	a1,24(sp)
   12908:	01810513          	add	a0,sp,24
   1290c:	00a13023          	sd	a0,0(sp)
   12910:	0001b537          	lui	a0,0x1b
   12914:	88050513          	add	a0,a0,-1920 # 1a880 <__stdout_FILE>
   12918:	01810613          	add	a2,sp,24
   1291c:	00028593          	mv	a1,t0
   12920:	254000ef          	jal	12b74 <vfprintf>
   12924:	00813083          	ld	ra,8(sp)
   12928:	05010113          	add	sp,sp,80
   1292c:	00008067          	ret

0000000000012930 <__aio_close>:
   12930:	00008067          	ret

0000000000012934 <__stdio_close>:
   12934:	ff010113          	add	sp,sp,-16
   12938:	00113423          	sd	ra,8(sp)
   1293c:	07852503          	lw	a0,120(a0)
   12940:	ff1ff0ef          	jal	12930 <__aio_close>
   12944:	03900893          	li	a7,57
   12948:	00000073          	ecall
   1294c:	014000ef          	jal	12960 <__syscall_ret>
   12950:	0005051b          	sext.w	a0,a0
   12954:	00813083          	ld	ra,8(sp)
   12958:	01010113          	add	sp,sp,16
   1295c:	00008067          	ret

0000000000012960 <__syscall_ret>:
   12960:	fffff5b7          	lui	a1,0xfffff
   12964:	0015859b          	addw	a1,a1,1 # fffffffffffff001 <__global_pointer$+0xfffffffffffe3fb9>
   12968:	02b56663          	bltu	a0,a1,12994 <.LBB0_2>
   1296c:	ff010113          	add	sp,sp,-16
   12970:	00113423          	sd	ra,8(sp)
   12974:	00813023          	sd	s0,0(sp)
   12978:	40a0043b          	negw	s0,a0
   1297c:	01c000ef          	jal	12998 <__errno_location>
   12980:	00852023          	sw	s0,0(a0)
   12984:	fff00513          	li	a0,-1
   12988:	00813083          	ld	ra,8(sp)
   1298c:	00013403          	ld	s0,0(sp)
   12990:	01010113          	add	sp,sp,16

0000000000012994 <.LBB0_2>:
   12994:	00008067          	ret

0000000000012998 <__errno_location>:
   12998:	00020513          	mv	a0,tp
   1299c:	f5c50513          	add	a0,a0,-164
   129a0:	00008067          	ret

00000000000129a4 <__stdout_write>:
   129a4:	ff010113          	add	sp,sp,-16
   129a8:	00113423          	sd	ra,8(sp)
   129ac:	00050693          	mv	a3,a0
   129b0:	00054503          	lbu	a0,0(a0)
   129b4:	00060713          	mv	a4,a2
   129b8:	00058793          	mv	a5,a1
   129bc:	000135b7          	lui	a1,0x13
   129c0:	a1058593          	add	a1,a1,-1520 # 12a10 <__stdio_write>
   129c4:	04057513          	and	a0,a0,64
   129c8:	04b6b423          	sd	a1,72(a3)
   129cc:	02051463          	bnez	a0,129f4 <.LBB0_3>
   129d0:	0786a503          	lw	a0,120(a3)
   129d4:	000055b7          	lui	a1,0x5
   129d8:	4135859b          	addw	a1,a1,1043 # 5413 <.Lline_table_start0+0x5413>
   129dc:	01d00893          	li	a7,29
   129e0:	00010613          	mv	a2,sp
   129e4:	00000073          	ecall
   129e8:	00050663          	beqz	a0,129f4 <.LBB0_3>
   129ec:	fff00513          	li	a0,-1
   129f0:	08a6a823          	sw	a0,144(a3)

00000000000129f4 <.LBB0_3>:
   129f4:	00068513          	mv	a0,a3
   129f8:	00078593          	mv	a1,a5
   129fc:	00070613          	mv	a2,a4
   12a00:	010000ef          	jal	12a10 <__stdio_write>
   12a04:	00813083          	ld	ra,8(sp)
   12a08:	01010113          	add	sp,sp,16
   12a0c:	00008067          	ret

0000000000012a10 <__stdio_write>:
   12a10:	fa010113          	add	sp,sp,-96
   12a14:	04113c23          	sd	ra,88(sp)
   12a18:	04813823          	sd	s0,80(sp)
   12a1c:	04913423          	sd	s1,72(sp)
   12a20:	05213023          	sd	s2,64(sp)
   12a24:	03313c23          	sd	s3,56(sp)
   12a28:	03413823          	sd	s4,48(sp)
   12a2c:	03513423          	sd	s5,40(sp)
   12a30:	00050493          	mv	s1,a0
   12a34:	03853503          	ld	a0,56(a0)
   12a38:	00a13423          	sd	a0,8(sp)
   12a3c:	0284b683          	ld	a3,40(s1)
   12a40:	00060413          	mv	s0,a2
   12a44:	40a686b3          	sub	a3,a3,a0
   12a48:	00d13823          	sd	a3,16(sp)
   12a4c:	00b13c23          	sd	a1,24(sp)
   12a50:	02c13023          	sd	a2,32(sp)
   12a54:	00c68a33          	add	s4,a3,a2
   12a58:	0784a503          	lw	a0,120(s1)
   12a5c:	00810a93          	add	s5,sp,8
   12a60:	00200913          	li	s2,2
   12a64:	04200893          	li	a7,66
   12a68:	00810593          	add	a1,sp,8
   12a6c:	00200613          	li	a2,2
   12a70:	00000073          	ecall
   12a74:	eedff0ef          	jal	12960 <__syscall_ret>
   12a78:	06aa0c63          	beq	s4,a0,12af0 <.LBB0_5>

0000000000012a7c <.LBB0_1>:
   12a7c:	0a054a63          	bltz	a0,12b30 <.LBB0_7>
   12a80:	008ab703          	ld	a4,8(s5)
   12a84:	00a73633          	sltu	a2,a4,a0
   12a88:	00461993          	sll	s3,a2,0x4
   12a8c:	013a89b3          	add	s3,s5,s3
   12a90:	0009b683          	ld	a3,0(s3)
   12a94:	40c005b3          	neg	a1,a2
   12a98:	00e5f5b3          	and	a1,a1,a4
   12a9c:	40b505b3          	sub	a1,a0,a1
   12aa0:	00b686b3          	add	a3,a3,a1
   12aa4:	00d9b023          	sd	a3,0(s3)
   12aa8:	01800693          	li	a3,24
   12aac:	00a76463          	bltu	a4,a0,12ab4 <.LBB0_4>
   12ab0:	00800693          	li	a3,8

0000000000012ab4 <.LBB0_4>:
   12ab4:	00da86b3          	add	a3,s5,a3
   12ab8:	0006b703          	ld	a4,0(a3)
   12abc:	40b70733          	sub	a4,a4,a1
   12ac0:	00e6b023          	sd	a4,0(a3)
   12ac4:	0784a583          	lw	a1,120(s1)
   12ac8:	40aa0a33          	sub	s4,s4,a0
   12acc:	40c9093b          	subw	s2,s2,a2
   12ad0:	04200893          	li	a7,66
   12ad4:	00058513          	mv	a0,a1
   12ad8:	00098593          	mv	a1,s3
   12adc:	00090613          	mv	a2,s2
   12ae0:	00000073          	ecall
   12ae4:	e7dff0ef          	jal	12960 <__syscall_ret>
   12ae8:	00098a93          	mv	s5,s3
   12aec:	f8aa18e3          	bne	s4,a0,12a7c <.LBB0_1>

0000000000012af0 <.LBB0_5>:
   12af0:	0584b503          	ld	a0,88(s1)
   12af4:	0604b583          	ld	a1,96(s1)
   12af8:	00b505b3          	add	a1,a0,a1
   12afc:	02b4b023          	sd	a1,32(s1)
   12b00:	02a4bc23          	sd	a0,56(s1)
   12b04:	02a4b423          	sd	a0,40(s1)
   12b08:	00040513          	mv	a0,s0

0000000000012b0c <.LBB0_6>:
   12b0c:	05813083          	ld	ra,88(sp)
   12b10:	05013403          	ld	s0,80(sp)
   12b14:	04813483          	ld	s1,72(sp)
   12b18:	04013903          	ld	s2,64(sp)
   12b1c:	03813983          	ld	s3,56(sp)
   12b20:	03013a03          	ld	s4,48(sp)
   12b24:	02813a83          	ld	s5,40(sp)
   12b28:	06010113          	add	sp,sp,96
   12b2c:	00008067          	ret

0000000000012b30 <.LBB0_7>:
   12b30:	0004a583          	lw	a1,0(s1)
   12b34:	00000513          	li	a0,0
   12b38:	0204b023          	sd	zero,32(s1)
   12b3c:	0204bc23          	sd	zero,56(s1)
   12b40:	0205e593          	or	a1,a1,32
   12b44:	00b4a023          	sw	a1,0(s1)
   12b48:	00200593          	li	a1,2
   12b4c:	0204b423          	sd	zero,40(s1)
   12b50:	fab90ee3          	beq	s2,a1,12b0c <.LBB0_6>
   12b54:	008ab503          	ld	a0,8(s5)
   12b58:	40a40533          	sub	a0,s0,a0
   12b5c:	fb1ff06f          	j	12b0c <.LBB0_6>

0000000000012b60 <__stdio_seek>:
   12b60:	07852503          	lw	a0,120(a0)
   12b64:	0040006f          	j	12b68 <lseek>

0000000000012b68 <lseek>:
   12b68:	03e00893          	li	a7,62
   12b6c:	00000073          	ecall
   12b70:	df1ff06f          	j	12960 <__syscall_ret>

0000000000012b74 <vfprintf>:
   12b74:	ea010113          	add	sp,sp,-352
   12b78:	14113c23          	sd	ra,344(sp)
   12b7c:	14813823          	sd	s0,336(sp)
   12b80:	14913423          	sd	s1,328(sp)
   12b84:	15213023          	sd	s2,320(sp)
   12b88:	13313c23          	sd	s3,312(sp)
   12b8c:	13413823          	sd	s4,304(sp)
   12b90:	13513423          	sd	s5,296(sp)
   12b94:	00058913          	mv	s2,a1
   12b98:	00050413          	mv	s0,a0
   12b9c:	12c13023          	sd	a2,288(sp)
   12ba0:	0f010513          	add	a0,sp,240
   12ba4:	02800613          	li	a2,40
   12ba8:	00000593          	li	a1,0
   12bac:	b99ff0ef          	jal	12744 <memset>
   12bb0:	12013503          	ld	a0,288(sp)
   12bb4:	10a13c23          	sd	a0,280(sp)
   12bb8:	11810613          	add	a2,sp,280
   12bbc:	05010693          	add	a3,sp,80
   12bc0:	0f010713          	add	a4,sp,240
   12bc4:	00000513          	li	a0,0
   12bc8:	00090593          	mv	a1,s2
   12bcc:	134000ef          	jal	12d00 <printf_core>
   12bd0:	00054e63          	bltz	a0,12bec <.LBB0_3>
   12bd4:	08c42503          	lw	a0,140(s0)
   12bd8:	00054e63          	bltz	a0,12bf4 <.LBB0_4>
   12bdc:	00040513          	mv	a0,s0
   12be0:	210020ef          	jal	14df0 <__lockfile>
   12be4:	00050493          	mv	s1,a0
   12be8:	0100006f          	j	12bf8 <.LBB0_5>

0000000000012bec <.LBB0_3>:
   12bec:	fff00913          	li	s2,-1
   12bf0:	0e80006f          	j	12cd8 <.LBB0_16>

0000000000012bf4 <.LBB0_4>:
   12bf4:	00000493          	li	s1,0

0000000000012bf8 <.LBB0_5>:
   12bf8:	08842503          	lw	a0,136(s0)
   12bfc:	00046a03          	lwu	s4,0(s0)
   12c00:	00a04663          	bgtz	a0,12c0c <.LBB0_7>
   12c04:	fdfa7513          	and	a0,s4,-33
   12c08:	00a42023          	sw	a0,0(s0)

0000000000012c0c <.LBB0_7>:
   12c0c:	06043503          	ld	a0,96(s0)
   12c10:	00050a63          	beqz	a0,12c24 <.LBB0_9>
   12c14:	02043503          	ld	a0,32(s0)
   12c18:	00000a93          	li	s5,0
   12c1c:	02051c63          	bnez	a0,12c54 <.LBB0_11>
   12c20:	0240006f          	j	12c44 <.LBB0_10>

0000000000012c24 <.LBB0_9>:
   12c24:	05843a83          	ld	s5,88(s0)
   12c28:	00010513          	mv	a0,sp
   12c2c:	04a43c23          	sd	a0,88(s0)
   12c30:	05000513          	li	a0,80
   12c34:	06a43023          	sd	a0,96(s0)
   12c38:	02043023          	sd	zero,32(s0)
   12c3c:	02043c23          	sd	zero,56(s0)
   12c40:	02043423          	sd	zero,40(s0)

0000000000012c44 <.LBB0_10>:
   12c44:	00040513          	mv	a0,s0
   12c48:	2a0020ef          	jal	14ee8 <__towrite>
   12c4c:	fff00993          	li	s3,-1
   12c50:	02051063          	bnez	a0,12c70 <.LBB0_12>

0000000000012c54 <.LBB0_11>:
   12c54:	11810613          	add	a2,sp,280
   12c58:	05010693          	add	a3,sp,80
   12c5c:	0f010713          	add	a4,sp,240
   12c60:	00040513          	mv	a0,s0
   12c64:	00090593          	mv	a1,s2
   12c68:	098000ef          	jal	12d00 <printf_core>
   12c6c:	00050993          	mv	s3,a0

0000000000012c70 <.LBB0_12>:
   12c70:	020a7a13          	and	s4,s4,32
   12c74:	020a8e63          	beqz	s5,12cb0 <.LBB0_14>
   12c78:	04843683          	ld	a3,72(s0)
   12c7c:	00040513          	mv	a0,s0
   12c80:	00000593          	li	a1,0
   12c84:	00000613          	li	a2,0
   12c88:	000680e7          	jalr	a3
   12c8c:	02843503          	ld	a0,40(s0)
   12c90:	00a03533          	snez	a0,a0
   12c94:	fff50513          	add	a0,a0,-1
   12c98:	013569b3          	or	s3,a0,s3
   12c9c:	05543c23          	sd	s5,88(s0)
   12ca0:	06043023          	sd	zero,96(s0)
   12ca4:	02043023          	sd	zero,32(s0)
   12ca8:	02043c23          	sd	zero,56(s0)
   12cac:	02043423          	sd	zero,40(s0)

0000000000012cb0 <.LBB0_14>:
   12cb0:	00042503          	lw	a0,0(s0)
   12cb4:	02057593          	and	a1,a0,32
   12cb8:	0015b593          	seqz	a1,a1
   12cbc:	fff58593          	add	a1,a1,-1
   12cc0:	0135e933          	or	s2,a1,s3
   12cc4:	01456533          	or	a0,a0,s4
   12cc8:	00a42023          	sw	a0,0(s0)
   12ccc:	00048663          	beqz	s1,12cd8 <.LBB0_16>
   12cd0:	00040513          	mv	a0,s0
   12cd4:	1c4020ef          	jal	14e98 <__unlockfile>

0000000000012cd8 <.LBB0_16>:
   12cd8:	00090513          	mv	a0,s2
   12cdc:	15813083          	ld	ra,344(sp)
   12ce0:	15013403          	ld	s0,336(sp)
   12ce4:	14813483          	ld	s1,328(sp)
   12ce8:	14013903          	ld	s2,320(sp)
   12cec:	13813983          	ld	s3,312(sp)
   12cf0:	13013a03          	ld	s4,304(sp)
   12cf4:	12813a83          	ld	s5,296(sp)
   12cf8:	16010113          	add	sp,sp,352
   12cfc:	00008067          	ret

0000000000012d00 <printf_core>:
   12d00:	81010113          	add	sp,sp,-2032
   12d04:	7e113423          	sd	ra,2024(sp)
   12d08:	7e813023          	sd	s0,2016(sp)
   12d0c:	7c913c23          	sd	s1,2008(sp)
   12d10:	7d213823          	sd	s2,2000(sp)
   12d14:	7d313423          	sd	s3,1992(sp)
   12d18:	7d413023          	sd	s4,1984(sp)
   12d1c:	7b513c23          	sd	s5,1976(sp)
   12d20:	7b613823          	sd	s6,1968(sp)
   12d24:	7b713423          	sd	s7,1960(sp)
   12d28:	7b813023          	sd	s8,1952(sp)
   12d2c:	79913c23          	sd	s9,1944(sp)
   12d30:	79a13823          	sd	s10,1936(sp)
   12d34:	79b13423          	sd	s11,1928(sp)
   12d38:	000017b7          	lui	a5,0x1
   12d3c:	7707879b          	addw	a5,a5,1904 # 1770 <.Lline_table_start0+0x1770>
   12d40:	40f10133          	sub	sp,sp,a5
   12d44:	16e13023          	sd	a4,352(sp)
   12d48:	16d13423          	sd	a3,360(sp)
   12d4c:	16c13823          	sd	a2,368(sp)
   12d50:	00058d93          	mv	s11,a1
   12d54:	00050993          	mv	s3,a0
   12d58:	18013823          	sd	zero,400(sp)
   12d5c:	00000a13          	li	s4,0
   12d60:	00000a93          	li	s5,0
   12d64:	20710593          	add	a1,sp,519
   12d68:	ffe00513          	li	a0,-2
   12d6c:	40b50533          	sub	a0,a0,a1
   12d70:	0ea13423          	sd	a0,232(sp)
   12d74:	ffff0537          	lui	a0,0xffff0
   12d78:	ffc5051b          	addw	a0,a0,-4 # fffffffffffefffc <__global_pointer$+0xfffffffffffd4fb4>
   12d7c:	23010593          	add	a1,sp,560
   12d80:	00a58533          	add	a0,a1,a0
   12d84:	0aa13023          	sd	a0,160(sp)
   12d88:	00013537          	lui	a0,0x13
   12d8c:	8895051b          	addw	a0,a0,-1911 # 12889 <.L1+0x5>
   12d90:	14a13c23          	sd	a0,344(sp)
   12d94:	0cccd537          	lui	a0,0xcccd
   12d98:	ccc5051b          	addw	a0,a0,-820 # ccccccc <__global_pointer$+0xccb1c84>
   12d9c:	18a13423          	sd	a0,392(sp)
   12da0:	00010537          	lui	a0,0x10
   12da4:	33050513          	add	a0,a0,816 # 10330 <states>
   12da8:	16a13c23          	sd	a0,376(sp)
   12dac:	0401b537          	lui	a0,0x401b
   12db0:	02451513          	sll	a0,a0,0x24
   12db4:	0ca13c23          	sd	a0,216(sp)
   12db8:	00010537          	lui	a0,0x10
   12dbc:	50050513          	add	a0,a0,1280 # 10500 <xdigits>
   12dc0:	14a13823          	sd	a0,336(sp)
   12dc4:	04003537          	lui	a0,0x4003
   12dc8:	02451513          	sll	a0,a0,0x24
   12dcc:	18a13023          	sd	a0,384(sp)
   12dd0:	00402537          	lui	a0,0x402
   12dd4:	cdd5051b          	addw	a0,a0,-803 # 401cdd <__global_pointer$+0x3e6c95>
   12dd8:	00c51513          	sll	a0,a0,0xc
   12ddc:	d6550513          	add	a0,a0,-667
   12de0:	01c51513          	sll	a0,a0,0x1c
   12de4:	0ea13c23          	sd	a0,248(sp)
   12de8:	40700513          	li	a0,1031
   12dec:	03451513          	sll	a0,a0,0x34
   12df0:	0aa13c23          	sd	a0,184(sp)
   12df4:	07fff537          	lui	a0,0x7fff
   12df8:	02351513          	sll	a0,a0,0x23
   12dfc:	0aa13823          	sd	a0,176(sp)
   12e00:	03fff537          	lui	a0,0x3fff
   12e04:	02451513          	sll	a0,a0,0x24
   12e08:	0ca13023          	sd	a0,192(sp)
   12e0c:	01fff537          	lui	a0,0x1fff
   12e10:	02551513          	sll	a0,a0,0x25
   12e14:	0aa13423          	sd	a0,168(sp)
   12e18:	ccccd537          	lui	a0,0xccccd
   12e1c:	ccd5051b          	addw	a0,a0,-819 # ffffffffcccccccd <__global_pointer$+0xffffffffcccb1c85>
   12e20:	08a13c23          	sd	a0,152(sp)
   12e24:	1999a537          	lui	a0,0x1999a
   12e28:	9995051b          	addw	a0,a0,-1639 # 19999999 <__global_pointer$+0x1997e951>
   12e2c:	08a13823          	sd	a0,144(sp)
   12e30:	00010537          	lui	a0,0x10
   12e34:	19f50513          	add	a0,a0,415 # 1019f <.Lline_table_start0+0x1019f>
   12e38:	0ea13823          	sd	a0,240(sp)
   12e3c:	00010537          	lui	a0,0x10
   12e40:	17850513          	add	a0,a0,376 # 10178 <.Lline_table_start0+0x10178>
   12e44:	10a13823          	sd	a0,272(sp)
   12e48:	00010537          	lui	a0,0x10
   12e4c:	20b50513          	add	a0,a0,523 # 1020b <errid+0x5c>
   12e50:	12a13023          	sd	a0,288(sp)
   12e54:	00010537          	lui	a0,0x10
   12e58:	17350513          	add	a0,a0,371 # 10173 <.Lline_table_start0+0x10173>
   12e5c:	10a13423          	sd	a0,264(sp)
   12e60:	00010537          	lui	a0,0x10
   12e64:	1ab50513          	add	a0,a0,427 # 101ab <.Lline_table_start0+0x101ab>
   12e68:	10a13c23          	sd	a0,280(sp)
   12e6c:	00010537          	lui	a0,0x10
   12e70:	23050513          	add	a0,a0,560 # 10230 <.LJTI1_0>
   12e74:	14a13023          	sd	a0,320(sp)
   12e78:	00010537          	lui	a0,0x10
   12e7c:	2c850513          	add	a0,a0,712 # 102c8 <.LJTI1_1>
   12e80:	0ca13423          	sd	a0,200(sp)
   12e84:	00010537          	lui	a0,0x10
   12e88:	15850513          	add	a0,a0,344 # 10158 <.Lline_table_start0+0x10158>
   12e8c:	0ca13823          	sd	a0,208(sp)
   12e90:	80000437          	lui	s0,0x80000
   12e94:	fff4041b          	addw	s0,s0,-1 # 7fffffff <__global_pointer$+0x7ffe4fb7>
   12e98:	40b00533          	neg	a0,a1
   12e9c:	10a13023          	sd	a0,256(sp)
   12ea0:	00010537          	lui	a0,0x10
   12ea4:	18c50513          	add	a0,a0,396 # 1018c <.Lline_table_start0+0x1018c>
   12ea8:	12a13823          	sd	a0,304(sp)
   12eac:	00350513          	add	a0,a0,3
   12eb0:	0ea13023          	sd	a0,224(sp)
   12eb4:	fff00513          	li	a0,-1
   12eb8:	03f51513          	sll	a0,a0,0x3f
   12ebc:	12a13c23          	sd	a0,312(sp)
   12ec0:	3b9ad537          	lui	a0,0x3b9ad
   12ec4:	a005051b          	addw	a0,a0,-1536 # 3b9aca00 <__global_pointer$+0x3b9919b8>
   12ec8:	14a13423          	sd	a0,328(sp)
   12ecc:	00010537          	lui	a0,0x10
   12ed0:	18250513          	add	a0,a0,386 # 10182 <.Lline_table_start0+0x10182>
   12ed4:	12a13423          	sd	a0,296(sp)
   12ed8:	02500d13          	li	s10,37

0000000000012edc <.LBB1_1>:
   12edc:	00900c93          	li	s9,9

0000000000012ee0 <.LBB1_2>:
   12ee0:	4144053b          	subw	a0,s0,s4
   12ee4:	000a859b          	sext.w	a1,s5
   12ee8:	00b55463          	bge	a0,a1,12ef0 <.LBB1_3>
   12eec:	4590106f          	j	14b44 <.LBB1_394>

0000000000012ef0 <.LBB1_3>:
   12ef0:	000d8493          	mv	s1,s11
   12ef4:	000dc503          	lbu	a0,0(s11)
   12ef8:	014a8a3b          	addw	s4,s5,s4
   12efc:	00051463          	bnez	a0,12f04 <.LBB1_4>
   12f00:	4a10106f          	j	14ba0 <.LBB1_398>

0000000000012f04 <.LBB1_4>:
   12f04:	00048d93          	mv	s11,s1

0000000000012f08 <.LBB1_5>:
   12f08:	0ff57513          	zext.b	a0,a0
   12f0c:	00050a63          	beqz	a0,12f20 <.LBB1_8>
   12f10:	01a50c63          	beq	a0,s10,12f28 <.LBB1_9>
   12f14:	001dc503          	lbu	a0,1(s11)
   12f18:	001d8d93          	add	s11,s11,1
   12f1c:	fedff06f          	j	12f08 <.LBB1_5>

0000000000012f20 <.LBB1_8>:
   12f20:	000d8513          	mv	a0,s11
   12f24:	0300006f          	j	12f54 <.LBB1_13>

0000000000012f28 <.LBB1_9>:
   12f28:	000d8513          	mv	a0,s11
   12f2c:	000d8593          	mv	a1,s11

0000000000012f30 <.LBB1_10>:
   12f30:	0015c603          	lbu	a2,1(a1)
   12f34:	01a61e63          	bne	a2,s10,12f50 <.LBB1_12>
   12f38:	0025c603          	lbu	a2,2(a1)
   12f3c:	00258d93          	add	s11,a1,2
   12f40:	00150513          	add	a0,a0,1
   12f44:	000d8593          	mv	a1,s11
   12f48:	ffa604e3          	beq	a2,s10,12f30 <.LBB1_10>
   12f4c:	0080006f          	j	12f54 <.LBB1_13>

0000000000012f50 <.LBB1_12>:
   12f50:	00058d93          	mv	s11,a1

0000000000012f54 <.LBB1_13>:
   12f54:	40950ab3          	sub	s5,a0,s1
   12f58:	41440bbb          	subw	s7,s0,s4
   12f5c:	020b9513          	sll	a0,s7,0x20
   12f60:	02055513          	srl	a0,a0,0x20
   12f64:	01555463          	bge	a0,s5,12f6c <.LBB1_14>
   12f68:	3dd0106f          	j	14b44 <.LBB1_394>

0000000000012f6c <.LBB1_14>:
   12f6c:	000a891b          	sext.w	s2,s5
   12f70:	02098063          	beqz	s3,12f90 <.LBB1_17>
   12f74:	0009c503          	lbu	a0,0(s3)
   12f78:	02057513          	and	a0,a0,32
   12f7c:	00051a63          	bnez	a0,12f90 <.LBB1_17>
   12f80:	00048513          	mv	a0,s1
   12f84:	00090593          	mv	a1,s2
   12f88:	00098613          	mv	a2,s3
   12f8c:	1ec020ef          	jal	15178 <__fwritex>

0000000000012f90 <.LBB1_17>:
   12f90:	f40918e3          	bnez	s2,12ee0 <.LBB1_2>
   12f94:	001dc503          	lbu	a0,1(s11)
   12f98:	001d8b13          	add	s6,s11,1
   12f9c:	fd050593          	add	a1,a0,-48
   12fa0:	fff00713          	li	a4,-1
   12fa4:	02bce263          	bltu	s9,a1,12fc8 <.LBB1_21>
   12fa8:	002dc603          	lbu	a2,2(s11)
   12fac:	02400693          	li	a3,36
   12fb0:	00d61c63          	bne	a2,a3,12fc8 <.LBB1_21>
   12fb4:	003dc503          	lbu	a0,3(s11)
   12fb8:	003d8b13          	add	s6,s11,3
   12fbc:	00100613          	li	a2,1
   12fc0:	18c13823          	sd	a2,400(sp)
   12fc4:	00058713          	mv	a4,a1

0000000000012fc8 <.LBB1_21>:
   12fc8:	fe050593          	add	a1,a0,-32
   12fcc:	01f00613          	li	a2,31
   12fd0:	06e13823          	sd	a4,112(sp)
   12fd4:	04b66a63          	bltu	a2,a1,13028 <.LBB1_26>
   12fd8:	00100793          	li	a5,1
   12fdc:	00b795bb          	sllw	a1,a5,a1
   12fe0:	15813703          	ld	a4,344(sp)
   12fe4:	00e5f633          	and	a2,a1,a4
   12fe8:	18813903          	ld	s2,392(sp)
   12fec:	02000813          	li	a6,32
   12ff0:	00a00d93          	li	s11,10
   12ff4:	00000a93          	li	s5,0
   12ff8:	02060e63          	beqz	a2,13034 <.LBB1_27>
   12ffc:	001b0613          	add	a2,s6,1

0000000000013000 <.LBB1_24>:
   13000:	00060b13          	mv	s6,a2
   13004:	00064503          	lbu	a0,0(a2)
   13008:	fe050613          	add	a2,a0,-32
   1300c:	0155eab3          	or	s5,a1,s5
   13010:	03067263          	bgeu	a2,a6,13034 <.LBB1_27>
   13014:	00c795bb          	sllw	a1,a5,a2
   13018:	00e5f6b3          	and	a3,a1,a4
   1301c:	001b0613          	add	a2,s6,1
   13020:	fe0690e3          	bnez	a3,13000 <.LBB1_24>
   13024:	0100006f          	j	13034 <.LBB1_27>

0000000000013028 <.LBB1_26>:
   13028:	00000a93          	li	s5,0
   1302c:	18813903          	ld	s2,392(sp)
   13030:	00a00d93          	li	s11,10

0000000000013034 <.LBB1_27>:
   13034:	02a00593          	li	a1,42
   13038:	04b51c63          	bne	a0,a1,13090 <.LBB1_31>
   1303c:	001b4503          	lbu	a0,1(s6)
   13040:	fd050513          	add	a0,a0,-48
   13044:	0cace063          	bltu	s9,a0,13104 <.LBB1_37>
   13048:	002b4583          	lbu	a1,2(s6)
   1304c:	02400613          	li	a2,36
   13050:	0ac59a63          	bne	a1,a2,13104 <.LBB1_37>
   13054:	02051513          	sll	a0,a0,0x20
   13058:	01e55513          	srl	a0,a0,0x1e
   1305c:	16013583          	ld	a1,352(sp)
   13060:	00a58533          	add	a0,a1,a0
   13064:	01b52023          	sw	s11,0(a0)
   13068:	001b4503          	lbu	a0,1(s6)
   1306c:	00451513          	sll	a0,a0,0x4
   13070:	16813583          	ld	a1,360(sp)
   13074:	00b50533          	add	a0,a0,a1
   13078:	d0052603          	lw	a2,-768(a0)
   1307c:	003b0b13          	add	s6,s6,3
   13080:	00100513          	li	a0,1
   13084:	18a13823          	sd	a0,400(sp)
   13088:	0c065263          	bgez	a2,1314c <.LBB1_43>
   1308c:	0a80006f          	j	13134 <.LBB1_40>

0000000000013090 <.LBB1_31>:
   13090:	fd050c13          	add	s8,a0,-48
   13094:	0b8cea63          	bltu	s9,s8,13148 <.LBB1_42>
   13098:	00000613          	li	a2,0
   1309c:	000b0c93          	mv	s9,s6

00000000000130a0 <.LBB1_33>:
   130a0:	0006051b          	sext.w	a0,a2
   130a4:	00a97e63          	bgeu	s2,a0,130c0 <.LBB1_35>
   130a8:	001cc503          	lbu	a0,1(s9)
   130ac:	001c8c93          	add	s9,s9,1
   130b0:	fd050c13          	add	s8,a0,-48
   130b4:	fff00613          	li	a2,-1
   130b8:	ffbc64e3          	bltu	s8,s11,130a0 <.LBB1_33>
   130bc:	2890106f          	j	14b44 <.LBB1_394>

00000000000130c0 <.LBB1_35>:
   130c0:	00a00593          	li	a1,10
   130c4:	00060513          	mv	a0,a2
   130c8:	fb4ff0ef          	jal	1287c <__muldi3>
   130cc:	40a405bb          	subw	a1,s0,a0
   130d0:	000c061b          	sext.w	a2,s8
   130d4:	00c5b5b3          	sltu	a1,a1,a2
   130d8:	001cc603          	lbu	a2,1(s9)
   130dc:	0185053b          	addw	a0,a0,s8
   130e0:	40b005b3          	neg	a1,a1
   130e4:	001c8b13          	add	s6,s9,1
   130e8:	fd060c13          	add	s8,a2,-48
   130ec:	00a5e633          	or	a2,a1,a0
   130f0:	000b0c93          	mv	s9,s6
   130f4:	fbbc66e3          	bltu	s8,s11,130a0 <.LBB1_33>
   130f8:	00900c93          	li	s9,9
   130fc:	04065863          	bgez	a2,1314c <.LBB1_43>
   13100:	2450106f          	j	14b44 <.LBB1_394>

0000000000013104 <.LBB1_37>:
   13104:	19013503          	ld	a0,400(sp)
   13108:	00050463          	beqz	a0,13110 <.LBB1_38>
   1310c:	3190106f          	j	14c24 <.LBB1_409>

0000000000013110 <.LBB1_38>:
   13110:	001b0b13          	add	s6,s6,1
   13114:	02098863          	beqz	s3,13144 <.LBB1_41>
   13118:	17013603          	ld	a2,368(sp)
   1311c:	00063503          	ld	a0,0(a2)
   13120:	00850593          	add	a1,a0,8
   13124:	00b63023          	sd	a1,0(a2)
   13128:	00052603          	lw	a2,0(a0)
   1312c:	18013823          	sd	zero,400(sp)
   13130:	00065e63          	bgez	a2,1314c <.LBB1_43>

0000000000013134 <.LBB1_40>:
   13134:	00002537          	lui	a0,0x2
   13138:	00aaeab3          	or	s5,s5,a0
   1313c:	40c0063b          	negw	a2,a2
   13140:	00c0006f          	j	1314c <.LBB1_43>

0000000000013144 <.LBB1_41>:
   13144:	18013823          	sd	zero,400(sp)

0000000000013148 <.LBB1_42>:
   13148:	00000613          	li	a2,0

000000000001314c <.LBB1_43>:
   1314c:	06c13c23          	sd	a2,120(sp)
   13150:	000b4503          	lbu	a0,0(s6)
   13154:	02e00593          	li	a1,46
   13158:	09513423          	sd	s5,136(sp)
   1315c:	04b51c63          	bne	a0,a1,131b4 <.LBB1_48>
   13160:	001b4503          	lbu	a0,1(s6)
   13164:	02a00593          	li	a1,42
   13168:	04b51e63          	bne	a0,a1,131c4 <.LBB1_49>
   1316c:	002b4503          	lbu	a0,2(s6)
   13170:	fd050513          	add	a0,a0,-48 # 1fd0 <.Lline_table_start0+0x1fd0>
   13174:	0aacea63          	bltu	s9,a0,13228 <.LBB1_55>
   13178:	003b4583          	lbu	a1,3(s6)
   1317c:	02400613          	li	a2,36
   13180:	0ac59463          	bne	a1,a2,13228 <.LBB1_55>
   13184:	02051513          	sll	a0,a0,0x20
   13188:	01e55513          	srl	a0,a0,0x1e
   1318c:	16013583          	ld	a1,352(sp)
   13190:	00a58533          	add	a0,a1,a0
   13194:	01b52023          	sw	s11,0(a0)
   13198:	002b4503          	lbu	a0,2(s6)
   1319c:	00451513          	sll	a0,a0,0x4
   131a0:	16813583          	ld	a1,360(sp)
   131a4:	00b50533          	add	a0,a0,a1
   131a8:	d0052503          	lw	a0,-768(a0)
   131ac:	004b0b13          	add	s6,s6,4
   131b0:	0b00006f          	j	13260 <.LBB1_60>

00000000000131b4 <.LBB1_48>:
   131b4:	00000a93          	li	s5,0
   131b8:	fff00513          	li	a0,-1
   131bc:	08a13023          	sd	a0,128(sp)
   131c0:	0ac0006f          	j	1326c <.LBB1_61>

00000000000131c4 <.LBB1_49>:
   131c4:	001b0b13          	add	s6,s6,1
   131c8:	fd050c13          	add	s8,a0,-48
   131cc:	00100a93          	li	s5,1
   131d0:	098ce263          	bltu	s9,s8,13254 <.LBB1_58>
   131d4:	00000513          	li	a0,0

00000000000131d8 <.LBB1_51>:
   131d8:	0005059b          	sext.w	a1,a0
   131dc:	fff00613          	li	a2,-1
   131e0:	02b96263          	bltu	s2,a1,13204 <.LBB1_53>
   131e4:	00a00593          	li	a1,10
   131e8:	e94ff0ef          	jal	1287c <__muldi3>
   131ec:	40a405bb          	subw	a1,s0,a0
   131f0:	000c061b          	sext.w	a2,s8
   131f4:	00c5b5b3          	sltu	a1,a1,a2
   131f8:	0185053b          	addw	a0,a0,s8
   131fc:	40b005b3          	neg	a1,a1
   13200:	00a5e633          	or	a2,a1,a0

0000000000013204 <.LBB1_53>:
   13204:	001b4503          	lbu	a0,1(s6)
   13208:	001b0593          	add	a1,s6,1
   1320c:	fd050c13          	add	s8,a0,-48
   13210:	00060513          	mv	a0,a2
   13214:	00058b13          	mv	s6,a1
   13218:	fdbc60e3          	bltu	s8,s11,131d8 <.LBB1_51>
   1321c:	08c13023          	sd	a2,128(sp)
   13220:	00058b13          	mv	s6,a1
   13224:	0480006f          	j	1326c <.LBB1_61>

0000000000013228 <.LBB1_55>:
   13228:	19013503          	ld	a0,400(sp)
   1322c:	00050463          	beqz	a0,13234 <.LBB1_56>
   13230:	1f50106f          	j	14c24 <.LBB1_409>

0000000000013234 <.LBB1_56>:
   13234:	002b0b13          	add	s6,s6,2
   13238:	02098263          	beqz	s3,1325c <.LBB1_59>
   1323c:	17013603          	ld	a2,368(sp)
   13240:	00063503          	ld	a0,0(a2)
   13244:	00850593          	add	a1,a0,8
   13248:	00b63023          	sd	a1,0(a2)
   1324c:	00052503          	lw	a0,0(a0)
   13250:	0100006f          	j	13260 <.LBB1_60>

0000000000013254 <.LBB1_58>:
   13254:	08013023          	sd	zero,128(sp)
   13258:	0140006f          	j	1326c <.LBB1_61>

000000000001325c <.LBB1_59>:
   1325c:	00000513          	li	a0,0

0000000000013260 <.LBB1_60>:
   13260:	08a13023          	sd	a0,128(sp)
   13264:	00052513          	slti	a0,a0,0
   13268:	00154a93          	xor	s5,a0,1

000000000001326c <.LBB1_61>:
   1326c:	00000593          	li	a1,0
   13270:	000b0d93          	mv	s11,s6
   13274:	17813b03          	ld	s6,376(sp)

0000000000013278 <.LBB1_62>:
   13278:	000dc903          	lbu	s2,0(s11)
   1327c:	00058c13          	mv	s8,a1
   13280:	f8590513          	add	a0,s2,-123
   13284:	01600c93          	li	s9,22
   13288:	fc600593          	li	a1,-58
   1328c:	00b57463          	bgeu	a0,a1,13294 <.LBB1_63>
   13290:	0b90106f          	j	14b48 <.LBB1_395>

0000000000013294 <.LBB1_63>:
   13294:	020c1513          	sll	a0,s8,0x20
   13298:	02055513          	srl	a0,a0,0x20
   1329c:	001d8d93          	add	s11,s11,1
   132a0:	03a00593          	li	a1,58
   132a4:	dd8ff0ef          	jal	1287c <__muldi3>
   132a8:	00ab0533          	add	a0,s6,a0
   132ac:	00a90533          	add	a0,s2,a0
   132b0:	fbf54583          	lbu	a1,-65(a0)
   132b4:	fff58513          	add	a0,a1,-1
   132b8:	00800613          	li	a2,8
   132bc:	fac56ee3          	bltu	a0,a2,13278 <.LBB1_62>
   132c0:	07513423          	sd	s5,104(sp)
   132c4:	01b00513          	li	a0,27
   132c8:	04a58463          	beq	a1,a0,13310 <.LBB1_68>
   132cc:	07013a83          	ld	s5,112(sp)
   132d0:	00059463          	bnez	a1,132d8 <.LBB1_66>
   132d4:	0750106f          	j	14b48 <.LBB1_395>

00000000000132d8 <.LBB1_66>:
   132d8:	040aca63          	bltz	s5,1332c <.LBB1_70>
   132dc:	002a9513          	sll	a0,s5,0x2
   132e0:	16013603          	ld	a2,352(sp)
   132e4:	00a60533          	add	a0,a2,a0
   132e8:	07813603          	ld	a2,120(sp)
   132ec:	00b52023          	sw	a1,0(a0)
   132f0:	004a9a93          	sll	s5,s5,0x4
   132f4:	16813503          	ld	a0,360(sp)
   132f8:	01550ab3          	add	s5,a0,s5
   132fc:	008ab503          	ld	a0,8(s5)
   13300:	1ea13423          	sd	a0,488(sp)
   13304:	000ab503          	ld	a0,0(s5)
   13308:	1ea13023          	sd	a0,480(sp)
   1330c:	0140006f          	j	13320 <.LBB1_69>

0000000000013310 <.LBB1_68>:
   13310:	07813603          	ld	a2,120(sp)
   13314:	07013503          	ld	a0,112(sp)
   13318:	00054463          	bltz	a0,13320 <.LBB1_69>
   1331c:	02d0106f          	j	14b48 <.LBB1_395>

0000000000013320 <.LBB1_69>:
   13320:	00000a93          	li	s5,0
   13324:	02099063          	bnez	s3,13344 <.LBB1_72>
   13328:	bb5ff06f          	j	12edc <.LBB1_1>

000000000001332c <.LBB1_70>:
   1332c:	00099463          	bnez	s3,13334 <.LBB1_71>
   13330:	0c10106f          	j	14bf0 <.LBB1_404>

0000000000013334 <.LBB1_71>:
   13334:	1e010513          	add	a0,sp,480
   13338:	17013603          	ld	a2,368(sp)
   1333c:	0f1010ef          	jal	14c2c <pop_arg>
   13340:	07813603          	ld	a2,120(sp)

0000000000013344 <.LBB1_72>:
   13344:	fffdc903          	lbu	s2,-1(s11)
   13348:	01803533          	snez	a0,s8
   1334c:	00f97593          	and	a1,s2,15
   13350:	ffd58593          	add	a1,a1,-3
   13354:	0015b593          	seqz	a1,a1
   13358:	00b57533          	and	a0,a0,a1
   1335c:	00050463          	beqz	a0,13364 <.LBB1_74>
   13360:	0df97913          	and	s2,s2,223

0000000000013364 <.LBB1_74>:
   13364:	08013c83          	ld	s9,128(sp)
   13368:	06813803          	ld	a6,104(sp)
   1336c:	ffff0537          	lui	a0,0xffff0
   13370:	fff5089b          	addw	a7,a0,-1 # fffffffffffeffff <__global_pointer$+0xfffffffffffd4fb7>
   13374:	08813583          	ld	a1,136(sp)
   13378:	03259513          	sll	a0,a1,0x32
   1337c:	0115fb33          	and	s6,a1,a7
   13380:	00055463          	bgez	a0,13388 <.LBB1_76>
   13384:	09613423          	sd	s6,136(sp)

0000000000013388 <.LBB1_76>:
   13388:	05200513          	li	a0,82
   1338c:	05255863          	bge	a0,s2,133dc <.LBB1_82>
   13390:	fad90513          	add	a0,s2,-83
   13394:	3aad6c63          	bltu	s10,a0,1374c <.LBB1_136>
   13398:	00251513          	sll	a0,a0,0x2
   1339c:	14013583          	ld	a1,320(sp)
   133a0:	00b50533          	add	a0,a0,a1
   133a4:	00052503          	lw	a0,0(a0)
   133a8:	00050067          	jr	a0

00000000000133ac <.LBB1_79>:
   133ac:	1e013a83          	ld	s5,480(sp)
   133b0:	3c0ac863          	bltz	s5,13780 <.LBB1_138>
   133b4:	08813903          	ld	s2,136(sp)
   133b8:	03491593          	sll	a1,s2,0x34
   133bc:	00010537          	lui	a0,0x10
   133c0:	18250513          	add	a0,a0,386 # 10182 <.Lline_table_start0+0x10182>
   133c4:	2005cce3          	bltz	a1,13ddc <.LBB1_215>
   133c8:	00197713          	and	a4,s2,1
   133cc:	00171593          	sll	a1,a4,0x1
   133d0:	00b50533          	add	a0,a0,a1
   133d4:	08a13023          	sd	a0,128(sp)
   133d8:	2110006f          	j	13de8 <.LBB1_216>

00000000000133dc <.LBB1_82>:
   133dc:	fbb90513          	add	a0,s2,-69
   133e0:	00300593          	li	a1,3
   133e4:	02b56863          	bltu	a0,a1,13414 <.LBB1_86>
   133e8:	04100513          	li	a0,65
   133ec:	02a90463          	beq	s2,a0,13414 <.LBB1_86>
   133f0:	04300513          	li	a0,67
   133f4:	34a91c63          	bne	s2,a0,1374c <.LBB1_136>
   133f8:	1e013503          	ld	a0,480(sp)
   133fc:	1aa12023          	sw	a0,416(sp)
   13400:	1a012223          	sw	zero,420(sp)
   13404:	1a010a93          	add	s5,sp,416
   13408:	1f513023          	sd	s5,480(sp)
   1340c:	fff00b13          	li	s6,-1
   13410:	0a80006f          	j	134b8 <.LBB1_95>

0000000000013414 <.LBB1_86>:
   13414:	01003533          	snez	a0,a6
   13418:	000c861b          	sext.w	a2,s9
   1341c:	00062593          	slti	a1,a2,0
   13420:	00b57533          	and	a0,a0,a1
   13424:	00050463          	beqz	a0,1342c <.LBB1_87>
   13428:	71c0106f          	j	14b44 <.LBB1_394>

000000000001342c <.LBB1_87>:
   1342c:	06c13823          	sd	a2,112(sp)
   13430:	1e813483          	ld	s1,488(sp)
   13434:	1e013a83          	ld	s5,480(sp)
   13438:	22012623          	sw	zero,556(sp)
   1343c:	000a8513          	mv	a0,s5
   13440:	00048593          	mv	a1,s1
   13444:	115020ef          	jal	15d58 <__signbitl>
   13448:	02050263          	beqz	a0,1346c <.LBB1_89>
   1344c:	02013c23          	sd	zero,56(sp)
   13450:	13813503          	ld	a0,312(sp)
   13454:	00a4c4b3          	xor	s1,s1,a0
   13458:	00100513          	li	a0,1
   1345c:	04a13423          	sd	a0,72(sp)
   13460:	13013b83          	ld	s7,304(sp)
   13464:	18013c03          	ld	s8,384(sp)
   13468:	34c0006f          	j	137b4 <.LBB1_141>

000000000001346c <.LBB1_89>:
   1346c:	08813583          	ld	a1,136(sp)
   13470:	03459513          	sll	a0,a1,0x34
   13474:	18013c03          	ld	s8,384(sp)
   13478:	02054063          	bltz	a0,13498 <.LBB1_92>
   1347c:	0015f593          	and	a1,a1,1
   13480:	00010537          	lui	a0,0x10
   13484:	18c50513          	add	a0,a0,396 # 1018c <.Lline_table_start0+0x1018c>
   13488:	04b13423          	sd	a1,72(sp)
   1348c:	30058c63          	beqz	a1,137a4 <.LBB1_139>
   13490:	00650b93          	add	s7,a0,6
   13494:	3140006f          	j	137a8 <.LBB1_140>

0000000000013498 <.LBB1_92>:
   13498:	02013c23          	sd	zero,56(sp)
   1349c:	00100513          	li	a0,1
   134a0:	04a13423          	sd	a0,72(sp)
   134a4:	0e013b83          	ld	s7,224(sp)
   134a8:	30c0006f          	j	137b4 <.LBB1_141>

00000000000134ac <.LBB1_93>:
   134ac:	000c8b1b          	sext.w	s6,s9
   134b0:	580b0ce3          	beqz	s6,14248 <.LBB1_263>
   134b4:	1e013a83          	ld	s5,480(sp)

00000000000134b8 <.LBB1_95>:
   134b8:	00000493          	li	s1,0
   134bc:	000a8913          	mv	s2,s5

00000000000134c0 <.LBB1_96>:
   134c0:	00092583          	lw	a1,0(s2)
   134c4:	02058663          	beqz	a1,134f0 <.LBB1_100>
   134c8:	19c10513          	add	a0,sp,412
   134cc:	095020ef          	jal	15d60 <wctomb>
   134d0:	00055463          	bgez	a0,134d8 <.LBB1_98>
   134d4:	67c0106f          	j	14b50 <.LBB1_396>

00000000000134d8 <.LBB1_98>:
   134d8:	409b05b3          	sub	a1,s6,s1
   134dc:	07813603          	ld	a2,120(sp)
   134e0:	00a5e863          	bltu	a1,a0,134f0 <.LBB1_100>
   134e4:	00a484b3          	add	s1,s1,a0
   134e8:	00490913          	add	s2,s2,4
   134ec:	fd64eae3          	bltu	s1,s6,134c0 <.LBB1_96>

00000000000134f0 <.LBB1_100>:
   134f0:	01f4d513          	srl	a0,s1,0x1f
   134f4:	04b00c93          	li	s9,75
   134f8:	00050463          	beqz	a0,13500 <.LBB1_101>
   134fc:	64c0106f          	j	14b48 <.LBB1_395>

0000000000013500 <.LBB1_101>:
   13500:	0006061b          	sext.w	a2,a2
   13504:	0004869b          	sext.w	a3,s1
   13508:	02000593          	li	a1,32
   1350c:	00098513          	mv	a0,s3
   13510:	08813903          	ld	s2,136(sp)
   13514:	00090713          	mv	a4,s2
   13518:	029010ef          	jal	14d40 <pad>
   1351c:	0a048ce3          	beqz	s1,13dd4 <.LBB1_214>
   13520:	00000b13          	li	s6,0
   13524:	07813603          	ld	a2,120(sp)

0000000000013528 <.LBB1_103>:
   13528:	000aa583          	lw	a1,0(s5)
   1352c:	540580e3          	beqz	a1,1426c <.LBB1_264>
   13530:	19c10513          	add	a0,sp,412
   13534:	02d020ef          	jal	15d60 <wctomb>
   13538:	00ab0b33          	add	s6,s6,a0
   1353c:	0964ece3          	bltu	s1,s6,13dd4 <.LBB1_214>
   13540:	00050593          	mv	a1,a0
   13544:	0009c503          	lbu	a0,0(s3)
   13548:	02057513          	and	a0,a0,32
   1354c:	00051863          	bnez	a0,1355c <.LBB1_107>
   13550:	19c10513          	add	a0,sp,412
   13554:	00098613          	mv	a2,s3
   13558:	421010ef          	jal	15178 <__fwritex>

000000000001355c <.LBB1_107>:
   1355c:	004a8a93          	add	s5,s5,4
   13560:	07813603          	ld	a2,120(sp)
   13564:	fc9b62e3          	bltu	s6,s1,13528 <.LBB1_103>
   13568:	5050006f          	j	1426c <.LBB1_264>

000000000001356c <.LBB1_108>:
   1356c:	1e013503          	ld	a0,480(sp)
   13570:	00000713          	li	a4,0
   13574:	1ca10fa3          	sb	a0,479(sp)
   13578:	00100c93          	li	s9,1
   1357c:	1e010513          	add	a0,sp,480
   13580:	1df10493          	add	s1,sp,479
   13584:	000b0913          	mv	s2,s6
   13588:	12813583          	ld	a1,296(sp)
   1358c:	08b13023          	sd	a1,128(sp)
   13590:	1190006f          	j	13ea8 <.LBB1_231>

0000000000013594 <.LBB1_109>:
   13594:	c04ff0ef          	jal	12998 <__errno_location>
   13598:	00052503          	lw	a0,0(a0)
   1359c:	171020ef          	jal	15f0c <strerror>
   135a0:	1480006f          	j	136e8 <.LBB1_129>

00000000000135a4 <.LBB1_110>:
   135a4:	0ffc7513          	zext.b	a0,s8
   135a8:	00000a93          	li	s5,0
   135ac:	00700593          	li	a1,7
   135b0:	92a5e6e3          	bltu	a1,a0,12edc <.LBB1_1>
   135b4:	00251513          	sll	a0,a0,0x2
   135b8:	0c813583          	ld	a1,200(sp)
   135bc:	00b50533          	add	a0,a0,a1
   135c0:	00052503          	lw	a0,0(a0)
   135c4:	00050067          	jr	a0

00000000000135c8 <.LBB1_112>:
   135c8:	1e013503          	ld	a0,480(sp)
   135cc:	00000a93          	li	s5,0
   135d0:	01453023          	sd	s4,0(a0)
   135d4:	909ff06f          	j	12edc <.LBB1_1>

00000000000135d8 <.LBB1_113>:
   135d8:	1e013503          	ld	a0,480(sp)
   135dc:	1e010493          	add	s1,sp,480
   135e0:	00700713          	li	a4,7
   135e4:	02050663          	beqz	a0,13610 <.LBB1_116>
   135e8:	1e010593          	add	a1,sp,480
   135ec:	00050613          	mv	a2,a0

00000000000135f0 <.LBB1_115>:
   135f0:	00060693          	mv	a3,a2
   135f4:	00767613          	and	a2,a2,7
   135f8:	03060613          	add	a2,a2,48
   135fc:	fff58493          	add	s1,a1,-1
   13600:	fec58fa3          	sb	a2,-1(a1)
   13604:	0036d613          	srl	a2,a3,0x3
   13608:	00048593          	mv	a1,s1
   1360c:	fed762e3          	bltu	a4,a3,135f0 <.LBB1_115>

0000000000013610 <.LBB1_116>:
   13610:	08813903          	ld	s2,136(sp)
   13614:	00897593          	and	a1,s2,8
   13618:	00010637          	lui	a2,0x10
   1361c:	18260613          	add	a2,a2,386 # 10182 <.Lline_table_start0+0x10182>
   13620:	08c13023          	sd	a2,128(sp)
   13624:	08058e63          	beqz	a1,136c0 <.LBB1_126>
   13628:	000c861b          	sext.w	a2,s9
   1362c:	1e010593          	add	a1,sp,480
   13630:	409585b3          	sub	a1,a1,s1
   13634:	08c5c663          	blt	a1,a2,136c0 <.LBB1_126>
   13638:	00000713          	li	a4,0
   1363c:	00158c9b          	addw	s9,a1,1
   13640:	0150006f          	j	13e54 <.LBB1_222>

0000000000013644 <.LBB1_119>:
   13644:	000c8c9b          	sext.w	s9,s9
   13648:	01000513          	li	a0,16
   1364c:	01956463          	bltu	a0,s9,13654 <.LBB1_121>
   13650:	01000c93          	li	s9,16

0000000000013654 <.LBB1_121>:
   13654:	08813503          	ld	a0,136(sp)
   13658:	00856513          	or	a0,a0,8
   1365c:	08a13423          	sd	a0,136(sp)
   13660:	07800913          	li	s2,120

0000000000013664 <.LBB1_122>:
   13664:	1e013583          	ld	a1,480(sp)
   13668:	00010537          	lui	a0,0x10
   1366c:	18250513          	add	a0,a0,386 # 10182 <.Lline_table_start0+0x10182>
   13670:	08a13023          	sd	a0,128(sp)
   13674:	04058a63          	beqz	a1,136c8 <.LBB1_127>
   13678:	00090793          	mv	a5,s2
   1367c:	02097513          	and	a0,s2,32
   13680:	1e010493          	add	s1,sp,480
   13684:	15013683          	ld	a3,336(sp)
   13688:	00f00713          	li	a4,15

000000000001368c <.LBB1_124>:
   1368c:	00058613          	mv	a2,a1
   13690:	00f5f593          	and	a1,a1,15
   13694:	00b685b3          	add	a1,a3,a1
   13698:	00058583          	lb	a1,0(a1)
   1369c:	00a5e5b3          	or	a1,a1,a0
   136a0:	feb48fa3          	sb	a1,-1(s1)
   136a4:	fff48493          	add	s1,s1,-1
   136a8:	00465593          	srl	a1,a2,0x4
   136ac:	fec760e3          	bltu	a4,a2,1368c <.LBB1_124>
   136b0:	08813903          	ld	s2,136(sp)
   136b4:	00897593          	and	a1,s2,8
   136b8:	00100513          	li	a0,1
   136bc:	0a059463          	bnez	a1,13764 <.LBB1_137>

00000000000136c0 <.LBB1_126>:
   136c0:	00000713          	li	a4,0
   136c4:	7900006f          	j	13e54 <.LBB1_222>

00000000000136c8 <.LBB1_127>:
   136c8:	00000513          	li	a0,0
   136cc:	00000713          	li	a4,0
   136d0:	1e010493          	add	s1,sp,480
   136d4:	08813903          	ld	s2,136(sp)
   136d8:	77c0006f          	j	13e54 <.LBB1_222>

00000000000136dc <.LBB1_128>:
   136dc:	1e013503          	ld	a0,480(sp)
   136e0:	0d013483          	ld	s1,208(sp)
   136e4:	00050463          	beqz	a0,136ec <.LBB1_130>

00000000000136e8 <.LBB1_129>:
   136e8:	00050493          	mv	s1,a0

00000000000136ec <.LBB1_130>:
   136ec:	000c891b          	sext.w	s2,s9
   136f0:	00090593          	mv	a1,s2
   136f4:	00896463          	bltu	s2,s0,136fc <.LBB1_132>
   136f8:	00040593          	mv	a1,s0

00000000000136fc <.LBB1_132>:
   136fc:	00048513          	mv	a0,s1
   13700:	031020ef          	jal	15f30 <strnlen>
   13704:	00050c93          	mv	s9,a0
   13708:	00a48533          	add	a0,s1,a0
   1370c:	00095863          	bgez	s2,1371c <.LBB1_134>
   13710:	00054583          	lbu	a1,0(a0)
   13714:	00058463          	beqz	a1,1371c <.LBB1_134>
   13718:	42c0106f          	j	14b44 <.LBB1_394>

000000000001371c <.LBB1_134>:
   1371c:	00000713          	li	a4,0
   13720:	000b0913          	mv	s2,s6
   13724:	12813583          	ld	a1,296(sp)
   13728:	08b13023          	sd	a1,128(sp)
   1372c:	7780006f          	j	13ea4 <.LBB1_230>

0000000000013730 <.LBB1_135>:
   13730:	1e013a83          	ld	s5,480(sp)
   13734:	00000713          	li	a4,0
   13738:	00010537          	lui	a0,0x10
   1373c:	18250513          	add	a0,a0,386 # 10182 <.Lline_table_start0+0x10182>
   13740:	08a13023          	sd	a0,128(sp)
   13744:	08813903          	ld	s2,136(sp)
   13748:	6a00006f          	j	13de8 <.LBB1_216>

000000000001374c <.LBB1_136>:
   1374c:	00000713          	li	a4,0
   13750:	1e010513          	add	a0,sp,480
   13754:	12813583          	ld	a1,296(sp)
   13758:	08b13023          	sd	a1,128(sp)
   1375c:	08813903          	ld	s2,136(sp)
   13760:	7480006f          	j	13ea8 <.LBB1_231>

0000000000013764 <.LBB1_137>:
   13764:	0047d593          	srl	a1,a5,0x4
   13768:	00010637          	lui	a2,0x10
   1376c:	18260613          	add	a2,a2,386 # 10182 <.Lline_table_start0+0x10182>
   13770:	00b605b3          	add	a1,a2,a1
   13774:	08b13023          	sd	a1,128(sp)
   13778:	00200713          	li	a4,2
   1377c:	6d80006f          	j	13e54 <.LBB1_222>

0000000000013780 <.LBB1_138>:
   13780:	07113823          	sd	a7,112(sp)
   13784:	41500ab3          	neg	s5,s5
   13788:	1f513023          	sd	s5,480(sp)
   1378c:	00010537          	lui	a0,0x10
   13790:	18250513          	add	a0,a0,386 # 10182 <.Lline_table_start0+0x10182>
   13794:	08a13023          	sd	a0,128(sp)
   13798:	00100513          	li	a0,1
   1379c:	06a13023          	sd	a0,96(sp)
   137a0:	6540006f          	j	13df4 <.LBB1_218>

00000000000137a4 <.LBB1_139>:
   137a4:	00150b93          	add	s7,a0,1

00000000000137a8 <.LBB1_140>:
   137a8:	04813503          	ld	a0,72(sp)
   137ac:	00153513          	seqz	a0,a0
   137b0:	02a13c23          	sd	a0,56(sp)

00000000000137b4 <.LBB1_141>:
   137b4:	000a8513          	mv	a0,s5
   137b8:	00048593          	mv	a1,s1
   137bc:	0bd020ef          	jal	16078 <__fpclassifyl>
   137c0:	00100593          	li	a1,1
   137c4:	08a5da63          	bge	a1,a0,13858 <.LBB1_147>
   137c8:	22c10613          	add	a2,sp,556
   137cc:	000a8513          	mv	a0,s5
   137d0:	00048593          	mv	a1,s1
   137d4:	0e9020ef          	jal	160bc <frexpl>
   137d8:	00050613          	mv	a2,a0
   137dc:	00058693          	mv	a3,a1
   137e0:	0fc040ef          	jal	178dc <__addtf3>
   137e4:	00050493          	mv	s1,a0
   137e8:	00058a93          	mv	s5,a1
   137ec:	00000613          	li	a2,0
   137f0:	00000693          	li	a3,0
   137f4:	1a1020ef          	jal	16194 <__cmptf2>
   137f8:	05213023          	sd	s2,64(sp)
   137fc:	12050063          	beqz	a0,1391c <.LBB1_157>
   13800:	00090593          	mv	a1,s2
   13804:	22c12903          	lw	s2,556(sp)
   13808:	fff9051b          	addw	a0,s2,-1
   1380c:	0205e613          	or	a2,a1,32
   13810:	22a12623          	sw	a0,556(sp)
   13814:	06100513          	li	a0,97
   13818:	04c13c23          	sd	a2,88(sp)
   1381c:	10a60a63          	beq	a2,a0,13930 <.LBB1_158>
   13820:	07013503          	ld	a0,112(sp)
   13824:	00055463          	bgez	a0,1382c <.LBB1_146>
   13828:	00600c93          	li	s9,6

000000000001382c <.LBB1_146>:
   1382c:	03713023          	sd	s7,32(sp)
   13830:	00048513          	mv	a0,s1
   13834:	000a8593          	mv	a1,s5
   13838:	00000613          	li	a2,0
   1383c:	0d813683          	ld	a3,216(sp)
   13840:	755020ef          	jal	16794 <__multf3>
   13844:	00050493          	mv	s1,a0
   13848:	00058a93          	mv	s5,a1
   1384c:	fe390c1b          	addw	s8,s2,-29
   13850:	23812623          	sw	s8,556(sp)
   13854:	1940006f          	j	139e8 <.LBB1_167>

0000000000013858 <.LBB1_147>:
   13858:	000b8c93          	mv	s9,s7
   1385c:	02097913          	and	s2,s2,32
   13860:	000a8513          	mv	a0,s5
   13864:	00048593          	mv	a1,s1
   13868:	000a8613          	mv	a2,s5
   1386c:	00048693          	mv	a3,s1
   13870:	61d020ef          	jal	1668c <__unordtf2>
   13874:	12013583          	ld	a1,288(sp)
   13878:	11813483          	ld	s1,280(sp)
   1387c:	00090663          	beqz	s2,13888 <.LBB1_149>
   13880:	11013583          	ld	a1,272(sp)
   13884:	10813483          	ld	s1,264(sp)

0000000000013888 <.LBB1_149>:
   13888:	08813b83          	ld	s7,136(sp)
   1388c:	07813903          	ld	s2,120(sp)
   13890:	04813c03          	ld	s8,72(sp)
   13894:	00051463          	bnez	a0,1389c <.LBB1_151>
   13898:	00058493          	mv	s1,a1

000000000001389c <.LBB1_151>:
   1389c:	003c0a93          	add	s5,s8,3
   138a0:	0009091b          	sext.w	s2,s2
   138a4:	02000593          	li	a1,32
   138a8:	00098513          	mv	a0,s3
   138ac:	00090613          	mv	a2,s2
   138b0:	000a8693          	mv	a3,s5
   138b4:	000b0713          	mv	a4,s6
   138b8:	488010ef          	jal	14d40 <pad>
   138bc:	0009e503          	lwu	a0,0(s3)
   138c0:	02057593          	and	a1,a0,32
   138c4:	00059c63          	bnez	a1,138dc <.LBB1_153>
   138c8:	000c8513          	mv	a0,s9
   138cc:	000c0593          	mv	a1,s8
   138d0:	00098613          	mv	a2,s3
   138d4:	0a5010ef          	jal	15178 <__fwritex>
   138d8:	0009a503          	lw	a0,0(s3)

00000000000138dc <.LBB1_153>:
   138dc:	02057513          	and	a0,a0,32
   138e0:	00051a63          	bnez	a0,138f4 <.LBB1_155>
   138e4:	00300593          	li	a1,3
   138e8:	00048513          	mv	a0,s1
   138ec:	00098613          	mv	a2,s3
   138f0:	089010ef          	jal	15178 <__fwritex>

00000000000138f4 <.LBB1_155>:
   138f4:	00002537          	lui	a0,0x2
   138f8:	00abc733          	xor	a4,s7,a0
   138fc:	02000593          	li	a1,32
   13900:	00098513          	mv	a0,s3
   13904:	00090613          	mv	a2,s2
   13908:	000a8693          	mv	a3,s5
   1390c:	434010ef          	jal	14d40 <pad>
   13910:	dd594663          	blt	s2,s5,12edc <.LBB1_1>
   13914:	00090a93          	mv	s5,s2
   13918:	dc4ff06f          	j	12edc <.LBB1_1>

000000000001391c <.LBB1_157>:
   1391c:	02096613          	or	a2,s2,32
   13920:	06100513          	li	a0,97
   13924:	00090593          	mv	a1,s2
   13928:	04c13c23          	sd	a2,88(sp)
   1392c:	0aa61463          	bne	a2,a0,139d4 <.LBB1_164>

0000000000013930 <.LBB1_158>:
   13930:	03a59513          	sll	a0,a1,0x3a
   13934:	43f55513          	sra	a0,a0,0x3f
   13938:	00957513          	and	a0,a0,9
   1393c:	00ab8533          	add	a0,s7,a0
   13940:	02a13c23          	sd	a0,56(sp)
   13944:	01a00513          	li	a0,26
   13948:	07013583          	ld	a1,112(sp)
   1394c:	00b57663          	bgeu	a0,a1,13958 <.LBB1_160>
   13950:	20710913          	add	s2,sp,519
   13954:	6640006f          	j	13fb8 <.LBB1_243>

0000000000013958 <.LBB1_160>:
   13958:	00000b93          	li	s7,0
   1395c:	fe5c891b          	addw	s2,s9,-27
   13960:	000c0b13          	mv	s6,s8

0000000000013964 <.LBB1_161>:
   13964:	000b8513          	mv	a0,s7
   13968:	000b0593          	mv	a1,s6
   1396c:	00000613          	li	a2,0
   13970:	000c0693          	mv	a3,s8
   13974:	621020ef          	jal	16794 <__multf3>
   13978:	0019091b          	addw	s2,s2,1
   1397c:	00050b93          	mv	s7,a0
   13980:	00058b13          	mv	s6,a1
   13984:	fe0910e3          	bnez	s2,13964 <.LBB1_161>
   13988:	03813503          	ld	a0,56(sp)
   1398c:	00054503          	lbu	a0,0(a0) # 2000 <.Lline_table_start0+0x2000>
   13990:	20710913          	add	s2,sp,519
   13994:	02d00593          	li	a1,45
   13998:	5eb51c63          	bne	a0,a1,13f90 <.LBB1_242>
   1399c:	13813c03          	ld	s8,312(sp)
   139a0:	018ac5b3          	xor	a1,s5,s8
   139a4:	00048513          	mv	a0,s1
   139a8:	000b8613          	mv	a2,s7
   139ac:	000b0693          	mv	a3,s6
   139b0:	4f9040ef          	jal	186a8 <__subtf3>
   139b4:	00050613          	mv	a2,a0
   139b8:	00058693          	mv	a3,a1
   139bc:	000b8513          	mv	a0,s7
   139c0:	000b0593          	mv	a1,s6
   139c4:	719030ef          	jal	178dc <__addtf3>
   139c8:	00050493          	mv	s1,a0
   139cc:	0185cab3          	xor	s5,a1,s8
   139d0:	5e80006f          	j	13fb8 <.LBB1_243>

00000000000139d4 <.LBB1_164>:
   139d4:	07013503          	ld	a0,112(sp)
   139d8:	00055463          	bgez	a0,139e0 <.LBB1_166>
   139dc:	00600c93          	li	s9,6

00000000000139e0 <.LBB1_166>:
   139e0:	03713023          	sd	s7,32(sp)
   139e4:	22c12c03          	lw	s8,556(sp)

00000000000139e8 <.LBB1_167>:
   139e8:	20710913          	add	s2,sp,519
   139ec:	0f813b03          	ld	s6,248(sp)
   139f0:	000c2513          	slti	a0,s8,0
   139f4:	fff5051b          	addw	a0,a0,-1
   139f8:	6c057513          	and	a0,a0,1728
   139fc:	00251b93          	sll	s7,a0,0x2
   13a00:	23010513          	add	a0,sp,560
   13a04:	03713423          	sd	s7,40(sp)
   13a08:	01750bb3          	add	s7,a0,s7
   13a0c:	07713823          	sd	s7,112(sp)

0000000000013a10 <.LBB1_168>:
   13a10:	00048513          	mv	a0,s1
   13a14:	000a8593          	mv	a1,s5
   13a18:	581040ef          	jal	18798 <__fixunstfsi>
   13a1c:	00aba023          	sw	a0,0(s7)
   13a20:	004b8b93          	add	s7,s7,4
   13a24:	74d040ef          	jal	18970 <__floatunsitf>
   13a28:	00050613          	mv	a2,a0
   13a2c:	00058693          	mv	a3,a1
   13a30:	00048513          	mv	a0,s1
   13a34:	000a8593          	mv	a1,s5
   13a38:	471040ef          	jal	186a8 <__subtf3>
   13a3c:	00000613          	li	a2,0
   13a40:	000b0693          	mv	a3,s6
   13a44:	551020ef          	jal	16794 <__multf3>
   13a48:	00050493          	mv	s1,a0
   13a4c:	00058a93          	mv	s5,a1
   13a50:	00000613          	li	a2,0
   13a54:	00000693          	li	a3,0
   13a58:	73c020ef          	jal	16194 <__cmptf2>
   13a5c:	fa051ae3          	bnez	a0,13a10 <.LBB1_168>
   13a60:	03813823          	sd	s8,48(sp)
   13a64:	0d805263          	blez	s8,13b28 <.LBB1_182>
   13a68:	07013683          	ld	a3,112(sp)
   13a6c:	09913023          	sd	s9,128(sp)
   13a70:	05313823          	sd	s3,80(sp)

0000000000013a74 <.LBB1_171>:
   13a74:	01d00513          	li	a0,29
   13a78:	00ac4463          	blt	s8,a0,13a80 <.LBB1_173>
   13a7c:	01d00c13          	li	s8,29

0000000000013a80 <.LBB1_173>:
   13a80:	ffcb8b13          	add	s6,s7,-4
   13a84:	06db6c63          	bltu	s6,a3,13afc <.LBB1_179>
   13a88:	00000493          	li	s1,0
   13a8c:	020c1513          	sll	a0,s8,0x20
   13a90:	02055913          	srl	s2,a0,0x20
   13a94:	14813c83          	ld	s9,328(sp)

0000000000013a98 <.LBB1_175>:
   13a98:	000b6503          	lwu	a0,0(s6)
   13a9c:	01251ab3          	sll	s5,a0,s2
   13aa0:	02049493          	sll	s1,s1,0x20
   13aa4:	0204d493          	srl	s1,s1,0x20
   13aa8:	009a8ab3          	add	s5,s5,s1
   13aac:	000a8513          	mv	a0,s5
   13ab0:	000c8593          	mv	a1,s9
   13ab4:	00068993          	mv	s3,a3
   13ab8:	0c9010ef          	jal	15380 <__udivdi3>
   13abc:	00050493          	mv	s1,a0
   13ac0:	000c8593          	mv	a1,s9
   13ac4:	db9fe0ef          	jal	1287c <__muldi3>
   13ac8:	00098693          	mv	a3,s3
   13acc:	40aa853b          	subw	a0,s5,a0
   13ad0:	00ab2023          	sw	a0,0(s6)
   13ad4:	ffcb0b13          	add	s6,s6,-4
   13ad8:	fd3b70e3          	bgeu	s6,s3,13a98 <.LBB1_175>
   13adc:	0004851b          	sext.w	a0,s1
   13ae0:	00050863          	beqz	a0,13af0 <.LBB1_178>
   13ae4:	ffc68513          	add	a0,a3,-4
   13ae8:	fe96ae23          	sw	s1,-4(a3)
   13aec:	00050693          	mv	a3,a0

0000000000013af0 <.LBB1_178>:
   13af0:	20710913          	add	s2,sp,519
   13af4:	08013c83          	ld	s9,128(sp)
   13af8:	05013983          	ld	s3,80(sp)

0000000000013afc <.LBB1_179>:
   13afc:	000b8b13          	mv	s6,s7
   13b00:	0176f863          	bgeu	a3,s7,13b10 <.LBB1_181>
   13b04:	ffcb2503          	lw	a0,-4(s6)
   13b08:	ffcb0b93          	add	s7,s6,-4
   13b0c:	fe0508e3          	beqz	a0,13afc <.LBB1_179>

0000000000013b10 <.LBB1_181>:
   13b10:	22c12503          	lw	a0,556(sp)
   13b14:	41850c3b          	subw	s8,a0,s8
   13b18:	23812623          	sw	s8,556(sp)
   13b1c:	000b0b93          	mv	s7,s6
   13b20:	f5804ae3          	bgtz	s8,13a74 <.LBB1_171>
   13b24:	00c0006f          	j	13b30 <.LBB1_183>

0000000000013b28 <.LBB1_182>:
   13b28:	000b8b13          	mv	s6,s7
   13b2c:	07013683          	ld	a3,112(sp)

0000000000013b30 <.LBB1_183>:
   13b30:	0e0c5e63          	bgez	s8,13c2c <.LBB1_199>
   13b34:	02dc851b          	addw	a0,s9,45
   13b38:	02051513          	sll	a0,a0,0x20
   13b3c:	02055513          	srl	a0,a0,0x20
   13b40:	00900593          	li	a1,9
   13b44:	00068493          	mv	s1,a3
   13b48:	039010ef          	jal	15380 <__udivdi3>
   13b4c:	00048693          	mv	a3,s1
   13b50:	00150713          	add	a4,a0,1
   13b54:	06e13423          	sd	a4,104(sp)

0000000000013b58 <.LBB1_185>:
   13b58:	41800bbb          	negw	s7,s8
   13b5c:	00900513          	li	a0,9
   13b60:	00abc463          	blt	s7,a0,13b68 <.LBB1_187>
   13b64:	00900b93          	li	s7,9

0000000000013b68 <.LBB1_187>:
   13b68:	0766fe63          	bgeu	a3,s6,13be4 <.LBB1_193>
   13b6c:	000c8a93          	mv	s5,s9
   13b70:	00000513          	li	a0,0
   13b74:	fff00593          	li	a1,-1
   13b78:	017595bb          	sllw	a1,a1,s7
   13b7c:	fff5c913          	not	s2,a1
   13b80:	14813583          	ld	a1,328(sp)
   13b84:	0175d4bb          	srlw	s1,a1,s7
   13b88:	00068c93          	mv	s9,a3
   13b8c:	00068c13          	mv	s8,a3

0000000000013b90 <.LBB1_189>:
   13b90:	000c2603          	lw	a2,0(s8)
   13b94:	012675b3          	and	a1,a2,s2
   13b98:	0176563b          	srlw	a2,a2,s7
   13b9c:	00a60533          	add	a0,a2,a0
   13ba0:	00ac2023          	sw	a0,0(s8)
   13ba4:	00058513          	mv	a0,a1
   13ba8:	00048593          	mv	a1,s1
   13bac:	cd1fe0ef          	jal	1287c <__muldi3>
   13bb0:	004c0c13          	add	s8,s8,4
   13bb4:	fd6c6ee3          	bltu	s8,s6,13b90 <.LBB1_189>
   13bb8:	000c8693          	mv	a3,s9
   13bbc:	000ca583          	lw	a1,0(s9)
   13bc0:	0005061b          	sext.w	a2,a0
   13bc4:	00060863          	beqz	a2,13bd4 <.LBB1_192>
   13bc8:	004b0613          	add	a2,s6,4
   13bcc:	00ab2023          	sw	a0,0(s6)
   13bd0:	00060b13          	mv	s6,a2

0000000000013bd4 <.LBB1_192>:
   13bd4:	20710913          	add	s2,sp,519
   13bd8:	000a8c93          	mv	s9,s5
   13bdc:	06813703          	ld	a4,104(sp)
   13be0:	0080006f          	j	13be8 <.LBB1_194>

0000000000013be4 <.LBB1_193>:
   13be4:	0006a583          	lw	a1,0(a3)

0000000000013be8 <.LBB1_194>:
   13be8:	0015b513          	seqz	a0,a1
   13bec:	00251513          	sll	a0,a0,0x2
   13bf0:	00a686b3          	add	a3,a3,a0
   13bf4:	07013503          	ld	a0,112(sp)
   13bf8:	06600593          	li	a1,102
   13bfc:	05813603          	ld	a2,88(sp)
   13c00:	00b60463          	beq	a2,a1,13c08 <.LBB1_196>
   13c04:	00068513          	mv	a0,a3

0000000000013c08 <.LBB1_196>:
   13c08:	40ab05b3          	sub	a1,s6,a0
   13c0c:	4025d593          	sra	a1,a1,0x2
   13c10:	00b75663          	bge	a4,a1,13c1c <.LBB1_198>
   13c14:	00271b13          	sll	s6,a4,0x2
   13c18:	01650b33          	add	s6,a0,s6

0000000000013c1c <.LBB1_198>:
   13c1c:	22c12503          	lw	a0,556(sp)
   13c20:	01750c3b          	addw	s8,a0,s7
   13c24:	23812623          	sw	s8,556(sp)
   13c28:	f20c48e3          	bltz	s8,13b58 <.LBB1_185>

0000000000013c2c <.LBB1_199>:
   13c2c:	06d13023          	sd	a3,96(sp)
   13c30:	0566f263          	bgeu	a3,s6,13c74 <.LBB1_203>
   13c34:	0006a483          	lw	s1,0(a3)
   13c38:	07013503          	ld	a0,112(sp)
   13c3c:	40d50533          	sub	a0,a0,a3
   13c40:	00255513          	srl	a0,a0,0x2
   13c44:	00351593          	sll	a1,a0,0x3
   13c48:	00a58bbb          	addw	s7,a1,a0
   13c4c:	00a00513          	li	a0,10
   13c50:	03013c03          	ld	s8,48(sp)
   13c54:	02a4e463          	bltu	s1,a0,13c7c <.LBB1_204>
   13c58:	00a00513          	li	a0,10

0000000000013c5c <.LBB1_202>:
   13c5c:	00a00593          	li	a1,10
   13c60:	c1dfe0ef          	jal	1287c <__muldi3>
   13c64:	0005059b          	sext.w	a1,a0
   13c68:	001b8b9b          	addw	s7,s7,1
   13c6c:	feb4f8e3          	bgeu	s1,a1,13c5c <.LBB1_202>
   13c70:	00c0006f          	j	13c7c <.LBB1_204>

0000000000013c74 <.LBB1_203>:
   13c74:	00000b93          	li	s7,0
   13c78:	03013c03          	ld	s8,48(sp)

0000000000013c7c <.LBB1_204>:
   13c7c:	05813583          	ld	a1,88(sp)
   13c80:	f9a58513          	add	a0,a1,-102
   13c84:	00153513          	seqz	a0,a0
   13c88:	fff5051b          	addw	a0,a0,-1
   13c8c:	01757533          	and	a0,a0,s7
   13c90:	000c879b          	sext.w	a5,s9
   13c94:	f9958593          	add	a1,a1,-103
   13c98:	0015b593          	seqz	a1,a1
   13c9c:	00f03633          	snez	a2,a5
   13ca0:	00b675b3          	and	a1,a2,a1
   13ca4:	40bc85bb          	subw	a1,s9,a1
   13ca8:	40a5853b          	subw	a0,a1,a0
   13cac:	07013583          	ld	a1,112(sp)
   13cb0:	40bb05b3          	sub	a1,s6,a1
   13cb4:	4025d613          	sra	a2,a1,0x2
   13cb8:	00159593          	sll	a1,a1,0x1
   13cbc:	00c585b3          	add	a1,a1,a2
   13cc0:	ff758593          	add	a1,a1,-9
   13cc4:	10b55263          	bge	a0,a1,13dc8 <.LBB1_213>
   13cc8:	00f13c23          	sd	a5,24(sp)
   13ccc:	000245b7          	lui	a1,0x24
   13cd0:	00b50abb          	addw	s5,a0,a1
   13cd4:	00900593          	li	a1,9
   13cd8:	000a8513          	mv	a0,s5
   13cdc:	669040ef          	jal	18b44 <__divdi3>
   13ce0:	00351593          	sll	a1,a0,0x3
   13ce4:	06a13423          	sd	a0,104(sp)
   13ce8:	00a58533          	add	a0,a1,a0
   13cec:	40aa84bb          	subw	s1,s5,a0
   13cf0:	00a00a93          	li	s5,10
   13cf4:	00700513          	li	a0,7
   13cf8:	02954263          	blt	a0,s1,13d1c <.LBB1_208>
   13cfc:	ff84849b          	addw	s1,s1,-8
   13d00:	00a00a93          	li	s5,10

0000000000013d04 <.LBB1_207>:
   13d04:	00a00593          	li	a1,10
   13d08:	000a8513          	mv	a0,s5
   13d0c:	b71fe0ef          	jal	1287c <__muldi3>
   13d10:	0014849b          	addw	s1,s1,1
   13d14:	00050a93          	mv	s5,a0
   13d18:	fe0496e3          	bnez	s1,13d04 <.LBB1_207>

0000000000013d1c <.LBB1_208>:
   13d1c:	41fc551b          	sraw	a0,s8,0x1f
   13d20:	94057513          	and	a0,a0,-1728
   13d24:	6c150513          	add	a0,a0,1729
   13d28:	00251c13          	sll	s8,a0,0x2
   13d2c:	ffffc537          	lui	a0,0xffffc
   13d30:	06813583          	ld	a1,104(sp)
   13d34:	00a5853b          	addw	a0,a1,a0
   13d38:	00251513          	sll	a0,a0,0x2
   13d3c:	23010593          	add	a1,sp,560
   13d40:	00a58533          	add	a0,a1,a0
   13d44:	01813823          	sd	s8,16(sp)
   13d48:	01850c33          	add	s8,a0,s8
   13d4c:	000c2483          	lw	s1,0(s8)
   13d50:	02049513          	sll	a0,s1,0x20
   13d54:	02055513          	srl	a0,a0,0x20
   13d58:	020a9593          	sll	a1,s5,0x20
   13d5c:	0205d593          	srl	a1,a1,0x20
   13d60:	620010ef          	jal	15380 <__udivdi3>
   13d64:	02a13823          	sd	a0,48(sp)
   13d68:	000a8593          	mv	a1,s5
   13d6c:	b11fe0ef          	jal	1287c <__muldi3>
   13d70:	40a482bb          	subw	t0,s1,a0
   13d74:	004c0593          	add	a1,s8,4
   13d78:	0165c5b3          	xor	a1,a1,s6
   13d7c:	00b2e633          	or	a2,t0,a1
   13d80:	60060a63          	beqz	a2,14394 <.LBB1_283>
   13d84:	00048893          	mv	a7,s1
   13d88:	03013483          	ld	s1,48(sp)
   13d8c:	0014f493          	and	s1,s1,1
   13d90:	06013783          	ld	a5,96(sp)
   13d94:	50049663          	bnez	s1,142a0 <.LBB1_266>
   13d98:	000a861b          	sext.w	a2,s5
   13d9c:	14813683          	ld	a3,328(sp)
   13da0:	00d64633          	xor	a2,a2,a3
   13da4:	00163613          	seqz	a2,a2
   13da8:	0187b6b3          	sltu	a3,a5,s8
   13dac:	00d67633          	and	a2,a2,a3
   13db0:	00060863          	beqz	a2,13dc0 <.LBB1_212>
   13db4:	ffcc4603          	lbu	a2,-4(s8)
   13db8:	00167613          	and	a2,a2,1
   13dbc:	4e061263          	bnez	a2,142a0 <.LBB1_266>

0000000000013dc0 <.LBB1_212>:
   13dc0:	00000493          	li	s1,0
   13dc4:	4e00006f          	j	142a4 <.LBB1_267>

0000000000013dc8 <.LBB1_213>:
   13dc8:	06013703          	ld	a4,96(sp)
   13dcc:	02813583          	ld	a1,40(sp)
   13dd0:	5e00006f          	j	143b0 <.LBB1_287>

0000000000013dd4 <.LBB1_214>:
   13dd4:	07813603          	ld	a2,120(sp)
   13dd8:	4940006f          	j	1426c <.LBB1_264>

0000000000013ddc <.LBB1_215>:
   13ddc:	00150513          	add	a0,a0,1 # ffffffffffffc001 <__global_pointer$+0xfffffffffffe0fb9>
   13de0:	08a13023          	sd	a0,128(sp)
   13de4:	00100713          	li	a4,1

0000000000013de8 <.LBB1_216>:
   13de8:	060a8063          	beqz	s5,13e48 <.LBB1_221>
   13dec:	06e13023          	sd	a4,96(sp)
   13df0:	07113823          	sd	a7,112(sp)

0000000000013df4 <.LBB1_218>:
   13df4:	00900c13          	li	s8,9
   13df8:	1e010493          	add	s1,sp,480

0000000000013dfc <.LBB1_219>:
   13dfc:	00048913          	mv	s2,s1
   13e00:	000a8b13          	mv	s6,s5
   13e04:	00a00593          	li	a1,10
   13e08:	000a8513          	mv	a0,s5
   13e0c:	574010ef          	jal	15380 <__udivdi3>
   13e10:	00050a93          	mv	s5,a0
   13e14:	00a00593          	li	a1,10
   13e18:	a65fe0ef          	jal	1287c <__muldi3>
   13e1c:	40ab053b          	subw	a0,s6,a0
   13e20:	03056513          	or	a0,a0,48
   13e24:	fff48493          	add	s1,s1,-1
   13e28:	fea90fa3          	sb	a0,-1(s2)
   13e2c:	fd6c68e3          	bltu	s8,s6,13dfc <.LBB1_219>
   13e30:	00100513          	li	a0,1
   13e34:	08813903          	ld	s2,136(sp)
   13e38:	06813803          	ld	a6,104(sp)
   13e3c:	07013883          	ld	a7,112(sp)
   13e40:	06013703          	ld	a4,96(sp)
   13e44:	0100006f          	j	13e54 <.LBB1_222>

0000000000013e48 <.LBB1_221>:
   13e48:	00000513          	li	a0,0
   13e4c:	1e010493          	add	s1,sp,480
   13e50:	06813803          	ld	a6,104(sp)

0000000000013e54 <.LBB1_222>:
   13e54:	01003633          	snez	a2,a6
   13e58:	000c859b          	sext.w	a1,s9
   13e5c:	0005a693          	slti	a3,a1,0
   13e60:	00d67633          	and	a2,a2,a3
   13e64:	4e0610e3          	bnez	a2,14b44 <.LBB1_394>
   13e68:	00080463          	beqz	a6,13e70 <.LBB1_225>
   13e6c:	01197933          	and	s2,s2,a7

0000000000013e70 <.LBB1_225>:
   13e70:	00b56633          	or	a2,a0,a1
   13e74:	02060263          	beqz	a2,13e98 <.LBB1_229>
   13e78:	00153513          	seqz	a0,a0
   13e7c:	1e010613          	add	a2,sp,480
   13e80:	40960633          	sub	a2,a2,s1
   13e84:	00a60cb3          	add	s9,a2,a0
   13e88:	0195c463          	blt	a1,s9,13e90 <.LBB1_228>
   13e8c:	00058c93          	mv	s9,a1

0000000000013e90 <.LBB1_228>:
   13e90:	1e010513          	add	a0,sp,480
   13e94:	0100006f          	j	13ea4 <.LBB1_230>

0000000000013e98 <.LBB1_229>:
   13e98:	00000c93          	li	s9,0
   13e9c:	1e010493          	add	s1,sp,480
   13ea0:	00048513          	mv	a0,s1

0000000000013ea4 <.LBB1_230>:
   13ea4:	07813603          	ld	a2,120(sp)

0000000000013ea8 <.LBB1_231>:
   13ea8:	000c859b          	sext.w	a1,s9
   13eac:	40950533          	sub	a0,a0,s1
   13eb0:	00050b13          	mv	s6,a0
   13eb4:	08a13423          	sd	a0,136(sp)
   13eb8:	00a5c463          	blt	a1,a0,13ec0 <.LBB1_233>
   13ebc:	000c8b13          	mv	s6,s9

0000000000013ec0 <.LBB1_233>:
   13ec0:	000b0b1b          	sext.w	s6,s6
   13ec4:	40e4053b          	subw	a0,s0,a4
   13ec8:	47654ee3          	blt	a0,s6,14b44 <.LBB1_394>
   13ecc:	00eb0c3b          	addw	s8,s6,a4
   13ed0:	00060a9b          	sext.w	s5,a2
   13ed4:	015c4463          	blt	s8,s5,13edc <.LBB1_236>
   13ed8:	000c0a93          	mv	s5,s8

0000000000013edc <.LBB1_236>:
   13edc:	04b00c93          	li	s9,75
   13ee0:	475bc4e3          	blt	s7,s5,14b48 <.LBB1_395>
   13ee4:	00070b93          	mv	s7,a4
   13ee8:	02000593          	li	a1,32
   13eec:	00098513          	mv	a0,s3
   13ef0:	000a8613          	mv	a2,s5
   13ef4:	000c0693          	mv	a3,s8
   13ef8:	00090713          	mv	a4,s2
   13efc:	645000ef          	jal	14d40 <pad>
   13f00:	0009c503          	lbu	a0,0(s3)
   13f04:	02057513          	and	a0,a0,32
   13f08:	00051a63          	bnez	a0,13f1c <.LBB1_239>
   13f0c:	08013503          	ld	a0,128(sp)
   13f10:	000b8593          	mv	a1,s7
   13f14:	00098613          	mv	a2,s3
   13f18:	260010ef          	jal	15178 <__fwritex>

0000000000013f1c <.LBB1_239>:
   13f1c:	00010537          	lui	a0,0x10
   13f20:	00a94733          	xor	a4,s2,a0
   13f24:	03000593          	li	a1,48
   13f28:	00098513          	mv	a0,s3
   13f2c:	000a8613          	mv	a2,s5
   13f30:	000c0693          	mv	a3,s8
   13f34:	60d000ef          	jal	14d40 <pad>
   13f38:	08813b83          	ld	s7,136(sp)
   13f3c:	000b869b          	sext.w	a3,s7
   13f40:	03000593          	li	a1,48
   13f44:	00098513          	mv	a0,s3
   13f48:	000b0613          	mv	a2,s6
   13f4c:	00000713          	li	a4,0
   13f50:	5f1000ef          	jal	14d40 <pad>
   13f54:	0009c503          	lbu	a0,0(s3)
   13f58:	02057513          	and	a0,a0,32
   13f5c:	00051a63          	bnez	a0,13f70 <.LBB1_241>
   13f60:	00048513          	mv	a0,s1
   13f64:	000b8593          	mv	a1,s7
   13f68:	00098613          	mv	a2,s3
   13f6c:	20c010ef          	jal	15178 <__fwritex>

0000000000013f70 <.LBB1_241>:
   13f70:	00002537          	lui	a0,0x2
   13f74:	00a94733          	xor	a4,s2,a0
   13f78:	02000593          	li	a1,32
   13f7c:	00098513          	mv	a0,s3
   13f80:	000a8613          	mv	a2,s5
   13f84:	000c0693          	mv	a3,s8
   13f88:	5b9000ef          	jal	14d40 <pad>
   13f8c:	f51fe06f          	j	12edc <.LBB1_1>

0000000000013f90 <.LBB1_242>:
   13f90:	00048513          	mv	a0,s1
   13f94:	000a8593          	mv	a1,s5
   13f98:	000b8613          	mv	a2,s7
   13f9c:	000b0693          	mv	a3,s6
   13fa0:	13d030ef          	jal	178dc <__addtf3>
   13fa4:	000b8613          	mv	a2,s7
   13fa8:	000b0693          	mv	a3,s6
   13fac:	6fc040ef          	jal	186a8 <__subtf3>
   13fb0:	00050493          	mv	s1,a0
   13fb4:	00058a93          	mv	s5,a1

0000000000013fb8 <.LBB1_243>:
   13fb8:	08813603          	ld	a2,136(sp)
   13fbc:	22c12703          	lw	a4,556(sp)
   13fc0:	06070463          	beqz	a4,14028 <.LBB1_247>
   13fc4:	00000c93          	li	s9,0
   13fc8:	41f75513          	sra	a0,a4,0x1f
   13fcc:	06e13423          	sd	a4,104(sp)
   13fd0:	00a745b3          	xor	a1,a4,a0
   13fd4:	40a58b3b          	subw	s6,a1,a0
   13fd8:	20710513          	add	a0,sp,519
   13fdc:	00900c13          	li	s8,9

0000000000013fe0 <.LBB1_245>:
   13fe0:	00050913          	mv	s2,a0
   13fe4:	000b0b93          	mv	s7,s6
   13fe8:	00a00593          	li	a1,10
   13fec:	000b0513          	mv	a0,s6
   13ff0:	390010ef          	jal	15380 <__udivdi3>
   13ff4:	00050b13          	mv	s6,a0
   13ff8:	00a00593          	li	a1,10
   13ffc:	881fe0ef          	jal	1287c <__muldi3>
   14000:	40ab853b          	subw	a0,s7,a0
   14004:	03056593          	or	a1,a0,48
   14008:	fff90513          	add	a0,s2,-1
   1400c:	feb90fa3          	sb	a1,-1(s2)
   14010:	001c8c93          	add	s9,s9,1
   14014:	fd7c66e3          	bltu	s8,s7,13fe0 <.LBB1_245>
   14018:	20710913          	add	s2,sp,519
   1401c:	08813603          	ld	a2,136(sp)
   14020:	06813703          	ld	a4,104(sp)
   14024:	000c9863          	bnez	s9,14034 <.LBB1_248>

0000000000014028 <.LBB1_247>:
   14028:	03000513          	li	a0,48
   1402c:	20a10323          	sb	a0,518(sp)
   14030:	20610513          	add	a0,sp,518

0000000000014034 <.LBB1_248>:
   14034:	04013683          	ld	a3,64(sp)
   14038:	0206fb13          	and	s6,a3,32
   1403c:	04813583          	ld	a1,72(sp)
   14040:	00258593          	add	a1,a1,2 # 24002 <__global_pointer$+0x8fba>
   14044:	04b13c23          	sd	a1,88(sp)
   14048:	03e75593          	srl	a1,a4,0x3e
   1404c:	0025f593          	and	a1,a1,2
   14050:	02b5859b          	addw	a1,a1,43
   14054:	feb50fa3          	sb	a1,-1(a0) # 1fff <.Lline_table_start0+0x1fff>
   14058:	00f6859b          	addw	a1,a3,15
   1405c:	ffe50693          	add	a3,a0,-2
   14060:	06d13023          	sd	a3,96(sp)
   14064:	feb50f23          	sb	a1,-2(a0)
   14068:	00867613          	and	a2,a2,8
   1406c:	06c13423          	sd	a2,104(sp)
   14070:	20710c93          	add	s9,sp,519
   14074:	15013c03          	ld	s8,336(sp)

0000000000014078 <.LBB1_249>:
   14078:	000c8b93          	mv	s7,s9
   1407c:	00048513          	mv	a0,s1
   14080:	000a8593          	mv	a1,s5
   14084:	35d040ef          	jal	18be0 <__fixtfsi>
   14088:	00ac05b3          	add	a1,s8,a0
   1408c:	00058583          	lb	a1,0(a1)
   14090:	0165e5b3          	or	a1,a1,s6
   14094:	001c8c93          	add	s9,s9,1
   14098:	00bb8023          	sb	a1,0(s7)
   1409c:	719040ef          	jal	18fb4 <__floatsitf>
   140a0:	00050613          	mv	a2,a0
   140a4:	00058693          	mv	a3,a1
   140a8:	00048513          	mv	a0,s1
   140ac:	000a8593          	mv	a1,s5
   140b0:	5f8040ef          	jal	186a8 <__subtf3>
   140b4:	00000613          	li	a2,0
   140b8:	18013683          	ld	a3,384(sp)
   140bc:	6d8020ef          	jal	16794 <__multf3>
   140c0:	412c8633          	sub	a2,s9,s2
   140c4:	00050493          	mv	s1,a0
   140c8:	00058a93          	mv	s5,a1
   140cc:	00100513          	li	a0,1
   140d0:	04a61663          	bne	a2,a0,1411c <.LBB1_252>
   140d4:	06813503          	ld	a0,104(sp)
   140d8:	00153913          	seqz	s2,a0
   140dc:	07013503          	ld	a0,112(sp)
   140e0:	00152c13          	slti	s8,a0,1
   140e4:	00048513          	mv	a0,s1
   140e8:	000a8593          	mv	a1,s5
   140ec:	00000613          	li	a2,0
   140f0:	00000693          	li	a3,0
   140f4:	0a0020ef          	jal	16194 <__cmptf2>
   140f8:	00153513          	seqz	a0,a0
   140fc:	018975b3          	and	a1,s2,s8
   14100:	15013c03          	ld	s8,336(sp)
   14104:	20710913          	add	s2,sp,519
   14108:	00a5f533          	and	a0,a1,a0
   1410c:	00051863          	bnez	a0,1411c <.LBB1_252>
   14110:	002b8c93          	add	s9,s7,2
   14114:	02e00513          	li	a0,46
   14118:	00ab80a3          	sb	a0,1(s7)

000000000001411c <.LBB1_252>:
   1411c:	00048513          	mv	a0,s1
   14120:	000a8593          	mv	a1,s5
   14124:	00000613          	li	a2,0
   14128:	00000693          	li	a3,0
   1412c:	068020ef          	jal	16194 <__cmptf2>
   14130:	f40514e3          	bnez	a0,14078 <.LBB1_249>
   14134:	20710513          	add	a0,sp,519
   14138:	06013583          	ld	a1,96(sp)
   1413c:	40b504b3          	sub	s1,a0,a1
   14140:	05813683          	ld	a3,88(sp)
   14144:	00d48533          	add	a0,s1,a3
   14148:	800005b7          	lui	a1,0x80000
   1414c:	ffd5859b          	addw	a1,a1,-3 # 7ffffffd <__global_pointer$+0x7ffe4fb5>
   14150:	40a585b3          	sub	a1,a1,a0
   14154:	08813c03          	ld	s8,136(sp)
   14158:	07013603          	ld	a2,112(sp)
   1415c:	1ec5c4e3          	blt	a1,a2,14b44 <.LBB1_394>
   14160:	00c03533          	snez	a0,a2
   14164:	0e813583          	ld	a1,232(sp)
   14168:	019585b3          	add	a1,a1,s9
   1416c:	00c5a5b3          	slt	a1,a1,a2
   14170:	00b57533          	and	a0,a0,a1
   14174:	412c8b33          	sub	s6,s9,s2
   14178:	00051663          	bnez	a0,14184 <.LBB1_256>
   1417c:	000b0b93          	mv	s7,s6
   14180:	0140006f          	j	14194 <.LBB1_257>

0000000000014184 <.LBB1_256>:
   14184:	08013503          	ld	a0,128(sp)
   14188:	0025051b          	addw	a0,a0,2
   1418c:	02051513          	sll	a0,a0,0x20
   14190:	02055b93          	srl	s7,a0,0x20

0000000000014194 <.LBB1_257>:
   14194:	07813c83          	ld	s9,120(sp)
   14198:	009b8bb3          	add	s7,s7,s1
   1419c:	01768abb          	addw	s5,a3,s7
   141a0:	000c8c9b          	sext.w	s9,s9
   141a4:	02000593          	li	a1,32
   141a8:	00098513          	mv	a0,s3
   141ac:	000c8613          	mv	a2,s9
   141b0:	00068913          	mv	s2,a3
   141b4:	000a8693          	mv	a3,s5
   141b8:	000c0713          	mv	a4,s8
   141bc:	385000ef          	jal	14d40 <pad>
   141c0:	0009c503          	lbu	a0,0(s3)
   141c4:	02057513          	and	a0,a0,32
   141c8:	00051a63          	bnez	a0,141dc <.LBB1_259>
   141cc:	03813503          	ld	a0,56(sp)
   141d0:	00090593          	mv	a1,s2
   141d4:	00098613          	mv	a2,s3
   141d8:	7a1000ef          	jal	15178 <__fwritex>

00000000000141dc <.LBB1_259>:
   141dc:	00010537          	lui	a0,0x10
   141e0:	00ac4733          	xor	a4,s8,a0
   141e4:	03000593          	li	a1,48
   141e8:	00098513          	mv	a0,s3
   141ec:	000c8613          	mv	a2,s9
   141f0:	000a8693          	mv	a3,s5
   141f4:	34d000ef          	jal	14d40 <pad>
   141f8:	0009c503          	lbu	a0,0(s3)
   141fc:	02057513          	and	a0,a0,32
   14200:	00051a63          	bnez	a0,14214 <.LBB1_261>
   14204:	20710513          	add	a0,sp,519
   14208:	000b0593          	mv	a1,s6
   1420c:	00098613          	mv	a2,s3
   14210:	769000ef          	jal	15178 <__fwritex>

0000000000014214 <.LBB1_261>:
   14214:	009b0b33          	add	s6,s6,s1
   14218:	416b863b          	subw	a2,s7,s6
   1421c:	03000593          	li	a1,48
   14220:	00098513          	mv	a0,s3
   14224:	00000693          	li	a3,0
   14228:	00000713          	li	a4,0
   1422c:	315000ef          	jal	14d40 <pad>
   14230:	0009c503          	lbu	a0,0(s3)
   14234:	02057513          	and	a0,a0,32
   14238:	0c051ae3          	bnez	a0,14b0c <.LBB1_391>
   1423c:	06013503          	ld	a0,96(sp)
   14240:	00048593          	mv	a1,s1
   14244:	0c10006f          	j	14b04 <.LBB1_390>

0000000000014248 <.LBB1_263>:
   14248:	07812603          	lw	a2,120(sp)
   1424c:	02000593          	li	a1,32
   14250:	00098513          	mv	a0,s3
   14254:	00000693          	li	a3,0
   14258:	08813903          	ld	s2,136(sp)
   1425c:	00090713          	mv	a4,s2
   14260:	2e1000ef          	jal	14d40 <pad>
   14264:	07813603          	ld	a2,120(sp)
   14268:	00000493          	li	s1,0

000000000001426c <.LBB1_264>:
   1426c:	00002537          	lui	a0,0x2
   14270:	00a94733          	xor	a4,s2,a0
   14274:	00060a9b          	sext.w	s5,a2
   14278:	0004849b          	sext.w	s1,s1
   1427c:	02000593          	li	a1,32
   14280:	00098513          	mv	a0,s3
   14284:	000a8613          	mv	a2,s5
   14288:	00048693          	mv	a3,s1
   1428c:	2b5000ef          	jal	14d40 <pad>
   14290:	0154d463          	bge	s1,s5,14298 <.LBB1_265>
   14294:	c49fe06f          	j	12edc <.LBB1_1>

0000000000014298 <.LBB1_265>:
   14298:	00048a93          	mv	s5,s1
   1429c:	c41fe06f          	j	12edc <.LBB1_1>

00000000000142a0 <.LBB1_266>:
   142a0:	00100493          	li	s1,1

00000000000142a4 <.LBB1_267>:
   142a4:	001ad61b          	srlw	a2,s5,0x1
   142a8:	00c2c6b3          	xor	a3,t0,a2
   142ac:	00b6e5b3          	or	a1,a3,a1
   142b0:	0c013683          	ld	a3,192(sp)
   142b4:	00058463          	beqz	a1,142bc <.LBB1_269>
   142b8:	0b013683          	ld	a3,176(sp)

00000000000142bc <.LBB1_269>:
   142bc:	00c2f463          	bgeu	t0,a2,142c4 <.LBB1_271>
   142c0:	0a813683          	ld	a3,168(sp)

00000000000142c4 <.LBB1_271>:
   142c4:	00000613          	li	a2,0
   142c8:	03813583          	ld	a1,56(sp)
   142cc:	02059663          	bnez	a1,142f8 <.LBB1_274>
   142d0:	02013583          	ld	a1,32(sp)
   142d4:	0005c583          	lbu	a1,0(a1)
   142d8:	02d00713          	li	a4,45
   142dc:	00e59e63          	bne	a1,a4,142f8 <.LBB1_274>
   142e0:	00000613          	li	a2,0
   142e4:	0b813583          	ld	a1,184(sp)
   142e8:	13813703          	ld	a4,312(sp)
   142ec:	00e5c933          	xor	s2,a1,a4
   142f0:	00e6e6b3          	or	a3,a3,a4
   142f4:	0080006f          	j	142fc <.LBB1_275>

00000000000142f8 <.LBB1_274>:
   142f8:	0b813903          	ld	s2,184(sp)

00000000000142fc <.LBB1_275>:
   142fc:	405885bb          	subw	a1,a7,t0
   14300:	02b13c23          	sd	a1,56(sp)
   14304:	00bc2023          	sw	a1,0(s8)
   14308:	00048513          	mv	a0,s1
   1430c:	00090593          	mv	a1,s2
   14310:	5cc030ef          	jal	178dc <__addtf3>
   14314:	00048613          	mv	a2,s1
   14318:	00090693          	mv	a3,s2
   1431c:	679010ef          	jal	16194 <__cmptf2>
   14320:	06050863          	beqz	a0,14390 <.LBB1_282>
   14324:	03813503          	ld	a0,56(sp)
   14328:	0155053b          	addw	a0,a0,s5
   1432c:	00ac2023          	sw	a0,0(s8)
   14330:	14813583          	ld	a1,328(sp)
   14334:	06013703          	ld	a4,96(sp)
   14338:	14b56463          	bltu	a0,a1,14480 <.LBB1_300>
   1433c:	06812503          	lw	a0,104(sp)
   14340:	00251513          	sll	a0,a0,0x2
   14344:	01013583          	ld	a1,16(sp)
   14348:	00a58533          	add	a0,a1,a0
   1434c:	0a013583          	ld	a1,160(sp)
   14350:	00a58533          	add	a0,a1,a0
   14354:	20710913          	add	s2,sp,519
   14358:	3b9ad6b7          	lui	a3,0x3b9ad

000000000001435c <.LBB1_278>:
   1435c:	00052223          	sw	zero,4(a0) # 2004 <.Lline_table_start0+0x2004>
   14360:	00e57863          	bgeu	a0,a4,14370 <.LBB1_280>
   14364:	ffc70593          	add	a1,a4,-4
   14368:	fe072e23          	sw	zero,-4(a4)
   1436c:	00058713          	mv	a4,a1

0000000000014370 <.LBB1_280>:
   14370:	00052583          	lw	a1,0(a0)
   14374:	0015859b          	addw	a1,a1,1
   14378:	00b52023          	sw	a1,0(a0)
   1437c:	9ff6861b          	addw	a2,a3,-1537 # 3b9ac9ff <__global_pointer$+0x3b9919b7>
   14380:	ffc50513          	add	a0,a0,-4
   14384:	fcb66ce3          	bltu	a2,a1,1435c <.LBB1_278>
   14388:	00450c13          	add	s8,a0,4
   1438c:	0f80006f          	j	14484 <.LBB1_301>

0000000000014390 <.LBB1_282>:
   14390:	20710913          	add	s2,sp,519

0000000000014394 <.LBB1_283>:
   14394:	06013703          	ld	a4,96(sp)

0000000000014398 <.LBB1_284>:
   14398:	02813583          	ld	a1,40(sp)
   1439c:	01813783          	ld	a5,24(sp)
   143a0:	004c0513          	add	a0,s8,4
   143a4:	01656463          	bltu	a0,s6,143ac <.LBB1_286>
   143a8:	000b0513          	mv	a0,s6

00000000000143ac <.LBB1_286>:
   143ac:	00050b13          	mv	s6,a0

00000000000143b0 <.LBB1_287>:
   143b0:	10013503          	ld	a0,256(sp)
   143b4:	01650533          	add	a0,a0,s6
   143b8:	40b50533          	sub	a0,a0,a1

00000000000143bc <.LBB1_288>:
   143bc:	000b0693          	mv	a3,s6
   143c0:	00050c13          	mv	s8,a0
   143c4:	01677a63          	bgeu	a4,s6,143d8 <.LBB1_290>
   143c8:	ffc6a583          	lw	a1,-4(a3)
   143cc:	ffc68b13          	add	s6,a3,-4
   143d0:	ffcc0513          	add	a0,s8,-4
   143d4:	fe0584e3          	beqz	a1,143bc <.LBB1_288>

00000000000143d8 <.LBB1_290>:
   143d8:	06700513          	li	a0,103
   143dc:	06e13023          	sd	a4,96(sp)
   143e0:	05813583          	ld	a1,88(sp)
   143e4:	06d13423          	sd	a3,104(sp)
   143e8:	08a59263          	bne	a1,a0,1446c <.LBB1_298>
   143ec:	00079463          	bnez	a5,143f4 <.LBB1_293>
   143f0:	00100c93          	li	s9,1

00000000000143f4 <.LBB1_293>:
   143f4:	000c851b          	sext.w	a0,s9
   143f8:	00aba533          	slt	a0,s7,a0
   143fc:	ffcba593          	slti	a1,s7,-4
   14400:	0015c593          	xor	a1,a1,1
   14404:	00b57533          	and	a0,a0,a1
   14408:	fffbc593          	not	a1,s7
   1440c:	04013603          	ld	a2,64(sp)
   14410:	00c50633          	add	a2,a0,a2
   14414:	ffe60613          	add	a2,a2,-2
   14418:	04c13023          	sd	a2,64(sp)
   1441c:	fff5051b          	addw	a0,a0,-1
   14420:	00b56533          	or	a0,a0,a1
   14424:	08813583          	ld	a1,136(sp)
   14428:	0085f593          	and	a1,a1,8
   1442c:	01950cbb          	addw	s9,a0,s9
   14430:	04059463          	bnez	a1,14478 <.LBB1_299>
   14434:	00900b13          	li	s6,9
   14438:	0ed77a63          	bgeu	a4,a3,1452c <.LBB1_310>
   1443c:	ffc6a483          	lw	s1,-4(a3)
   14440:	0e048663          	beqz	s1,1452c <.LBB1_310>
   14444:	00048513          	mv	a0,s1
   14448:	09813583          	ld	a1,152(sp)
   1444c:	c30fe0ef          	jal	1287c <__muldi3>
   14450:	01f5159b          	sllw	a1,a0,0x1f
   14454:	0015551b          	srlw	a0,a0,0x1
   14458:	00b56533          	or	a0,a0,a1
   1445c:	09013583          	ld	a1,144(sp)
   14460:	08a5fc63          	bgeu	a1,a0,144f8 <.LBB1_308>
   14464:	00000b13          	li	s6,0
   14468:	0c40006f          	j	1452c <.LBB1_310>

000000000001446c <.LBB1_298>:
   1446c:	08813c03          	ld	s8,136(sp)
   14470:	008c7593          	and	a1,s8,8
   14474:	1080006f          	j	1457c <.LBB1_315>

0000000000014478 <.LBB1_299>:
   14478:	08813c03          	ld	s8,136(sp)
   1447c:	1000006f          	j	1457c <.LBB1_315>

0000000000014480 <.LBB1_300>:
   14480:	20710913          	add	s2,sp,519

0000000000014484 <.LBB1_301>:
   14484:	00072483          	lw	s1,0(a4)
   14488:	07013503          	ld	a0,112(sp)
   1448c:	40e50533          	sub	a0,a0,a4
   14490:	00255513          	srl	a0,a0,0x2
   14494:	00351593          	sll	a1,a0,0x3
   14498:	00a58bbb          	addw	s7,a1,a0
   1449c:	00a00513          	li	a0,10
   144a0:	eea4ece3          	bltu	s1,a0,14398 <.LBB1_284>
   144a4:	00070a93          	mv	s5,a4
   144a8:	00a00513          	li	a0,10

00000000000144ac <.LBB1_303>:
   144ac:	00a00593          	li	a1,10
   144b0:	bccfe0ef          	jal	1287c <__muldi3>
   144b4:	0005059b          	sext.w	a1,a0
   144b8:	001b8b9b          	addw	s7,s7,1
   144bc:	feb4f8e3          	bgeu	s1,a1,144ac <.LBB1_303>
   144c0:	000a8713          	mv	a4,s5
   144c4:	ed5ff06f          	j	14398 <.LBB1_284>

00000000000144c8 <.LBB1_305>:
   144c8:	1e013503          	ld	a0,480(sp)
   144cc:	00000a93          	li	s5,0
   144d0:	01452023          	sw	s4,0(a0)
   144d4:	a09fe06f          	j	12edc <.LBB1_1>

00000000000144d8 <.LBB1_306>:
   144d8:	1e013503          	ld	a0,480(sp)
   144dc:	00000a93          	li	s5,0
   144e0:	01451023          	sh	s4,0(a0)
   144e4:	9f9fe06f          	j	12edc <.LBB1_1>

00000000000144e8 <.LBB1_307>:
   144e8:	1e013503          	ld	a0,480(sp)
   144ec:	00000a93          	li	s5,0
   144f0:	01450023          	sb	s4,0(a0)
   144f4:	9e9fe06f          	j	12edc <.LBB1_1>

00000000000144f8 <.LBB1_308>:
   144f8:	00000b13          	li	s6,0
   144fc:	00a00a93          	li	s5,10

0000000000014500 <.LBB1_309>:
   14500:	00a00593          	li	a1,10
   14504:	000a8513          	mv	a0,s5
   14508:	b74fe0ef          	jal	1287c <__muldi3>
   1450c:	00050a93          	mv	s5,a0
   14510:	0015559b          	srlw	a1,a0,0x1
   14514:	00159593          	sll	a1,a1,0x1
   14518:	001b0b1b          	addw	s6,s6,1
   1451c:	02049513          	sll	a0,s1,0x20
   14520:	02055513          	srl	a0,a0,0x20
   14524:	7f8010ef          	jal	15d1c <__umoddi3>
   14528:	fc050ce3          	beqz	a0,14500 <.LBB1_309>

000000000001452c <.LBB1_310>:
   1452c:	04013503          	ld	a0,64(sp)
   14530:	fdf57613          	and	a2,a0,-33
   14534:	402c5513          	sra	a0,s8,0x2
   14538:	001c1c13          	sll	s8,s8,0x1
   1453c:	00ac0533          	add	a0,s8,a0
   14540:	020b1593          	sll	a1,s6,0x20
   14544:	0205d593          	srl	a1,a1,0x20
   14548:	04600693          	li	a3,70
   1454c:	00d60463          	beq	a2,a3,14554 <.LBB1_312>
   14550:	01750533          	add	a0,a0,s7

0000000000014554 <.LBB1_312>:
   14554:	40b50533          	sub	a0,a0,a1
   14558:	ff750513          	add	a0,a0,-9
   1455c:	00a025b3          	sgtz	a1,a0
   14560:	40b005b3          	neg	a1,a1
   14564:	00a5f533          	and	a0,a1,a0
   14568:	08813c03          	ld	s8,136(sp)
   1456c:	01954463          	blt	a0,s9,14574 <.LBB1_314>
   14570:	000c8513          	mv	a0,s9

0000000000014574 <.LBB1_314>:
   14574:	00000593          	li	a1,0
   14578:	00050c93          	mv	s9,a0

000000000001457c <.LBB1_315>:
   1457c:	04b13c23          	sd	a1,88(sp)
   14580:	00bce533          	or	a0,s9,a1
   14584:	0005051b          	sext.w	a0,a0
   14588:	09913023          	sd	s9,128(sp)
   1458c:	000c8c9b          	sext.w	s9,s9
   14590:	02a13823          	sd	a0,48(sp)
   14594:	00a03533          	snez	a0,a0
   14598:	800005b7          	lui	a1,0x80000
   1459c:	ffe5859b          	addw	a1,a1,-2 # 7ffffffe <__global_pointer$+0x7ffe4fb6>
   145a0:	40a585b3          	sub	a1,a1,a0
   145a4:	04813483          	ld	s1,72(sp)
   145a8:	03913c23          	sd	s9,56(sp)
   145ac:	5995cc63          	blt	a1,s9,14b44 <.LBB1_394>
   145b0:	08013583          	ld	a1,128(sp)
   145b4:	00a58533          	add	a0,a1,a0
   145b8:	0015079b          	addw	a5,a0,1
   145bc:	04013503          	ld	a0,64(sp)
   145c0:	fdf57c93          	and	s9,a0,-33
   145c4:	40f405bb          	subw	a1,s0,a5
   145c8:	04600513          	li	a0,70
   145cc:	00ac9c63          	bne	s9,a0,145e4 <.LBB1_319>
   145d0:	5775ca63          	blt	a1,s7,14b44 <.LBB1_394>
   145d4:	01702533          	sgtz	a0,s7
   145d8:	40a00533          	neg	a0,a0
   145dc:	01757533          	and	a0,a0,s7
   145e0:	0fc0006f          	j	146dc <.LBB1_328>

00000000000145e4 <.LBB1_319>:
   145e4:	00b13823          	sd	a1,16(sp)
   145e8:	00f13c23          	sd	a5,24(sp)
   145ec:	03913423          	sd	s9,40(sp)
   145f0:	040b8e63          	beqz	s7,1464c <.LBB1_322>
   145f4:	41fbd513          	sra	a0,s7,0x1f
   145f8:	00abc4b3          	xor	s1,s7,a0
   145fc:	40a484bb          	subw	s1,s1,a0
   14600:	20710913          	add	s2,sp,519
   14604:	00090c13          	mv	s8,s2
   14608:	00900b13          	li	s6,9
   1460c:	00200c93          	li	s9,2

0000000000014610 <.LBB1_321>:
   14610:	00048a93          	mv	s5,s1
   14614:	00a00593          	li	a1,10
   14618:	00048513          	mv	a0,s1
   1461c:	565000ef          	jal	15380 <__udivdi3>
   14620:	00050493          	mv	s1,a0
   14624:	00a00593          	li	a1,10
   14628:	a54fe0ef          	jal	1287c <__muldi3>
   1462c:	40aa853b          	subw	a0,s5,a0
   14630:	03056593          	or	a1,a0,48
   14634:	fff90513          	add	a0,s2,-1
   14638:	feb90fa3          	sb	a1,-1(s2)
   1463c:	fffc0c13          	add	s8,s8,-1
   14640:	00050913          	mv	s2,a0
   14644:	fd5b66e3          	bltu	s6,s5,14610 <.LBB1_321>
   14648:	0100006f          	j	14658 <.LBB1_323>

000000000001464c <.LBB1_322>:
   1464c:	20710513          	add	a0,sp,519
   14650:	00050c13          	mv	s8,a0
   14654:	00200c93          	li	s9,2

0000000000014658 <.LBB1_323>:
   14658:	20710693          	add	a3,sp,519
   1465c:	418685b3          	sub	a1,a3,s8
   14660:	20710913          	add	s2,sp,519
   14664:	00100613          	li	a2,1
   14668:	02b64863          	blt	a2,a1,14698 <.LBB1_326>
   1466c:	40a68633          	sub	a2,a3,a0
   14670:	03000713          	li	a4,48
   14674:	08813c03          	ld	s8,136(sp)
   14678:	01813783          	ld	a5,24(sp)
   1467c:	01013803          	ld	a6,16(sp)

0000000000014680 <.LBB1_325>:
   14680:	fff50593          	add	a1,a0,-1
   14684:	00160613          	add	a2,a2,1
   14688:	fee50fa3          	sb	a4,-1(a0)
   1468c:	00058513          	mv	a0,a1
   14690:	ff9648e3          	blt	a2,s9,14680 <.LBB1_325>
   14694:	0140006f          	j	146a8 <.LBB1_327>

0000000000014698 <.LBB1_326>:
   14698:	00050593          	mv	a1,a0
   1469c:	08813c03          	ld	s8,136(sp)
   146a0:	01813783          	ld	a5,24(sp)
   146a4:	01013803          	ld	a6,16(sp)

00000000000146a8 <.LBB1_327>:
   146a8:	03ebd513          	srl	a0,s7,0x3e
   146ac:	00257513          	and	a0,a0,2
   146b0:	02b5051b          	addw	a0,a0,43
   146b4:	fea58fa3          	sb	a0,-1(a1)
   146b8:	ffe58b93          	add	s7,a1,-2
   146bc:	41768533          	sub	a0,a3,s7
   146c0:	02081613          	sll	a2,a6,0x20
   146c4:	02065613          	srl	a2,a2,0x20
   146c8:	04013683          	ld	a3,64(sp)
   146cc:	fed58f23          	sb	a3,-2(a1)
   146d0:	04813483          	ld	s1,72(sp)
   146d4:	02813c83          	ld	s9,40(sp)
   146d8:	46a64663          	blt	a2,a0,14b44 <.LBB1_394>

00000000000146dc <.LBB1_328>:
   146dc:	00f5053b          	addw	a0,a0,a5
   146e0:	0084c5b3          	xor	a1,s1,s0
   146e4:	46a5c063          	blt	a1,a0,14b44 <.LBB1_394>
   146e8:	00950abb          	addw	s5,a0,s1
   146ec:	07812b03          	lw	s6,120(sp)
   146f0:	02000593          	li	a1,32
   146f4:	00098513          	mv	a0,s3
   146f8:	000b0613          	mv	a2,s6
   146fc:	000a8693          	mv	a3,s5
   14700:	000c0713          	mv	a4,s8
   14704:	63c000ef          	jal	14d40 <pad>
   14708:	0009c503          	lbu	a0,0(s3)
   1470c:	02057513          	and	a0,a0,32
   14710:	00051a63          	bnez	a0,14724 <.LBB1_331>
   14714:	02013503          	ld	a0,32(sp)
   14718:	00048593          	mv	a1,s1
   1471c:	00098613          	mv	a2,s3
   14720:	259000ef          	jal	15178 <__fwritex>

0000000000014724 <.LBB1_331>:
   14724:	00010537          	lui	a0,0x10
   14728:	00ac4733          	xor	a4,s8,a0
   1472c:	03000593          	li	a1,48
   14730:	00098513          	mv	a0,s3
   14734:	000b0613          	mv	a2,s6
   14738:	000a8693          	mv	a3,s5
   1473c:	604000ef          	jal	14d40 <pad>
   14740:	04600513          	li	a0,70
   14744:	20ac9263          	bne	s9,a0,14948 <.LBB1_363>
   14748:	07013503          	ld	a0,112(sp)
   1474c:	00050c13          	mv	s8,a0
   14750:	03000b13          	li	s6,48
   14754:	06013583          	ld	a1,96(sp)
   14758:	00b56463          	bltu	a0,a1,14760 <.LBB1_334>
   1475c:	00058c13          	mv	s8,a1

0000000000014760 <.LBB1_334>:
   14760:	000c0b93          	mv	s7,s8
   14764:	07813023          	sd	s8,96(sp)

0000000000014768 <.LBB1_335>:
   14768:	000be483          	lwu	s1,0(s7)
   1476c:	06048463          	beqz	s1,147d4 <.LBB1_340>
   14770:	ff600c93          	li	s9,-10
   14774:	21010513          	add	a0,sp,528
   14778:	00900c13          	li	s8,9

000000000001477c <.LBB1_337>:
   1477c:	00048b13          	mv	s6,s1
   14780:	00050913          	mv	s2,a0
   14784:	00a00593          	li	a1,10
   14788:	00048513          	mv	a0,s1
   1478c:	3f5000ef          	jal	15380 <__udivdi3>
   14790:	00050493          	mv	s1,a0
   14794:	00a00593          	li	a1,10
   14798:	8e4fe0ef          	jal	1287c <__muldi3>
   1479c:	40ab053b          	subw	a0,s6,a0
   147a0:	03056593          	or	a1,a0,48
   147a4:	fff90513          	add	a0,s2,-1
   147a8:	feb90fa3          	sb	a1,-1(s2)
   147ac:	001c8c93          	add	s9,s9,1
   147b0:	fd6c66e3          	bltu	s8,s6,1477c <.LBB1_337>
   147b4:	06013c03          	ld	s8,96(sp)
   147b8:	038b8e63          	beq	s7,s8,147f4 <.LBB1_343>
   147bc:	419005b3          	neg	a1,s9
   147c0:	20710913          	add	s2,sp,519
   147c4:	03000b13          	li	s6,48
   147c8:	00200613          	li	a2,2
   147cc:	00c5d863          	bge	a1,a2,147dc <.LBB1_341>
   147d0:	03c0006f          	j	1480c <.LBB1_345>

00000000000147d4 <.LBB1_340>:
   147d4:	21010513          	add	a0,sp,528
   147d8:	038b8663          	beq	s7,s8,14804 <.LBB1_344>

00000000000147dc <.LBB1_341>:
   147dc:	00050593          	mv	a1,a0

00000000000147e0 <.LBB1_342>:
   147e0:	fff58513          	add	a0,a1,-1
   147e4:	ff658fa3          	sb	s6,-1(a1)
   147e8:	00050593          	mv	a1,a0
   147ec:	fea96ae3          	bltu	s2,a0,147e0 <.LBB1_342>
   147f0:	01c0006f          	j	1480c <.LBB1_345>

00000000000147f4 <.LBB1_343>:
   147f4:	20710913          	add	s2,sp,519
   147f8:	03000b13          	li	s6,48
   147fc:	ff600593          	li	a1,-10
   14800:	00bc9663          	bne	s9,a1,1480c <.LBB1_345>

0000000000014804 <.LBB1_344>:
   14804:	216107a3          	sb	s6,527(sp)
   14808:	20f10513          	add	a0,sp,527

000000000001480c <.LBB1_345>:
   1480c:	0009c583          	lbu	a1,0(s3)
   14810:	0205f593          	and	a1,a1,32
   14814:	00059a63          	bnez	a1,14828 <.LBB1_347>
   14818:	21010593          	add	a1,sp,528
   1481c:	40a585b3          	sub	a1,a1,a0
   14820:	00098613          	mv	a2,s3
   14824:	155000ef          	jal	15178 <__fwritex>

0000000000014828 <.LBB1_347>:
   14828:	004b8b93          	add	s7,s7,4
   1482c:	08013c83          	ld	s9,128(sp)
   14830:	07013503          	ld	a0,112(sp)
   14834:	f3757ae3          	bgeu	a0,s7,14768 <.LBB1_335>
   14838:	00900c13          	li	s8,9
   1483c:	03013503          	ld	a0,48(sp)
   14840:	02050063          	beqz	a0,14860 <.LBB1_351>
   14844:	0009c503          	lbu	a0,0(s3)
   14848:	02057513          	and	a0,a0,32
   1484c:	00051a63          	bnez	a0,14860 <.LBB1_351>
   14850:	00100593          	li	a1,1
   14854:	0f013503          	ld	a0,240(sp)
   14858:	00098613          	mv	a2,s3
   1485c:	11d000ef          	jal	15178 <__fwritex>

0000000000014860 <.LBB1_351>:
   14860:	06813503          	ld	a0,104(sp)
   14864:	00abb533          	sltu	a0,s7,a0
   14868:	03813583          	ld	a1,56(sp)
   1486c:	00b025b3          	sgtz	a1,a1
   14870:	00b57533          	and	a0,a0,a1
   14874:	0a050a63          	beqz	a0,14928 <.LBB1_362>

0000000000014878 <.LBB1_352>:
   14878:	000be483          	lwu	s1,0(s7)
   1487c:	21010513          	add	a0,sp,528
   14880:	04048263          	beqz	s1,148c4 <.LBB1_355>

0000000000014884 <.LBB1_353>:
   14884:	00050913          	mv	s2,a0
   14888:	00048b13          	mv	s6,s1
   1488c:	00a00593          	li	a1,10
   14890:	00048513          	mv	a0,s1
   14894:	2ed000ef          	jal	15380 <__udivdi3>
   14898:	00050493          	mv	s1,a0
   1489c:	00a00593          	li	a1,10
   148a0:	fddfd0ef          	jal	1287c <__muldi3>
   148a4:	40ab053b          	subw	a0,s6,a0
   148a8:	03056593          	or	a1,a0,48
   148ac:	fff90513          	add	a0,s2,-1
   148b0:	feb90fa3          	sb	a1,-1(s2)
   148b4:	fd6c68e3          	bltu	s8,s6,14884 <.LBB1_353>
   148b8:	20710913          	add	s2,sp,519
   148bc:	03000b13          	li	s6,48
   148c0:	00a97c63          	bgeu	s2,a0,148d8 <.LBB1_357>

00000000000148c4 <.LBB1_355>:
   148c4:	00050593          	mv	a1,a0

00000000000148c8 <.LBB1_356>:
   148c8:	fff58513          	add	a0,a1,-1
   148cc:	ff658fa3          	sb	s6,-1(a1)
   148d0:	00050593          	mv	a1,a0
   148d4:	fea96ae3          	bltu	s2,a0,148c8 <.LBB1_356>

00000000000148d8 <.LBB1_357>:
   148d8:	0009c583          	lbu	a1,0(s3)
   148dc:	0205f593          	and	a1,a1,32
   148e0:	000c849b          	sext.w	s1,s9
   148e4:	02059263          	bnez	a1,14908 <.LBB1_361>
   148e8:	00900613          	li	a2,9
   148ec:	00048593          	mv	a1,s1
   148f0:	00c4c463          	blt	s1,a2,148f8 <.LBB1_360>
   148f4:	00900593          	li	a1,9

00000000000148f8 <.LBB1_360>:
   148f8:	02059593          	sll	a1,a1,0x20
   148fc:	0205d593          	srl	a1,a1,0x20
   14900:	00098613          	mv	a2,s3
   14904:	075000ef          	jal	15178 <__fwritex>

0000000000014908 <.LBB1_361>:
   14908:	004b8b93          	add	s7,s7,4
   1490c:	06813503          	ld	a0,104(sp)
   14910:	00abb533          	sltu	a0,s7,a0
   14914:	00a4a593          	slti	a1,s1,10
   14918:	0015c593          	xor	a1,a1,1
   1491c:	00b57533          	and	a0,a0,a1
   14920:	ff7c8c9b          	addw	s9,s9,-9
   14924:	f4051ae3          	bnez	a0,14878 <.LBB1_352>

0000000000014928 <.LBB1_362>:
   14928:	009c861b          	addw	a2,s9,9
   1492c:	03000593          	li	a1,48
   14930:	00900693          	li	a3,9
   14934:	00098513          	mv	a0,s3
   14938:	00000713          	li	a4,0
   1493c:	404000ef          	jal	14d40 <pad>
   14940:	08813c03          	ld	s8,136(sp)
   14944:	1c80006f          	j	14b0c <.LBB1_391>

0000000000014948 <.LBB1_363>:
   14948:	07713823          	sd	s7,112(sp)
   1494c:	06013603          	ld	a2,96(sp)
   14950:	06813503          	ld	a0,104(sp)
   14954:	00a66663          	bltu	a2,a0,14960 <.LBB1_365>
   14958:	00460513          	add	a0,a2,4
   1495c:	06a13423          	sd	a0,104(sp)

0000000000014960 <.LBB1_365>:
   14960:	08013c83          	ld	s9,128(sp)
   14964:	03813503          	ld	a0,56(sp)
   14968:	16054463          	bltz	a0,14ad0 <.LBB1_388>
   1496c:	00060493          	mv	s1,a2

0000000000014970 <.LBB1_367>:
   14970:	0004eb03          	lwu	s6,0(s1)
   14974:	060b0263          	beqz	s6,149d8 <.LBB1_372>
   14978:	08913023          	sd	s1,128(sp)
   1497c:	00000c13          	li	s8,0
   14980:	20f10913          	add	s2,sp,527
   14984:	00900493          	li	s1,9

0000000000014988 <.LBB1_369>:
   14988:	000b0b93          	mv	s7,s6
   1498c:	00a00593          	li	a1,10
   14990:	000b0513          	mv	a0,s6
   14994:	1ed000ef          	jal	15380 <__udivdi3>
   14998:	00050b13          	mv	s6,a0
   1499c:	00a00593          	li	a1,10
   149a0:	eddfd0ef          	jal	1287c <__muldi3>
   149a4:	40ab853b          	subw	a0,s7,a0
   149a8:	03056513          	or	a0,a0,48
   149ac:	00a90023          	sb	a0,0(s2)
   149b0:	001c0c13          	add	s8,s8,1
   149b4:	fff90913          	add	s2,s2,-1
   149b8:	fd74e8e3          	bltu	s1,s7,14988 <.LBB1_369>
   149bc:	20710913          	add	s2,sp,519
   149c0:	06013603          	ld	a2,96(sp)
   149c4:	08013483          	ld	s1,128(sp)
   149c8:	000c0863          	beqz	s8,149d8 <.LBB1_372>
   149cc:	21010513          	add	a0,sp,528
   149d0:	41850bb3          	sub	s7,a0,s8
   149d4:	0100006f          	j	149e4 <.LBB1_373>

00000000000149d8 <.LBB1_372>:
   149d8:	03000513          	li	a0,48
   149dc:	20a107a3          	sb	a0,527(sp)
   149e0:	20f10b93          	add	s7,sp,527

00000000000149e4 <.LBB1_373>:
   149e4:	02c48263          	beq	s1,a2,14a08 <.LBB1_377>
   149e8:	09797263          	bgeu	s2,s7,14a6c <.LBB1_382>
   149ec:	03000513          	li	a0,48
   149f0:	08813c03          	ld	s8,136(sp)

00000000000149f4 <.LBB1_376>:
   149f4:	fffb8b13          	add	s6,s7,-1
   149f8:	feab8fa3          	sb	a0,-1(s7)
   149fc:	000b0b93          	mv	s7,s6
   14a00:	ff696ae3          	bltu	s2,s6,149f4 <.LBB1_376>
   14a04:	0700006f          	j	14a74 <.LBB1_383>

0000000000014a08 <.LBB1_377>:
   14a08:	0009c503          	lbu	a0,0(s3)
   14a0c:	02057513          	and	a0,a0,32
   14a10:	00051c63          	bnez	a0,14a28 <.LBB1_379>
   14a14:	00100593          	li	a1,1
   14a18:	000b8513          	mv	a0,s7
   14a1c:	00098613          	mv	a2,s3
   14a20:	758000ef          	jal	15178 <__fwritex>
   14a24:	06013603          	ld	a2,96(sp)

0000000000014a28 <.LBB1_379>:
   14a28:	05813503          	ld	a0,88(sp)
   14a2c:	00153513          	seqz	a0,a0
   14a30:	000c859b          	sext.w	a1,s9
   14a34:	0015a593          	slti	a1,a1,1
   14a38:	00b57533          	and	a0,a0,a1
   14a3c:	001b8b13          	add	s6,s7,1
   14a40:	08813c03          	ld	s8,136(sp)
   14a44:	02051863          	bnez	a0,14a74 <.LBB1_383>
   14a48:	0009c503          	lbu	a0,0(s3)
   14a4c:	02057513          	and	a0,a0,32
   14a50:	02051263          	bnez	a0,14a74 <.LBB1_383>
   14a54:	00100593          	li	a1,1
   14a58:	0f013503          	ld	a0,240(sp)
   14a5c:	00098613          	mv	a2,s3
   14a60:	718000ef          	jal	15178 <__fwritex>
   14a64:	06013603          	ld	a2,96(sp)
   14a68:	00c0006f          	j	14a74 <.LBB1_383>

0000000000014a6c <.LBB1_382>:
   14a6c:	000b8b13          	mv	s6,s7
   14a70:	08813c03          	ld	s8,136(sp)

0000000000014a74 <.LBB1_383>:
   14a74:	0009c503          	lbu	a0,0(s3)
   14a78:	02057513          	and	a0,a0,32
   14a7c:	21010593          	add	a1,sp,528
   14a80:	41658933          	sub	s2,a1,s6
   14a84:	02051463          	bnez	a0,14aac <.LBB1_387>
   14a88:	020c9513          	sll	a0,s9,0x20
   14a8c:	02055513          	srl	a0,a0,0x20
   14a90:	00090593          	mv	a1,s2
   14a94:	00a94463          	blt	s2,a0,14a9c <.LBB1_386>
   14a98:	00050593          	mv	a1,a0

0000000000014a9c <.LBB1_386>:
   14a9c:	000b0513          	mv	a0,s6
   14aa0:	00098613          	mv	a2,s3
   14aa4:	6d4000ef          	jal	15178 <__fwritex>
   14aa8:	06013603          	ld	a2,96(sp)

0000000000014aac <.LBB1_387>:
   14aac:	412c8cbb          	subw	s9,s9,s2
   14ab0:	00448493          	add	s1,s1,4
   14ab4:	06813503          	ld	a0,104(sp)
   14ab8:	00a4b533          	sltu	a0,s1,a0
   14abc:	000ca593          	slti	a1,s9,0
   14ac0:	0015c593          	xor	a1,a1,1
   14ac4:	00b57533          	and	a0,a0,a1
   14ac8:	20710913          	add	s2,sp,519
   14acc:	ea0512e3          	bnez	a0,14970 <.LBB1_367>

0000000000014ad0 <.LBB1_388>:
   14ad0:	012c861b          	addw	a2,s9,18
   14ad4:	03000593          	li	a1,48
   14ad8:	01200693          	li	a3,18
   14adc:	00098513          	mv	a0,s3
   14ae0:	00000713          	li	a4,0
   14ae4:	25c000ef          	jal	14d40 <pad>
   14ae8:	0009c503          	lbu	a0,0(s3)
   14aec:	02057513          	and	a0,a0,32
   14af0:	00051e63          	bnez	a0,14b0c <.LBB1_391>
   14af4:	20710513          	add	a0,sp,519
   14af8:	07013603          	ld	a2,112(sp)
   14afc:	40c505b3          	sub	a1,a0,a2
   14b00:	00060513          	mv	a0,a2

0000000000014b04 <.LBB1_390>:
   14b04:	00098613          	mv	a2,s3
   14b08:	670000ef          	jal	15178 <__fwritex>

0000000000014b0c <.LBB1_391>:
   14b0c:	07813903          	ld	s2,120(sp)
   14b10:	00002537          	lui	a0,0x2
   14b14:	00ac4733          	xor	a4,s8,a0
   14b18:	0009091b          	sext.w	s2,s2
   14b1c:	02000593          	li	a1,32
   14b20:	00098513          	mv	a0,s3
   14b24:	00090613          	mv	a2,s2
   14b28:	000a8693          	mv	a3,s5
   14b2c:	214000ef          	jal	14d40 <pad>
   14b30:	01594463          	blt	s2,s5,14b38 <.LBB1_393>
   14b34:	00090a93          	mv	s5,s2

0000000000014b38 <.LBB1_393>:
   14b38:	04b00c93          	li	s9,75
   14b3c:	000ac663          	bltz	s5,14b48 <.LBB1_395>
   14b40:	b9cfe06f          	j	12edc <.LBB1_1>

0000000000014b44 <.LBB1_394>:
   14b44:	04b00c93          	li	s9,75

0000000000014b48 <.LBB1_395>:
   14b48:	e51fd0ef          	jal	12998 <__errno_location>
   14b4c:	01952023          	sw	s9,0(a0) # 2000 <.Lline_table_start0+0x2000>

0000000000014b50 <.LBB1_396>:
   14b50:	fff00a13          	li	s4,-1

0000000000014b54 <.LBB1_397>:
   14b54:	000a0513          	mv	a0,s4
   14b58:	000015b7          	lui	a1,0x1
   14b5c:	7705859b          	addw	a1,a1,1904 # 1770 <.Lline_table_start0+0x1770>
   14b60:	00b10133          	add	sp,sp,a1
   14b64:	7e813083          	ld	ra,2024(sp)
   14b68:	7e013403          	ld	s0,2016(sp)
   14b6c:	7d813483          	ld	s1,2008(sp)
   14b70:	7d013903          	ld	s2,2000(sp)
   14b74:	7c813983          	ld	s3,1992(sp)
   14b78:	7c013a03          	ld	s4,1984(sp)
   14b7c:	7b813a83          	ld	s5,1976(sp)
   14b80:	7b013b03          	ld	s6,1968(sp)
   14b84:	7a813b83          	ld	s7,1960(sp)
   14b88:	7a013c03          	ld	s8,1952(sp)
   14b8c:	79813c83          	ld	s9,1944(sp)
   14b90:	79013d03          	ld	s10,1936(sp)
   14b94:	78813d83          	ld	s11,1928(sp)
   14b98:	7f010113          	add	sp,sp,2032
   14b9c:	00008067          	ret

0000000000014ba0 <.LBB1_398>:
   14ba0:	fa099ae3          	bnez	s3,14b54 <.LBB1_397>
   14ba4:	19013503          	ld	a0,400(sp)
   14ba8:	04050463          	beqz	a0,14bf0 <.LBB1_404>
   14bac:	16013403          	ld	s0,352(sp)
   14bb0:	00440413          	add	s0,s0,4
   14bb4:	16813483          	ld	s1,360(sp)
   14bb8:	01048493          	add	s1,s1,16
   14bbc:	ff700913          	li	s2,-9
   14bc0:	17013983          	ld	s3,368(sp)

0000000000014bc4 <.LBB1_401>:
   14bc4:	00042583          	lw	a1,0(s0)
   14bc8:	02058863          	beqz	a1,14bf8 <.LBB1_405>
   14bcc:	00048513          	mv	a0,s1
   14bd0:	00098613          	mv	a2,s3
   14bd4:	058000ef          	jal	14c2c <pop_arg>
   14bd8:	00440413          	add	s0,s0,4
   14bdc:	00190913          	add	s2,s2,1
   14be0:	01048493          	add	s1,s1,16
   14be4:	fe0910e3          	bnez	s2,14bc4 <.LBB1_401>
   14be8:	00100a13          	li	s4,1
   14bec:	f69ff06f          	j	14b54 <.LBB1_397>

0000000000014bf0 <.LBB1_404>:
   14bf0:	00000a13          	li	s4,0
   14bf4:	f61ff06f          	j	14b54 <.LBB1_397>

0000000000014bf8 <.LBB1_405>:
   14bf8:	00a90513          	add	a0,s2,10
   14bfc:	00900593          	li	a1,9
   14c00:	00100a13          	li	s4,1
   14c04:	f4a5e8e3          	bltu	a1,a0,14b54 <.LBB1_397>
   14c08:	41200533          	neg	a0,s2

0000000000014c0c <.LBB1_407>:
   14c0c:	00042583          	lw	a1,0(s0)
   14c10:	00059a63          	bnez	a1,14c24 <.LBB1_409>
   14c14:	fff50513          	add	a0,a0,-1
   14c18:	00440413          	add	s0,s0,4
   14c1c:	fe0518e3          	bnez	a0,14c0c <.LBB1_407>
   14c20:	f35ff06f          	j	14b54 <.LBB1_397>

0000000000014c24 <.LBB1_409>:
   14c24:	01600c93          	li	s9,22
   14c28:	f21ff06f          	j	14b48 <.LBB1_395>

0000000000014c2c <pop_arg>:
   14c2c:	ff010113          	add	sp,sp,-16
   14c30:	00113423          	sd	ra,8(sp)
   14c34:	00813023          	sd	s0,0(sp)
   14c38:	ff758593          	add	a1,a1,-9
   14c3c:	01100693          	li	a3,17
   14c40:	02b6ea63          	bltu	a3,a1,14c74 <.LBB2_4>
   14c44:	00050413          	mv	s0,a0
   14c48:	00259593          	sll	a1,a1,0x2
   14c4c:	00010537          	lui	a0,0x10
   14c50:	2e850513          	add	a0,a0,744 # 102e8 <.LJTI2_0>
   14c54:	00a58533          	add	a0,a1,a0
   14c58:	00052503          	lw	a0,0(a0)
   14c5c:	00050067          	jr	a0

0000000000014c60 <.LBB2_2>:
   14c60:	00063503          	ld	a0,0(a2)
   14c64:	00850593          	add	a1,a0,8
   14c68:	00b63023          	sd	a1,0(a2)
   14c6c:	00053503          	ld	a0,0(a0)

0000000000014c70 <.LBB2_3>:
   14c70:	00a43023          	sd	a0,0(s0)

0000000000014c74 <.LBB2_4>:
   14c74:	00813083          	ld	ra,8(sp)
   14c78:	00013403          	ld	s0,0(sp)
   14c7c:	01010113          	add	sp,sp,16
   14c80:	00008067          	ret

0000000000014c84 <.LBB2_5>:
   14c84:	00063503          	ld	a0,0(a2)
   14c88:	00850593          	add	a1,a0,8
   14c8c:	00b63023          	sd	a1,0(a2)
   14c90:	00052503          	lw	a0,0(a0)
   14c94:	fddff06f          	j	14c70 <.LBB2_3>

0000000000014c98 <.LBB2_6>:
   14c98:	00063503          	ld	a0,0(a2)
   14c9c:	00850593          	add	a1,a0,8
   14ca0:	00b63023          	sd	a1,0(a2)
   14ca4:	00056503          	lwu	a0,0(a0)
   14ca8:	fc9ff06f          	j	14c70 <.LBB2_3>

0000000000014cac <.LBB2_7>:
   14cac:	00063503          	ld	a0,0(a2)
   14cb0:	00850593          	add	a1,a0,8
   14cb4:	00b63023          	sd	a1,0(a2)
   14cb8:	00051503          	lh	a0,0(a0)
   14cbc:	fb5ff06f          	j	14c70 <.LBB2_3>

0000000000014cc0 <.LBB2_8>:
   14cc0:	00063503          	ld	a0,0(a2)
   14cc4:	00850593          	add	a1,a0,8
   14cc8:	00b63023          	sd	a1,0(a2)
   14ccc:	00055503          	lhu	a0,0(a0)
   14cd0:	fa1ff06f          	j	14c70 <.LBB2_3>

0000000000014cd4 <.LBB2_9>:
   14cd4:	00063503          	ld	a0,0(a2)
   14cd8:	00850593          	add	a1,a0,8
   14cdc:	00b63023          	sd	a1,0(a2)
   14ce0:	00050503          	lb	a0,0(a0)
   14ce4:	f8dff06f          	j	14c70 <.LBB2_3>

0000000000014ce8 <.LBB2_10>:
   14ce8:	00063503          	ld	a0,0(a2)
   14cec:	00850593          	add	a1,a0,8
   14cf0:	00b63023          	sd	a1,0(a2)
   14cf4:	00054503          	lbu	a0,0(a0)
   14cf8:	f79ff06f          	j	14c70 <.LBB2_3>

0000000000014cfc <.LBB2_11>:
   14cfc:	00063503          	ld	a0,0(a2)
   14d00:	00850593          	add	a1,a0,8
   14d04:	00b63023          	sd	a1,0(a2)
   14d08:	00053503          	ld	a0,0(a0)
   14d0c:	4d0040ef          	jal	191dc <__extenddftf2>
   14d10:	00b43423          	sd	a1,8(s0)
   14d14:	f5dff06f          	j	14c70 <.LBB2_3>

0000000000014d18 <.LBB2_12>:
   14d18:	00063503          	ld	a0,0(a2)
   14d1c:	00f50513          	add	a0,a0,15
   14d20:	ff057513          	and	a0,a0,-16
   14d24:	01050593          	add	a1,a0,16
   14d28:	00b63023          	sd	a1,0(a2)
   14d2c:	00053583          	ld	a1,0(a0)
   14d30:	00853503          	ld	a0,8(a0)
   14d34:	00b43023          	sd	a1,0(s0)
   14d38:	00a43423          	sd	a0,8(s0)
   14d3c:	f39ff06f          	j	14c74 <.LBB2_4>

0000000000014d40 <pad>:
   14d40:	ee010113          	add	sp,sp,-288
   14d44:	10113c23          	sd	ra,280(sp)
   14d48:	10813823          	sd	s0,272(sp)
   14d4c:	10913423          	sd	s1,264(sp)
   14d50:	11213023          	sd	s2,256(sp)
   14d54:	000127b7          	lui	a5,0x12
   14d58:	00f77733          	and	a4,a4,a5
   14d5c:	00173713          	seqz	a4,a4
   14d60:	00c6a7b3          	slt	a5,a3,a2
   14d64:	00f77733          	and	a4,a4,a5
   14d68:	06070863          	beqz	a4,14dd8 <.LBB3_10>
   14d6c:	00050413          	mv	s0,a0
   14d70:	40d604bb          	subw	s1,a2,a3
   14d74:	10000913          	li	s2,256
   14d78:	00048613          	mv	a2,s1
   14d7c:	0124e463          	bltu	s1,s2,14d84 <.LBB3_3>
   14d80:	10000613          	li	a2,256

0000000000014d84 <.LBB3_3>:
   14d84:	00010513          	mv	a0,sp
   14d88:	9bdfd0ef          	jal	12744 <memset>
   14d8c:	0324e663          	bltu	s1,s2,14db8 <.LBB3_8>
   14d90:	0ff00913          	li	s2,255

0000000000014d94 <.LBB3_5>:
   14d94:	00044503          	lbu	a0,0(s0)
   14d98:	02057513          	and	a0,a0,32
   14d9c:	00051a63          	bnez	a0,14db0 <.LBB3_7>
   14da0:	00010513          	mv	a0,sp
   14da4:	10000593          	li	a1,256
   14da8:	00040613          	mv	a2,s0
   14dac:	3cc000ef          	jal	15178 <__fwritex>

0000000000014db0 <.LBB3_7>:
   14db0:	f004849b          	addw	s1,s1,-256
   14db4:	fe9960e3          	bltu	s2,s1,14d94 <.LBB3_5>

0000000000014db8 <.LBB3_8>:
   14db8:	00044503          	lbu	a0,0(s0)
   14dbc:	02057513          	and	a0,a0,32
   14dc0:	00051c63          	bnez	a0,14dd8 <.LBB3_10>
   14dc4:	02049593          	sll	a1,s1,0x20
   14dc8:	0205d593          	srl	a1,a1,0x20
   14dcc:	00010513          	mv	a0,sp
   14dd0:	00040613          	mv	a2,s0
   14dd4:	3a4000ef          	jal	15178 <__fwritex>

0000000000014dd8 <.LBB3_10>:
   14dd8:	11813083          	ld	ra,280(sp)
   14ddc:	11013403          	ld	s0,272(sp)
   14de0:	10813483          	ld	s1,264(sp)
   14de4:	10013903          	ld	s2,256(sp)
   14de8:	12010113          	add	sp,sp,288
   14dec:	00008067          	ret

0000000000014df0 <__lockfile>:
   14df0:	08c52603          	lw	a2,140(a0)
   14df4:	00020593          	mv	a1,tp
   14df8:	f585a583          	lw	a1,-168(a1)
   14dfc:	c00006b7          	lui	a3,0xc0000
   14e00:	fff6869b          	addw	a3,a3,-1 # ffffffffbfffffff <__global_pointer$+0xffffffffbffe4fb7>
   14e04:	00d67633          	and	a2,a2,a3
   14e08:	00b61663          	bne	a2,a1,14e14 <.LBB0_2>
   14e0c:	00000713          	li	a4,0
   14e10:	0800006f          	j	14e90 <.LBB0_10>

0000000000014e14 <.LBB0_2>:
   14e14:	08c50793          	add	a5,a0,140
   14e18:	0007a503          	lw	a0,0(a5) # 12000 <.LBB0_5>
   14e1c:	00b7a023          	sw	a1,0(a5)
   14e20:	00100713          	li	a4,1
   14e24:	06050663          	beqz	a0,14e90 <.LBB0_10>
   14e28:	0007a503          	lw	a0,0(a5)
   14e2c:	40000837          	lui	a6,0x40000
   14e30:	0105e2b3          	or	t0,a1,a6
   14e34:	0057a023          	sw	t0,0(a5)
   14e38:	04050c63          	beqz	a0,14e90 <.LBB0_10>
   14e3c:	fda00313          	li	t1,-38

0000000000014e40 <.LBB0_5>:
   14e40:	02151593          	sll	a1,a0,0x21
   14e44:	01056633          	or	a2,a0,a6
   14e48:	0005c863          	bltz	a1,14e58 <.LBB0_7>
   14e4c:	0007a583          	lw	a1,0(a5)
   14e50:	00c7a023          	sw	a2,0(a5)
   14e54:	02a59863          	bne	a1,a0,14e84 <.LBB0_9>

0000000000014e58 <.LBB0_7>:
   14e58:	06200893          	li	a7,98
   14e5c:	08000593          	li	a1,128
   14e60:	00078513          	mv	a0,a5
   14e64:	00000693          	li	a3,0
   14e68:	00000073          	ecall
   14e6c:	00651c63          	bne	a0,t1,14e84 <.LBB0_9>
   14e70:	06200893          	li	a7,98
   14e74:	00078513          	mv	a0,a5
   14e78:	00000593          	li	a1,0
   14e7c:	00000693          	li	a3,0
   14e80:	00000073          	ecall

0000000000014e84 <.LBB0_9>:
   14e84:	0007a503          	lw	a0,0(a5)
   14e88:	0057a023          	sw	t0,0(a5)
   14e8c:	fa051ae3          	bnez	a0,14e40 <.LBB0_5>

0000000000014e90 <.LBB0_10>:
   14e90:	00070513          	mv	a0,a4
   14e94:	00008067          	ret

0000000000014e98 <__unlockfile>:
   14e98:	08c50693          	add	a3,a0,140

0000000000014e9c <.LBB1_1>:
   14e9c:	0006a503          	lw	a0,0(a3)
   14ea0:	0006a583          	lw	a1,0(a3)
   14ea4:	0006a023          	sw	zero,0(a3)
   14ea8:	fea59ae3          	bne	a1,a0,14e9c <.LBB1_1>
   14eac:	02151513          	sll	a0,a0,0x21
   14eb0:	02055a63          	bgez	a0,14ee4 <.LBB1_5>
   14eb4:	06200893          	li	a7,98
   14eb8:	08100593          	li	a1,129
   14ebc:	00100613          	li	a2,1
   14ec0:	fda00713          	li	a4,-38
   14ec4:	00068513          	mv	a0,a3
   14ec8:	00000073          	ecall
   14ecc:	00e51c63          	bne	a0,a4,14ee4 <.LBB1_5>
   14ed0:	06200893          	li	a7,98
   14ed4:	00100593          	li	a1,1
   14ed8:	00100613          	li	a2,1
   14edc:	00068513          	mv	a0,a3
   14ee0:	00000073          	ecall

0000000000014ee4 <.LBB1_5>:
   14ee4:	00008067          	ret

0000000000014ee8 <__towrite>:
   14ee8:	08852603          	lw	a2,136(a0)
   14eec:	00056583          	lwu	a1,0(a0)
   14ef0:	fff6069b          	addw	a3,a2,-1
   14ef4:	00c6e633          	or	a2,a3,a2
   14ef8:	0085f693          	and	a3,a1,8
   14efc:	08c52423          	sw	a2,136(a0)
   14f00:	02069663          	bnez	a3,14f2c <.LBB0_2>
   14f04:	05853603          	ld	a2,88(a0)
   14f08:	06053683          	ld	a3,96(a0)
   14f0c:	00000593          	li	a1,0
   14f10:	02c53c23          	sd	a2,56(a0)
   14f14:	02c53423          	sd	a2,40(a0)
   14f18:	00d60633          	add	a2,a2,a3
   14f1c:	00053823          	sd	zero,16(a0)
   14f20:	00053423          	sd	zero,8(a0)
   14f24:	02c53023          	sd	a2,32(a0)
   14f28:	0100006f          	j	14f38 <.LBB0_3>

0000000000014f2c <.LBB0_2>:
   14f2c:	0205e593          	or	a1,a1,32
   14f30:	00b52023          	sw	a1,0(a0)
   14f34:	fff00593          	li	a1,-1

0000000000014f38 <.LBB0_3>:
   14f38:	00058513          	mv	a0,a1
   14f3c:	00008067          	ret

0000000000014f40 <__towrite_needs_stdio_exit>:
   14f40:	0040006f          	j	14f44 <__stdio_exit>

0000000000014f44 <__stdio_exit>:
   14f44:	ff010113          	add	sp,sp,-16
   14f48:	00113423          	sd	ra,8(sp)
   14f4c:	00813023          	sd	s0,0(sp)
   14f50:	0cc000ef          	jal	1501c <__ofl_lock>
   14f54:	00053403          	ld	s0,0(a0)
   14f58:	00040a63          	beqz	s0,14f6c <.LBB0_2>

0000000000014f5c <.LBB0_1>:
   14f5c:	00040513          	mv	a0,s0
   14f60:	03c000ef          	jal	14f9c <close_file>
   14f64:	07043403          	ld	s0,112(s0)
   14f68:	fe041ae3          	bnez	s0,14f5c <.LBB0_1>

0000000000014f6c <.LBB0_2>:
   14f6c:	0001b537          	lui	a0,0x1b
   14f70:	99853503          	ld	a0,-1640(a0) # 1a998 <__stderr_used>
   14f74:	028000ef          	jal	14f9c <close_file>
   14f78:	0001b537          	lui	a0,0x1b
   14f7c:	85053503          	ld	a0,-1968(a0) # 1a850 <__stdout_used>
   14f80:	01c000ef          	jal	14f9c <close_file>
   14f84:	0001b537          	lui	a0,0x1b
   14f88:	99853503          	ld	a0,-1640(a0) # 1a998 <__stderr_used>
   14f8c:	00813083          	ld	ra,8(sp)
   14f90:	00013403          	ld	s0,0(sp)
   14f94:	01010113          	add	sp,sp,16
   14f98:	0040006f          	j	14f9c <close_file>

0000000000014f9c <close_file>:
   14f9c:	ff010113          	add	sp,sp,-16
   14fa0:	00113423          	sd	ra,8(sp)
   14fa4:	00813023          	sd	s0,0(sp)
   14fa8:	06050263          	beqz	a0,1500c <.LBB1_7>
   14fac:	00050413          	mv	s0,a0
   14fb0:	08c52503          	lw	a0,140(a0)
   14fb4:	00054663          	bltz	a0,14fc0 <.LBB1_3>
   14fb8:	00040513          	mv	a0,s0
   14fbc:	e35ff0ef          	jal	14df0 <__lockfile>

0000000000014fc0 <.LBB1_3>:
   14fc0:	02843503          	ld	a0,40(s0)
   14fc4:	03843583          	ld	a1,56(s0)
   14fc8:	00b50c63          	beq	a0,a1,14fe0 <.LBB1_5>
   14fcc:	04843683          	ld	a3,72(s0)
   14fd0:	00040513          	mv	a0,s0
   14fd4:	00000593          	li	a1,0
   14fd8:	00000613          	li	a2,0
   14fdc:	000680e7          	jalr	a3

0000000000014fe0 <.LBB1_5>:
   14fe0:	00843503          	ld	a0,8(s0)
   14fe4:	01043583          	ld	a1,16(s0)
   14fe8:	02b50263          	beq	a0,a1,1500c <.LBB1_7>
   14fec:	05043303          	ld	t1,80(s0)
   14ff0:	40b505b3          	sub	a1,a0,a1
   14ff4:	00100613          	li	a2,1
   14ff8:	00040513          	mv	a0,s0
   14ffc:	00813083          	ld	ra,8(sp)
   15000:	00013403          	ld	s0,0(sp)
   15004:	01010113          	add	sp,sp,16
   15008:	00030067          	jr	t1

000000000001500c <.LBB1_7>:
   1500c:	00813083          	ld	ra,8(sp)
   15010:	00013403          	ld	s0,0(sp)
   15014:	01010113          	add	sp,sp,16
   15018:	00008067          	ret

000000000001501c <__ofl_lock>:
   1501c:	ff010113          	add	sp,sp,-16
   15020:	00113423          	sd	ra,8(sp)
   15024:	0001b537          	lui	a0,0x1b
   15028:	9a050513          	add	a0,a0,-1632 # 1a9a0 <ofl_lock>
   1502c:	024000ef          	jal	15050 <__lock>
   15030:	0001b537          	lui	a0,0x1b
   15034:	9a850513          	add	a0,a0,-1624 # 1a9a8 <ofl_head>
   15038:	00813083          	ld	ra,8(sp)
   1503c:	01010113          	add	sp,sp,16
   15040:	00008067          	ret

0000000000015044 <__ofl_unlock>:
   15044:	0001b537          	lui	a0,0x1b
   15048:	9a050513          	add	a0,a0,-1632 # 1a9a0 <ofl_lock>
   1504c:	0c00006f          	j	1510c <__unlock>

0000000000015050 <__lock>:
   15050:	0001b5b7          	lui	a1,0x1b
   15054:	b545a583          	lw	a1,-1196(a1) # 1ab54 <__libc+0xc>
   15058:	0a058863          	beqz	a1,15108 <.LBB0_14>
   1505c:	00050713          	mv	a4,a0
   15060:	00052503          	lw	a0,0(a0)
   15064:	800007b7          	lui	a5,0x80000
   15068:	0017859b          	addw	a1,a5,1 # ffffffff80000001 <__global_pointer$+0xffffffff7ffe4fb9>
   1506c:	00b72023          	sw	a1,0(a4)
   15070:	08050c63          	beqz	a0,15108 <.LBB0_14>
   15074:	00a00593          	li	a1,10
   15078:	fff7879b          	addw	a5,a5,-1

000000000001507c <.LBB0_3>:
   1507c:	00055463          	bgez	a0,15084 <.LBB0_5>
   15080:	00f5053b          	addw	a0,a0,a5

0000000000015084 <.LBB0_5>:
   15084:	00050613          	mv	a2,a0
   15088:	00072503          	lw	a0,0(a4)
   1508c:	00c786b3          	add	a3,a5,a2
   15090:	0026869b          	addw	a3,a3,2
   15094:	00d72023          	sw	a3,0(a4)
   15098:	06c50863          	beq	a0,a2,15108 <.LBB0_14>
   1509c:	fff5859b          	addw	a1,a1,-1
   150a0:	fc059ee3          	bnez	a1,1507c <.LBB0_3>

00000000000150a4 <.LBB0_7>:
   150a4:	00072503          	lw	a0,0(a4)
   150a8:	00072583          	lw	a1,0(a4)
   150ac:	0015061b          	addw	a2,a0,1
   150b0:	00c72023          	sw	a2,0(a4)
   150b4:	fea598e3          	bne	a1,a0,150a4 <.LBB0_7>
   150b8:	fda00813          	li	a6,-38
   150bc:	800002b7          	lui	t0,0x80000

00000000000150c0 <.LBB0_9>:
   150c0:	02065a63          	bgez	a2,150f4 <.LBB0_13>
   150c4:	06200893          	li	a7,98
   150c8:	08000593          	li	a1,128
   150cc:	00070513          	mv	a0,a4
   150d0:	00000693          	li	a3,0
   150d4:	00000073          	ecall
   150d8:	01051c63          	bne	a0,a6,150f0 <.LBB0_12>
   150dc:	06200893          	li	a7,98
   150e0:	00070513          	mv	a0,a4
   150e4:	00000593          	li	a1,0
   150e8:	00000693          	li	a3,0
   150ec:	00000073          	ecall

00000000000150f0 <.LBB0_12>:
   150f0:	00f6063b          	addw	a2,a2,a5

00000000000150f4 <.LBB0_13>:
   150f4:	00060513          	mv	a0,a2
   150f8:	00072603          	lw	a2,0(a4)
   150fc:	005565b3          	or	a1,a0,t0
   15100:	00b72023          	sw	a1,0(a4)
   15104:	faa61ee3          	bne	a2,a0,150c0 <.LBB0_9>

0000000000015108 <.LBB0_14>:
   15108:	00008067          	ret

000000000001510c <__unlock>:
   1510c:	00050693          	mv	a3,a0
   15110:	00052503          	lw	a0,0(a0)
   15114:	00054463          	bltz	a0,1511c <.LBB1_2>

0000000000015118 <.LBB1_1>:
   15118:	00008067          	ret

000000000001511c <.LBB1_2>:
   1511c:	800005b7          	lui	a1,0x80000
   15120:	fff5859b          	addw	a1,a1,-1 # 7fffffff <__global_pointer$+0x7ffe4fb7>

0000000000015124 <.LBB1_3>:
   15124:	0006a503          	lw	a0,0(a3)
   15128:	0006a603          	lw	a2,0(a3)
   1512c:	00b50733          	add	a4,a0,a1
   15130:	00e6a023          	sw	a4,0(a3)
   15134:	fea618e3          	bne	a2,a0,15124 <.LBB1_3>
   15138:	800005b7          	lui	a1,0x80000
   1513c:	0015859b          	addw	a1,a1,1 # ffffffff80000001 <__global_pointer$+0xffffffff7ffe4fb9>
   15140:	fcb50ce3          	beq	a0,a1,15118 <.LBB1_1>
   15144:	06200893          	li	a7,98
   15148:	08100593          	li	a1,129
   1514c:	00100613          	li	a2,1
   15150:	fda00713          	li	a4,-38
   15154:	00068513          	mv	a0,a3
   15158:	00000073          	ecall
   1515c:	fae51ee3          	bne	a0,a4,15118 <.LBB1_1>
   15160:	06200893          	li	a7,98
   15164:	00100593          	li	a1,1
   15168:	00100613          	li	a2,1
   1516c:	00068513          	mv	a0,a3
   15170:	00000073          	ecall
   15174:	00008067          	ret

0000000000015178 <__fwritex>:
   15178:	fc010113          	add	sp,sp,-64
   1517c:	02113c23          	sd	ra,56(sp)
   15180:	02813823          	sd	s0,48(sp)
   15184:	02913423          	sd	s1,40(sp)
   15188:	03213023          	sd	s2,32(sp)
   1518c:	01313c23          	sd	s3,24(sp)
   15190:	01413823          	sd	s4,16(sp)
   15194:	01513423          	sd	s5,8(sp)
   15198:	00060413          	mv	s0,a2
   1519c:	02063603          	ld	a2,32(a2)
   151a0:	00058493          	mv	s1,a1
   151a4:	00050913          	mv	s2,a0
   151a8:	0a060663          	beqz	a2,15254 <.LBB0_9>

00000000000151ac <.LBB0_1>:
   151ac:	02843503          	ld	a0,40(s0)
   151b0:	40a60633          	sub	a2,a2,a0
   151b4:	02967c63          	bgeu	a2,s1,151ec <.LBB0_3>
   151b8:	04843303          	ld	t1,72(s0)
   151bc:	00040513          	mv	a0,s0
   151c0:	00090593          	mv	a1,s2
   151c4:	00048613          	mv	a2,s1
   151c8:	03813083          	ld	ra,56(sp)
   151cc:	03013403          	ld	s0,48(sp)
   151d0:	02813483          	ld	s1,40(sp)
   151d4:	02013903          	ld	s2,32(sp)
   151d8:	01813983          	ld	s3,24(sp)
   151dc:	01013a03          	ld	s4,16(sp)
   151e0:	00813a83          	ld	s5,8(sp)
   151e4:	04010113          	add	sp,sp,64
   151e8:	00030067          	jr	t1

00000000000151ec <.LBB0_3>:
   151ec:	09042583          	lw	a1,144(s0)
   151f0:	0605cc63          	bltz	a1,15268 <.LBB0_11>
   151f4:	00000593          	li	a1,0
   151f8:	00190a93          	add	s5,s2,1
   151fc:	fff90613          	add	a2,s2,-1
   15200:	fff00a13          	li	s4,-1
   15204:	00a00693          	li	a3,10

0000000000015208 <.LBB0_5>:
   15208:	06b48063          	beq	s1,a1,15268 <.LBB0_11>
   1520c:	00960733          	add	a4,a2,s1
   15210:	00074703          	lbu	a4,0(a4)
   15214:	001a0a13          	add	s4,s4,1
   15218:	fffa8a93          	add	s5,s5,-1
   1521c:	fff60613          	add	a2,a2,-1
   15220:	00158593          	add	a1,a1,1
   15224:	fed712e3          	bne	a4,a3,15208 <.LBB0_5>
   15228:	04843683          	ld	a3,72(s0)
   1522c:	414489b3          	sub	s3,s1,s4
   15230:	00040513          	mv	a0,s0
   15234:	00090593          	mv	a1,s2
   15238:	00098613          	mv	a2,s3
   1523c:	000680e7          	jalr	a3
   15240:	05356463          	bltu	a0,s3,15288 <.LBB0_13>
   15244:	02843503          	ld	a0,40(s0)
   15248:	009a8933          	add	s2,s5,s1
   1524c:	000a0493          	mv	s1,s4
   15250:	01c0006f          	j	1526c <.LBB0_12>

0000000000015254 <.LBB0_9>:
   15254:	00040513          	mv	a0,s0
   15258:	c91ff0ef          	jal	14ee8 <__towrite>
   1525c:	04050863          	beqz	a0,152ac <.LBB0_14>
   15260:	00000513          	li	a0,0
   15264:	0240006f          	j	15288 <.LBB0_13>

0000000000015268 <.LBB0_11>:
   15268:	00000993          	li	s3,0

000000000001526c <.LBB0_12>:
   1526c:	00090593          	mv	a1,s2
   15270:	00048613          	mv	a2,s1
   15274:	8bcfd0ef          	jal	12330 <memcpy>
   15278:	02843503          	ld	a0,40(s0)
   1527c:	00950533          	add	a0,a0,s1
   15280:	02a43423          	sd	a0,40(s0)
   15284:	00998533          	add	a0,s3,s1

0000000000015288 <.LBB0_13>:
   15288:	03813083          	ld	ra,56(sp)
   1528c:	03013403          	ld	s0,48(sp)
   15290:	02813483          	ld	s1,40(sp)
   15294:	02013903          	ld	s2,32(sp)
   15298:	01813983          	ld	s3,24(sp)
   1529c:	01013a03          	ld	s4,16(sp)
   152a0:	00813a83          	ld	s5,8(sp)
   152a4:	04010113          	add	sp,sp,64
   152a8:	00008067          	ret

00000000000152ac <.LBB0_14>:
   152ac:	02043603          	ld	a2,32(s0)
   152b0:	efdff06f          	j	151ac <.LBB0_1>

00000000000152b4 <fwrite>:
   152b4:	fc010113          	add	sp,sp,-64
   152b8:	02113c23          	sd	ra,56(sp)
   152bc:	02813823          	sd	s0,48(sp)
   152c0:	02913423          	sd	s1,40(sp)
   152c4:	03213023          	sd	s2,32(sp)
   152c8:	01313c23          	sd	s3,24(sp)
   152cc:	01413823          	sd	s4,16(sp)
   152d0:	01513423          	sd	s5,8(sp)
   152d4:	00068993          	mv	s3,a3
   152d8:	00060493          	mv	s1,a2
   152dc:	00058413          	mv	s0,a1
   152e0:	00050a13          	mv	s4,a0
   152e4:	00060513          	mv	a0,a2
   152e8:	d94fd0ef          	jal	1287c <__muldi3>
   152ec:	08c9a583          	lw	a1,140(s3)
   152f0:	00050913          	mv	s2,a0
   152f4:	0405c263          	bltz	a1,15338 <.LBB1_5>
   152f8:	00098513          	mv	a0,s3
   152fc:	af5ff0ef          	jal	14df0 <__lockfile>
   15300:	00050a93          	mv	s5,a0
   15304:	000a0513          	mv	a0,s4
   15308:	00090593          	mv	a1,s2
   1530c:	00098613          	mv	a2,s3
   15310:	e69ff0ef          	jal	15178 <__fwritex>
   15314:	00050a13          	mv	s4,a0
   15318:	000a8663          	beqz	s5,15324 <.LBB1_3>
   1531c:	00098513          	mv	a0,s3
   15320:	b79ff0ef          	jal	14e98 <__unlockfile>

0000000000015324 <.LBB1_3>:
   15324:	032a1663          	bne	s4,s2,15350 <.LBB1_6>

0000000000015328 <.LBB1_4>:
   15328:	00143513          	seqz	a0,s0
   1532c:	fff50513          	add	a0,a0,-1
   15330:	00957533          	and	a0,a0,s1
   15334:	0280006f          	j	1535c <.LBB1_7>

0000000000015338 <.LBB1_5>:
   15338:	000a0513          	mv	a0,s4
   1533c:	00090593          	mv	a1,s2
   15340:	00098613          	mv	a2,s3
   15344:	e35ff0ef          	jal	15178 <__fwritex>
   15348:	00050a13          	mv	s4,a0
   1534c:	fd2a0ee3          	beq	s4,s2,15328 <.LBB1_4>

0000000000015350 <.LBB1_6>:
   15350:	000a0513          	mv	a0,s4
   15354:	00040593          	mv	a1,s0
   15358:	028000ef          	jal	15380 <__udivdi3>

000000000001535c <.LBB1_7>:
   1535c:	03813083          	ld	ra,56(sp)
   15360:	03013403          	ld	s0,48(sp)
   15364:	02813483          	ld	s1,40(sp)
   15368:	02013903          	ld	s2,32(sp)
   1536c:	01813983          	ld	s3,24(sp)
   15370:	01013a03          	ld	s4,16(sp)
   15374:	00813a83          	ld	s5,8(sp)
   15378:	04010113          	add	sp,sp,64
   1537c:	00008067          	ret

0000000000015380 <__udivdi3>:
   15380:	fe010113          	add	sp,sp,-32
   15384:	00113c23          	sd	ra,24(sp)
   15388:	00813823          	sd	s0,16(sp)
   1538c:	02010413          	add	s0,sp,32
   15390:	fea43423          	sd	a0,-24(s0)
   15394:	feb43023          	sd	a1,-32(s0)
   15398:	fe843503          	ld	a0,-24(s0)
   1539c:	fe043583          	ld	a1,-32(s0)
   153a0:	00000613          	li	a2,0
   153a4:	014000ef          	jal	153b8 <__udivmoddi4>
   153a8:	01813083          	ld	ra,24(sp)
   153ac:	01013403          	ld	s0,16(sp)
   153b0:	02010113          	add	sp,sp,32
   153b4:	00008067          	ret

00000000000153b8 <__udivmoddi4>:
   153b8:	f1010113          	add	sp,sp,-240
   153bc:	0e113423          	sd	ra,232(sp)
   153c0:	0e813023          	sd	s0,224(sp)
   153c4:	0f010413          	add	s0,sp,240
   153c8:	fea43023          	sd	a0,-32(s0)
   153cc:	fcb43c23          	sd	a1,-40(s0)
   153d0:	fcc43823          	sd	a2,-48(s0)
   153d4:	02000513          	li	a0,32
   153d8:	fca42623          	sw	a0,-52(s0)
   153dc:	04000513          	li	a0,64
   153e0:	fca42423          	sw	a0,-56(s0)
   153e4:	fe043503          	ld	a0,-32(s0)
   153e8:	fca43023          	sd	a0,-64(s0)
   153ec:	fd843503          	ld	a0,-40(s0)
   153f0:	faa43c23          	sd	a0,-72(s0)
   153f4:	fc442503          	lw	a0,-60(s0)
   153f8:	06051a63          	bnez	a0,1546c <.LBB0_8>
   153fc:	0040006f          	j	15400 <.LBB0_1>

0000000000015400 <.LBB0_1>:
   15400:	fbc42503          	lw	a0,-68(s0)
   15404:	04051063          	bnez	a0,15444 <.LBB0_5>
   15408:	0040006f          	j	1540c <.LBB0_2>

000000000001540c <.LBB0_2>:
   1540c:	fd043503          	ld	a0,-48(s0)
   15410:	02050063          	beqz	a0,15430 <.LBB0_4>
   15414:	0040006f          	j	15418 <.LBB0_3>

0000000000015418 <.LBB0_3>:
   15418:	fc046503          	lwu	a0,-64(s0)
   1541c:	fb846583          	lwu	a1,-72(s0)
   15420:	0fd000ef          	jal	15d1c <__umoddi3>
   15424:	fd043583          	ld	a1,-48(s0)
   15428:	00a5b023          	sd	a0,0(a1)
   1542c:	0040006f          	j	15430 <.LBB0_4>

0000000000015430 <.LBB0_4>:
   15430:	fc046503          	lwu	a0,-64(s0)
   15434:	fb846583          	lwu	a1,-72(s0)
   15438:	f49ff0ef          	jal	15380 <__udivdi3>
   1543c:	fea43423          	sd	a0,-24(s0)
   15440:	0c90006f          	j	15d08 <.LBB0_56>

0000000000015444 <.LBB0_5>:
   15444:	fd043503          	ld	a0,-48(s0)
   15448:	00050c63          	beqz	a0,15460 <.LBB0_7>
   1544c:	0040006f          	j	15450 <.LBB0_6>

0000000000015450 <.LBB0_6>:
   15450:	fc046503          	lwu	a0,-64(s0)
   15454:	fd043583          	ld	a1,-48(s0)
   15458:	00a5b023          	sd	a0,0(a1)
   1545c:	0040006f          	j	15460 <.LBB0_7>

0000000000015460 <.LBB0_7>:
   15460:	00000513          	li	a0,0
   15464:	fea43423          	sd	a0,-24(s0)
   15468:	0a10006f          	j	15d08 <.LBB0_56>

000000000001546c <.LBB0_8>:
   1546c:	fb842503          	lw	a0,-72(s0)
   15470:	2e051463          	bnez	a0,15758 <.LBB0_26>
   15474:	0040006f          	j	15478 <.LBB0_9>

0000000000015478 <.LBB0_9>:
   15478:	fbc42503          	lw	a0,-68(s0)
   1547c:	04051063          	bnez	a0,154bc <.LBB0_13>
   15480:	0040006f          	j	15484 <.LBB0_10>

0000000000015484 <.LBB0_10>:
   15484:	fd043503          	ld	a0,-48(s0)
   15488:	02050063          	beqz	a0,154a8 <.LBB0_12>
   1548c:	0040006f          	j	15490 <.LBB0_11>

0000000000015490 <.LBB0_11>:
   15490:	fc446503          	lwu	a0,-60(s0)
   15494:	fb846583          	lwu	a1,-72(s0)
   15498:	085000ef          	jal	15d1c <__umoddi3>
   1549c:	fd043583          	ld	a1,-48(s0)
   154a0:	00a5b023          	sd	a0,0(a1)
   154a4:	0040006f          	j	154a8 <.LBB0_12>

00000000000154a8 <.LBB0_12>:
   154a8:	fc446503          	lwu	a0,-60(s0)
   154ac:	fb846583          	lwu	a1,-72(s0)
   154b0:	ed1ff0ef          	jal	15380 <__udivdi3>
   154b4:	fea43423          	sd	a0,-24(s0)
   154b8:	0510006f          	j	15d08 <.LBB0_56>

00000000000154bc <.LBB0_13>:
   154bc:	fc042503          	lw	a0,-64(s0)
   154c0:	04051863          	bnez	a0,15510 <.LBB0_17>
   154c4:	0040006f          	j	154c8 <.LBB0_14>

00000000000154c8 <.LBB0_14>:
   154c8:	fd043503          	ld	a0,-48(s0)
   154cc:	02050863          	beqz	a0,154fc <.LBB0_16>
   154d0:	0040006f          	j	154d4 <.LBB0_15>

00000000000154d4 <.LBB0_15>:
   154d4:	fc446503          	lwu	a0,-60(s0)
   154d8:	fbc46583          	lwu	a1,-68(s0)
   154dc:	041000ef          	jal	15d1c <__umoddi3>
   154e0:	faa42623          	sw	a0,-84(s0)
   154e4:	00000513          	li	a0,0
   154e8:	faa42423          	sw	a0,-88(s0)
   154ec:	fa843503          	ld	a0,-88(s0)
   154f0:	fd043583          	ld	a1,-48(s0)
   154f4:	00a5b023          	sd	a0,0(a1)
   154f8:	0040006f          	j	154fc <.LBB0_16>

00000000000154fc <.LBB0_16>:
   154fc:	fc446503          	lwu	a0,-60(s0)
   15500:	fbc46583          	lwu	a1,-68(s0)
   15504:	e7dff0ef          	jal	15380 <__udivdi3>
   15508:	fea43423          	sd	a0,-24(s0)
   1550c:	7fc0006f          	j	15d08 <.LBB0_56>

0000000000015510 <.LBB0_17>:
   15510:	fbc42503          	lw	a0,-68(s0)
   15514:	fff5059b          	addw	a1,a0,-1
   15518:	00b57533          	and	a0,a0,a1
   1551c:	08051a63          	bnez	a0,155b0 <.LBB0_21>
   15520:	0040006f          	j	15524 <.LBB0_18>

0000000000015524 <.LBB0_18>:
   15524:	fd043503          	ld	a0,-48(s0)
   15528:	02050a63          	beqz	a0,1555c <.LBB0_20>
   1552c:	0040006f          	j	15530 <.LBB0_19>

0000000000015530 <.LBB0_19>:
   15530:	fc042503          	lw	a0,-64(s0)
   15534:	faa42423          	sw	a0,-88(s0)
   15538:	fc442503          	lw	a0,-60(s0)
   1553c:	fbc42583          	lw	a1,-68(s0)
   15540:	fff5859b          	addw	a1,a1,-1
   15544:	00b57533          	and	a0,a0,a1
   15548:	faa42623          	sw	a0,-84(s0)
   1554c:	fa843503          	ld	a0,-88(s0)
   15550:	fd043583          	ld	a1,-48(s0)
   15554:	00a5b023          	sd	a0,0(a1)
   15558:	0040006f          	j	1555c <.LBB0_20>

000000000001555c <.LBB0_20>:
   1555c:	fc442503          	lw	a0,-60(s0)
   15560:	f8a43823          	sd	a0,-112(s0)
   15564:	fbc42503          	lw	a0,-68(s0)
   15568:	00000593          	li	a1,0
   1556c:	40a585b3          	sub	a1,a1,a0
   15570:	00b57533          	and	a0,a0,a1
   15574:	077cb5b7          	lui	a1,0x77cb
   15578:	5315859b          	addw	a1,a1,1329 # 77cb531 <__global_pointer$+0x77b04e9>
   1557c:	b00fd0ef          	jal	1287c <__muldi3>
   15580:	00050593          	mv	a1,a0
   15584:	f9043503          	ld	a0,-112(s0)
   15588:	01b5d61b          	srlw	a2,a1,0x1b

000000000001558c <.Lpcrel_hi0>:
   1558c:	ffffb597          	auipc	a1,0xffffb
   15590:	f8458593          	add	a1,a1,-124 # 10510 <xdigits+0x10>
   15594:	00c585b3          	add	a1,a1,a2
   15598:	0005c583          	lbu	a1,0(a1)
   1559c:	00b5553b          	srlw	a0,a0,a1
   155a0:	02051513          	sll	a0,a0,0x20
   155a4:	02055513          	srl	a0,a0,0x20
   155a8:	fea43423          	sd	a0,-24(s0)
   155ac:	75c0006f          	j	15d08 <.LBB0_56>

00000000000155b0 <.LBB0_21>:
   155b0:	fbc42503          	lw	a0,-68(s0)
   155b4:	0015559b          	srlw	a1,a0,0x1
   155b8:	00b56533          	or	a0,a0,a1
   155bc:	0025559b          	srlw	a1,a0,0x2
   155c0:	00b56533          	or	a0,a0,a1
   155c4:	0045559b          	srlw	a1,a0,0x4
   155c8:	00b56533          	or	a0,a0,a1
   155cc:	0085559b          	srlw	a1,a0,0x8
   155d0:	00b56533          	or	a0,a0,a1
   155d4:	0105559b          	srlw	a1,a0,0x10
   155d8:	00b56533          	or	a0,a0,a1
   155dc:	fff54513          	not	a0,a0
   155e0:	00155593          	srl	a1,a0,0x1
   155e4:	55555637          	lui	a2,0x55555
   155e8:	5556061b          	addw	a2,a2,1365 # 55555555 <__global_pointer$+0x5553a50d>
   155ec:	f6c43423          	sd	a2,-152(s0)
   155f0:	00c5f5b3          	and	a1,a1,a2
   155f4:	40b505b3          	sub	a1,a0,a1
   155f8:	33333537          	lui	a0,0x33333
   155fc:	3335061b          	addw	a2,a0,819 # 33333333 <__global_pointer$+0x333182eb>
   15600:	f6c43823          	sd	a2,-144(s0)
   15604:	00c5f533          	and	a0,a1,a2
   15608:	0025d593          	srl	a1,a1,0x2
   1560c:	00c5f5b3          	and	a1,a1,a2
   15610:	00b50533          	add	a0,a0,a1
   15614:	00455593          	srl	a1,a0,0x4
   15618:	00b50533          	add	a0,a0,a1
   1561c:	0f0f15b7          	lui	a1,0xf0f1
   15620:	f0f5859b          	addw	a1,a1,-241 # f0f0f0f <__global_pointer$+0xf0d5ec7>
   15624:	f6b43c23          	sd	a1,-136(s0)
   15628:	00b57533          	and	a0,a0,a1
   1562c:	010105b7          	lui	a1,0x1010
   15630:	1015859b          	addw	a1,a1,257 # 1010101 <__global_pointer$+0xff50b9>
   15634:	f8b43023          	sd	a1,-128(s0)
   15638:	a44fd0ef          	jal	1287c <__muldi3>
   1563c:	f6843783          	ld	a5,-152(s0)
   15640:	f7043703          	ld	a4,-144(s0)
   15644:	f7843603          	ld	a2,-136(s0)
   15648:	f8043583          	ld	a1,-128(s0)
   1564c:	0185551b          	srlw	a0,a0,0x18
   15650:	f8a43423          	sd	a0,-120(s0)
   15654:	fc442503          	lw	a0,-60(s0)
   15658:	0015569b          	srlw	a3,a0,0x1
   1565c:	00d56533          	or	a0,a0,a3
   15660:	0025569b          	srlw	a3,a0,0x2
   15664:	00d56533          	or	a0,a0,a3
   15668:	0045569b          	srlw	a3,a0,0x4
   1566c:	00d56533          	or	a0,a0,a3
   15670:	0085569b          	srlw	a3,a0,0x8
   15674:	00d56533          	or	a0,a0,a3
   15678:	0105569b          	srlw	a3,a0,0x10
   1567c:	00d56533          	or	a0,a0,a3
   15680:	fff54513          	not	a0,a0
   15684:	00155693          	srl	a3,a0,0x1
   15688:	00f6f6b3          	and	a3,a3,a5
   1568c:	40d506b3          	sub	a3,a0,a3
   15690:	00e6f533          	and	a0,a3,a4
   15694:	0026d693          	srl	a3,a3,0x2
   15698:	00e6f6b3          	and	a3,a3,a4
   1569c:	00d50533          	add	a0,a0,a3
   156a0:	00455693          	srl	a3,a0,0x4
   156a4:	00d50533          	add	a0,a0,a3
   156a8:	00c57533          	and	a0,a0,a2
   156ac:	9d0fd0ef          	jal	1287c <__muldi3>
   156b0:	00050593          	mv	a1,a0
   156b4:	f8843503          	ld	a0,-120(s0)
   156b8:	0185d59b          	srlw	a1,a1,0x18
   156bc:	40b5053b          	subw	a0,a0,a1
   156c0:	faa42223          	sw	a0,-92(s0)
   156c4:	fa442503          	lw	a0,-92(s0)
   156c8:	01f00593          	li	a1,31
   156cc:	02b56863          	bltu	a0,a1,156fc <.LBB0_25>
   156d0:	0040006f          	j	156d4 <.LBB0_22>

00000000000156d4 <.LBB0_22>:
   156d4:	fd043503          	ld	a0,-48(s0)
   156d8:	00050c63          	beqz	a0,156f0 <.LBB0_24>
   156dc:	0040006f          	j	156e0 <.LBB0_23>

00000000000156e0 <.LBB0_23>:
   156e0:	fc043503          	ld	a0,-64(s0)
   156e4:	fd043583          	ld	a1,-48(s0)
   156e8:	00a5b023          	sd	a0,0(a1)
   156ec:	0040006f          	j	156f0 <.LBB0_24>

00000000000156f0 <.LBB0_24>:
   156f0:	00000513          	li	a0,0
   156f4:	fea43423          	sd	a0,-24(s0)
   156f8:	6100006f          	j	15d08 <.LBB0_56>

00000000000156fc <.LBB0_25>:
   156fc:	fa442503          	lw	a0,-92(s0)
   15700:	0015051b          	addw	a0,a0,1
   15704:	faa42223          	sw	a0,-92(s0)
   15708:	00000513          	li	a0,0
   1570c:	faa42823          	sw	a0,-80(s0)
   15710:	fc042503          	lw	a0,-64(s0)
   15714:	fa442583          	lw	a1,-92(s0)
   15718:	40b005bb          	negw	a1,a1
   1571c:	00b5153b          	sllw	a0,a0,a1
   15720:	faa42a23          	sw	a0,-76(s0)
   15724:	fc442503          	lw	a0,-60(s0)
   15728:	fa446583          	lwu	a1,-92(s0)
   1572c:	00b5553b          	srlw	a0,a0,a1
   15730:	faa42623          	sw	a0,-84(s0)
   15734:	fc442503          	lw	a0,-60(s0)
   15738:	fa446603          	lwu	a2,-92(s0)
   1573c:	40c005bb          	negw	a1,a2
   15740:	00b5153b          	sllw	a0,a0,a1
   15744:	fc042583          	lw	a1,-64(s0)
   15748:	00c5d5bb          	srlw	a1,a1,a2
   1574c:	00b56533          	or	a0,a0,a1
   15750:	faa42423          	sw	a0,-88(s0)
   15754:	4b40006f          	j	15c08 <.LBB0_49>

0000000000015758 <.LBB0_26>:
   15758:	fbc42503          	lw	a0,-68(s0)
   1575c:	2c051863          	bnez	a0,15a2c <.LBB0_40>
   15760:	0040006f          	j	15764 <.LBB0_27>

0000000000015764 <.LBB0_27>:
   15764:	fb842503          	lw	a0,-72(s0)
   15768:	fff5059b          	addw	a1,a0,-1
   1576c:	00b57533          	and	a0,a0,a1
   15770:	0a051e63          	bnez	a0,1582c <.LBB0_33>
   15774:	0040006f          	j	15778 <.LBB0_28>

0000000000015778 <.LBB0_28>:
   15778:	fd043503          	ld	a0,-48(s0)
   1577c:	02050263          	beqz	a0,157a0 <.LBB0_30>
   15780:	0040006f          	j	15784 <.LBB0_29>

0000000000015784 <.LBB0_29>:
   15784:	fc046583          	lwu	a1,-64(s0)
   15788:	fb842503          	lw	a0,-72(s0)
   1578c:	fff50513          	add	a0,a0,-1
   15790:	00b57533          	and	a0,a0,a1
   15794:	fd043583          	ld	a1,-48(s0)
   15798:	00a5b023          	sd	a0,0(a1)
   1579c:	0040006f          	j	157a0 <.LBB0_30>

00000000000157a0 <.LBB0_30>:
   157a0:	fb842503          	lw	a0,-72(s0)
   157a4:	00100593          	li	a1,1
   157a8:	00b51a63          	bne	a0,a1,157bc <.LBB0_32>
   157ac:	0040006f          	j	157b0 <.LBB0_31>

00000000000157b0 <.LBB0_31>:
   157b0:	fc043503          	ld	a0,-64(s0)
   157b4:	fea43423          	sd	a0,-24(s0)
   157b8:	5500006f          	j	15d08 <.LBB0_56>

00000000000157bc <.LBB0_32>:
   157bc:	fb842503          	lw	a0,-72(s0)
   157c0:	00000593          	li	a1,0
   157c4:	40a585b3          	sub	a1,a1,a0
   157c8:	00b57533          	and	a0,a0,a1
   157cc:	077cb5b7          	lui	a1,0x77cb
   157d0:	5315859b          	addw	a1,a1,1329 # 77cb531 <__global_pointer$+0x77b04e9>
   157d4:	8a8fd0ef          	jal	1287c <__muldi3>
   157d8:	01b5559b          	srlw	a1,a0,0x1b

00000000000157dc <.Lpcrel_hi1>:
   157dc:	ffffb517          	auipc	a0,0xffffb
   157e0:	d3450513          	add	a0,a0,-716 # 10510 <xdigits+0x10>
   157e4:	00b50533          	add	a0,a0,a1
   157e8:	00054503          	lbu	a0,0(a0)
   157ec:	faa42223          	sw	a0,-92(s0)
   157f0:	fc442503          	lw	a0,-60(s0)
   157f4:	fa446583          	lwu	a1,-92(s0)
   157f8:	00b5553b          	srlw	a0,a0,a1
   157fc:	faa42a23          	sw	a0,-76(s0)
   15800:	fc442503          	lw	a0,-60(s0)
   15804:	fa446603          	lwu	a2,-92(s0)
   15808:	40c005bb          	negw	a1,a2
   1580c:	00b5153b          	sllw	a0,a0,a1
   15810:	fc042583          	lw	a1,-64(s0)
   15814:	00c5d5bb          	srlw	a1,a1,a2
   15818:	00b56533          	or	a0,a0,a1
   1581c:	faa42823          	sw	a0,-80(s0)
   15820:	fb043503          	ld	a0,-80(s0)
   15824:	fea43423          	sd	a0,-24(s0)
   15828:	4e00006f          	j	15d08 <.LBB0_56>

000000000001582c <.LBB0_33>:
   1582c:	fb842503          	lw	a0,-72(s0)
   15830:	0015559b          	srlw	a1,a0,0x1
   15834:	00b56533          	or	a0,a0,a1
   15838:	0025559b          	srlw	a1,a0,0x2
   1583c:	00b56533          	or	a0,a0,a1
   15840:	0045559b          	srlw	a1,a0,0x4
   15844:	00b56533          	or	a0,a0,a1
   15848:	0085559b          	srlw	a1,a0,0x8
   1584c:	00b56533          	or	a0,a0,a1
   15850:	0105559b          	srlw	a1,a0,0x10
   15854:	00b56533          	or	a0,a0,a1
   15858:	fff54513          	not	a0,a0
   1585c:	00155593          	srl	a1,a0,0x1
   15860:	55555637          	lui	a2,0x55555
   15864:	5556061b          	addw	a2,a2,1365 # 55555555 <__global_pointer$+0x5553a50d>
   15868:	f4c43023          	sd	a2,-192(s0)
   1586c:	00c5f5b3          	and	a1,a1,a2
   15870:	40b505b3          	sub	a1,a0,a1
   15874:	33333537          	lui	a0,0x33333
   15878:	3335061b          	addw	a2,a0,819 # 33333333 <__global_pointer$+0x333182eb>
   1587c:	f4c43423          	sd	a2,-184(s0)
   15880:	00c5f533          	and	a0,a1,a2
   15884:	0025d593          	srl	a1,a1,0x2
   15888:	00c5f5b3          	and	a1,a1,a2
   1588c:	00b50533          	add	a0,a0,a1
   15890:	00455593          	srl	a1,a0,0x4
   15894:	00b50533          	add	a0,a0,a1
   15898:	0f0f15b7          	lui	a1,0xf0f1
   1589c:	f0f5859b          	addw	a1,a1,-241 # f0f0f0f <__global_pointer$+0xf0d5ec7>
   158a0:	f4b43823          	sd	a1,-176(s0)
   158a4:	00b57533          	and	a0,a0,a1
   158a8:	010105b7          	lui	a1,0x1010
   158ac:	1015859b          	addw	a1,a1,257 # 1010101 <__global_pointer$+0xff50b9>
   158b0:	f4b43c23          	sd	a1,-168(s0)
   158b4:	fc9fc0ef          	jal	1287c <__muldi3>
   158b8:	f4043783          	ld	a5,-192(s0)
   158bc:	f4843703          	ld	a4,-184(s0)
   158c0:	f5043603          	ld	a2,-176(s0)
   158c4:	f5843583          	ld	a1,-168(s0)
   158c8:	0185551b          	srlw	a0,a0,0x18
   158cc:	f6a43023          	sd	a0,-160(s0)
   158d0:	fc442503          	lw	a0,-60(s0)
   158d4:	0015569b          	srlw	a3,a0,0x1
   158d8:	00d56533          	or	a0,a0,a3
   158dc:	0025569b          	srlw	a3,a0,0x2
   158e0:	00d56533          	or	a0,a0,a3
   158e4:	0045569b          	srlw	a3,a0,0x4
   158e8:	00d56533          	or	a0,a0,a3
   158ec:	0085569b          	srlw	a3,a0,0x8
   158f0:	00d56533          	or	a0,a0,a3
   158f4:	0105569b          	srlw	a3,a0,0x10
   158f8:	00d56533          	or	a0,a0,a3
   158fc:	fff54513          	not	a0,a0
   15900:	00155693          	srl	a3,a0,0x1
   15904:	00f6f6b3          	and	a3,a3,a5
   15908:	40d506b3          	sub	a3,a0,a3
   1590c:	00e6f533          	and	a0,a3,a4
   15910:	0026d693          	srl	a3,a3,0x2
   15914:	00e6f6b3          	and	a3,a3,a4
   15918:	00d50533          	add	a0,a0,a3
   1591c:	00455693          	srl	a3,a0,0x4
   15920:	00d50533          	add	a0,a0,a3
   15924:	00c57533          	and	a0,a0,a2
   15928:	f55fc0ef          	jal	1287c <__muldi3>
   1592c:	00050593          	mv	a1,a0
   15930:	f6043503          	ld	a0,-160(s0)
   15934:	0185d59b          	srlw	a1,a1,0x18
   15938:	40b5053b          	subw	a0,a0,a1
   1593c:	0215051b          	addw	a0,a0,33
   15940:	faa42223          	sw	a0,-92(s0)
   15944:	fa442503          	lw	a0,-92(s0)
   15948:	02000593          	li	a1,32
   1594c:	02b51463          	bne	a0,a1,15974 <.LBB0_35>
   15950:	0040006f          	j	15954 <.LBB0_34>

0000000000015954 <.LBB0_34>:
   15954:	00000513          	li	a0,0
   15958:	faa42823          	sw	a0,-80(s0)
   1595c:	fc042583          	lw	a1,-64(s0)
   15960:	fab42a23          	sw	a1,-76(s0)
   15964:	faa42623          	sw	a0,-84(s0)
   15968:	fc442503          	lw	a0,-60(s0)
   1596c:	faa42423          	sw	a0,-88(s0)
   15970:	0b80006f          	j	15a28 <.LBB0_39>

0000000000015974 <.LBB0_35>:
   15974:	fa442583          	lw	a1,-92(s0)
   15978:	01f00513          	li	a0,31
   1597c:	04b56c63          	bltu	a0,a1,159d4 <.LBB0_37>
   15980:	0040006f          	j	15984 <.LBB0_36>

0000000000015984 <.LBB0_36>:
   15984:	00000513          	li	a0,0
   15988:	faa42823          	sw	a0,-80(s0)
   1598c:	fc042503          	lw	a0,-64(s0)
   15990:	fa442583          	lw	a1,-92(s0)
   15994:	40b005bb          	negw	a1,a1
   15998:	00b5153b          	sllw	a0,a0,a1
   1599c:	faa42a23          	sw	a0,-76(s0)
   159a0:	fc442503          	lw	a0,-60(s0)
   159a4:	fa446583          	lwu	a1,-92(s0)
   159a8:	00b5553b          	srlw	a0,a0,a1
   159ac:	faa42623          	sw	a0,-84(s0)
   159b0:	fc442503          	lw	a0,-60(s0)
   159b4:	fa446603          	lwu	a2,-92(s0)
   159b8:	40c005bb          	negw	a1,a2
   159bc:	00b5153b          	sllw	a0,a0,a1
   159c0:	fc042583          	lw	a1,-64(s0)
   159c4:	00c5d5bb          	srlw	a1,a1,a2
   159c8:	00b56533          	or	a0,a0,a1
   159cc:	faa42423          	sw	a0,-88(s0)
   159d0:	0540006f          	j	15a24 <.LBB0_38>

00000000000159d4 <.LBB0_37>:
   159d4:	fc042503          	lw	a0,-64(s0)
   159d8:	fa442583          	lw	a1,-92(s0)
   159dc:	40b005bb          	negw	a1,a1
   159e0:	00b5153b          	sllw	a0,a0,a1
   159e4:	faa42823          	sw	a0,-80(s0)
   159e8:	fc442503          	lw	a0,-60(s0)
   159ec:	fa442603          	lw	a2,-92(s0)
   159f0:	40c005bb          	negw	a1,a2
   159f4:	00b5153b          	sllw	a0,a0,a1
   159f8:	fc042583          	lw	a1,-64(s0)
   159fc:	00c5d5bb          	srlw	a1,a1,a2
   15a00:	00b56533          	or	a0,a0,a1
   15a04:	faa42a23          	sw	a0,-76(s0)
   15a08:	00000513          	li	a0,0
   15a0c:	faa42623          	sw	a0,-84(s0)
   15a10:	fc442503          	lw	a0,-60(s0)
   15a14:	fa442583          	lw	a1,-92(s0)
   15a18:	00b5553b          	srlw	a0,a0,a1
   15a1c:	faa42423          	sw	a0,-88(s0)
   15a20:	0040006f          	j	15a24 <.LBB0_38>

0000000000015a24 <.LBB0_38>:
   15a24:	0040006f          	j	15a28 <.LBB0_39>

0000000000015a28 <.LBB0_39>:
   15a28:	1dc0006f          	j	15c04 <.LBB0_48>

0000000000015a2c <.LBB0_40>:
   15a2c:	fbc42503          	lw	a0,-68(s0)
   15a30:	0015559b          	srlw	a1,a0,0x1
   15a34:	00b56533          	or	a0,a0,a1
   15a38:	0025559b          	srlw	a1,a0,0x2
   15a3c:	00b56533          	or	a0,a0,a1
   15a40:	0045559b          	srlw	a1,a0,0x4
   15a44:	00b56533          	or	a0,a0,a1
   15a48:	0085559b          	srlw	a1,a0,0x8
   15a4c:	00b56533          	or	a0,a0,a1
   15a50:	0105559b          	srlw	a1,a0,0x10
   15a54:	00b56533          	or	a0,a0,a1
   15a58:	fff54513          	not	a0,a0
   15a5c:	00155593          	srl	a1,a0,0x1
   15a60:	55555637          	lui	a2,0x55555
   15a64:	5556061b          	addw	a2,a2,1365 # 55555555 <__global_pointer$+0x5553a50d>
   15a68:	f0c43c23          	sd	a2,-232(s0)
   15a6c:	00c5f5b3          	and	a1,a1,a2
   15a70:	40b505b3          	sub	a1,a0,a1
   15a74:	33333537          	lui	a0,0x33333
   15a78:	3335061b          	addw	a2,a0,819 # 33333333 <__global_pointer$+0x333182eb>
   15a7c:	f2c43023          	sd	a2,-224(s0)
   15a80:	00c5f533          	and	a0,a1,a2
   15a84:	0025d593          	srl	a1,a1,0x2
   15a88:	00c5f5b3          	and	a1,a1,a2
   15a8c:	00b50533          	add	a0,a0,a1
   15a90:	00455593          	srl	a1,a0,0x4
   15a94:	00b50533          	add	a0,a0,a1
   15a98:	0f0f15b7          	lui	a1,0xf0f1
   15a9c:	f0f5859b          	addw	a1,a1,-241 # f0f0f0f <__global_pointer$+0xf0d5ec7>
   15aa0:	f2b43423          	sd	a1,-216(s0)
   15aa4:	00b57533          	and	a0,a0,a1
   15aa8:	010105b7          	lui	a1,0x1010
   15aac:	1015859b          	addw	a1,a1,257 # 1010101 <__global_pointer$+0xff50b9>
   15ab0:	f2b43823          	sd	a1,-208(s0)
   15ab4:	dc9fc0ef          	jal	1287c <__muldi3>
   15ab8:	f1843783          	ld	a5,-232(s0)
   15abc:	f2043703          	ld	a4,-224(s0)
   15ac0:	f2843603          	ld	a2,-216(s0)
   15ac4:	f3043583          	ld	a1,-208(s0)
   15ac8:	0185551b          	srlw	a0,a0,0x18
   15acc:	f2a43c23          	sd	a0,-200(s0)
   15ad0:	fc442503          	lw	a0,-60(s0)
   15ad4:	0015569b          	srlw	a3,a0,0x1
   15ad8:	00d56533          	or	a0,a0,a3
   15adc:	0025569b          	srlw	a3,a0,0x2
   15ae0:	00d56533          	or	a0,a0,a3
   15ae4:	0045569b          	srlw	a3,a0,0x4
   15ae8:	00d56533          	or	a0,a0,a3
   15aec:	0085569b          	srlw	a3,a0,0x8
   15af0:	00d56533          	or	a0,a0,a3
   15af4:	0105569b          	srlw	a3,a0,0x10
   15af8:	00d56533          	or	a0,a0,a3
   15afc:	fff54513          	not	a0,a0
   15b00:	00155693          	srl	a3,a0,0x1
   15b04:	00f6f6b3          	and	a3,a3,a5
   15b08:	40d506b3          	sub	a3,a0,a3
   15b0c:	00e6f533          	and	a0,a3,a4
   15b10:	0026d693          	srl	a3,a3,0x2
   15b14:	00e6f6b3          	and	a3,a3,a4
   15b18:	00d50533          	add	a0,a0,a3
   15b1c:	00455693          	srl	a3,a0,0x4
   15b20:	00d50533          	add	a0,a0,a3
   15b24:	00c57533          	and	a0,a0,a2
   15b28:	d55fc0ef          	jal	1287c <__muldi3>
   15b2c:	00050593          	mv	a1,a0
   15b30:	f3843503          	ld	a0,-200(s0)
   15b34:	0185d59b          	srlw	a1,a1,0x18
   15b38:	40b5053b          	subw	a0,a0,a1
   15b3c:	faa42223          	sw	a0,-92(s0)
   15b40:	fa442503          	lw	a0,-92(s0)
   15b44:	02000593          	li	a1,32
   15b48:	02b56863          	bltu	a0,a1,15b78 <.LBB0_44>
   15b4c:	0040006f          	j	15b50 <.LBB0_41>

0000000000015b50 <.LBB0_41>:
   15b50:	fd043503          	ld	a0,-48(s0)
   15b54:	00050c63          	beqz	a0,15b6c <.LBB0_43>
   15b58:	0040006f          	j	15b5c <.LBB0_42>

0000000000015b5c <.LBB0_42>:
   15b5c:	fc043503          	ld	a0,-64(s0)
   15b60:	fd043583          	ld	a1,-48(s0)
   15b64:	00a5b023          	sd	a0,0(a1)
   15b68:	0040006f          	j	15b6c <.LBB0_43>

0000000000015b6c <.LBB0_43>:
   15b6c:	00000513          	li	a0,0
   15b70:	fea43423          	sd	a0,-24(s0)
   15b74:	1940006f          	j	15d08 <.LBB0_56>

0000000000015b78 <.LBB0_44>:
   15b78:	fa442503          	lw	a0,-92(s0)
   15b7c:	0015051b          	addw	a0,a0,1
   15b80:	faa42223          	sw	a0,-92(s0)
   15b84:	00000513          	li	a0,0
   15b88:	faa42823          	sw	a0,-80(s0)
   15b8c:	fa442503          	lw	a0,-92(s0)
   15b90:	02000593          	li	a1,32
   15b94:	02b51263          	bne	a0,a1,15bb8 <.LBB0_46>
   15b98:	0040006f          	j	15b9c <.LBB0_45>

0000000000015b9c <.LBB0_45>:
   15b9c:	fc042503          	lw	a0,-64(s0)
   15ba0:	faa42a23          	sw	a0,-76(s0)
   15ba4:	00000513          	li	a0,0
   15ba8:	faa42623          	sw	a0,-84(s0)
   15bac:	fc442503          	lw	a0,-60(s0)
   15bb0:	faa42423          	sw	a0,-88(s0)
   15bb4:	04c0006f          	j	15c00 <.LBB0_47>

0000000000015bb8 <.LBB0_46>:
   15bb8:	fc042503          	lw	a0,-64(s0)
   15bbc:	fa442583          	lw	a1,-92(s0)
   15bc0:	40b005bb          	negw	a1,a1
   15bc4:	00b5153b          	sllw	a0,a0,a1
   15bc8:	faa42a23          	sw	a0,-76(s0)
   15bcc:	fc442503          	lw	a0,-60(s0)
   15bd0:	fa446583          	lwu	a1,-92(s0)
   15bd4:	00b5553b          	srlw	a0,a0,a1
   15bd8:	faa42623          	sw	a0,-84(s0)
   15bdc:	fc442503          	lw	a0,-60(s0)
   15be0:	fa446603          	lwu	a2,-92(s0)
   15be4:	40c005bb          	negw	a1,a2
   15be8:	00b5153b          	sllw	a0,a0,a1
   15bec:	fc042583          	lw	a1,-64(s0)
   15bf0:	00c5d5bb          	srlw	a1,a1,a2
   15bf4:	00b56533          	or	a0,a0,a1
   15bf8:	faa42423          	sw	a0,-88(s0)
   15bfc:	0040006f          	j	15c00 <.LBB0_47>

0000000000015c00 <.LBB0_47>:
   15c00:	0040006f          	j	15c04 <.LBB0_48>

0000000000015c04 <.LBB0_48>:
   15c04:	0040006f          	j	15c08 <.LBB0_49>

0000000000015c08 <.LBB0_49>:
   15c08:	00000513          	li	a0,0
   15c0c:	faa42023          	sw	a0,-96(s0)
   15c10:	0040006f          	j	15c14 <.LBB0_50>

0000000000015c14 <.LBB0_50>:
   15c14:	fa442503          	lw	a0,-92(s0)
   15c18:	0a050a63          	beqz	a0,15ccc <.LBB0_53>
   15c1c:	0040006f          	j	15c20 <.LBB0_51>

0000000000015c20 <.LBB0_51>:
   15c20:	fac42503          	lw	a0,-84(s0)
   15c24:	0015151b          	sllw	a0,a0,0x1
   15c28:	fa846583          	lwu	a1,-88(s0)
   15c2c:	01f5d593          	srl	a1,a1,0x1f
   15c30:	00b56533          	or	a0,a0,a1
   15c34:	faa42623          	sw	a0,-84(s0)
   15c38:	fa842503          	lw	a0,-88(s0)
   15c3c:	0015151b          	sllw	a0,a0,0x1
   15c40:	fb446583          	lwu	a1,-76(s0)
   15c44:	01f5d593          	srl	a1,a1,0x1f
   15c48:	00b56533          	or	a0,a0,a1
   15c4c:	faa42423          	sw	a0,-88(s0)
   15c50:	fb442503          	lw	a0,-76(s0)
   15c54:	0015151b          	sllw	a0,a0,0x1
   15c58:	fb046583          	lwu	a1,-80(s0)
   15c5c:	01f5d593          	srl	a1,a1,0x1f
   15c60:	00b56533          	or	a0,a0,a1
   15c64:	faa42a23          	sw	a0,-76(s0)
   15c68:	fb042503          	lw	a0,-80(s0)
   15c6c:	0015151b          	sllw	a0,a0,0x1
   15c70:	fa042583          	lw	a1,-96(s0)
   15c74:	00b56533          	or	a0,a0,a1
   15c78:	faa42823          	sw	a0,-80(s0)
   15c7c:	fb843583          	ld	a1,-72(s0)
   15c80:	fa843503          	ld	a0,-88(s0)
   15c84:	fff54513          	not	a0,a0
   15c88:	00b50533          	add	a0,a0,a1
   15c8c:	43f55513          	sra	a0,a0,0x3f
   15c90:	f8a43c23          	sd	a0,-104(s0)
   15c94:	f9843503          	ld	a0,-104(s0)
   15c98:	00157513          	and	a0,a0,1
   15c9c:	faa42023          	sw	a0,-96(s0)
   15ca0:	fb843503          	ld	a0,-72(s0)
   15ca4:	f9843583          	ld	a1,-104(s0)
   15ca8:	00b575b3          	and	a1,a0,a1
   15cac:	fa843503          	ld	a0,-88(s0)
   15cb0:	40b50533          	sub	a0,a0,a1
   15cb4:	faa43423          	sd	a0,-88(s0)
   15cb8:	0040006f          	j	15cbc <.LBB0_52>

0000000000015cbc <.LBB0_52>:
   15cbc:	fa442503          	lw	a0,-92(s0)
   15cc0:	fff5051b          	addw	a0,a0,-1
   15cc4:	faa42223          	sw	a0,-92(s0)
   15cc8:	f4dff06f          	j	15c14 <.LBB0_50>

0000000000015ccc <.LBB0_53>:
   15ccc:	fb043503          	ld	a0,-80(s0)
   15cd0:	00151513          	sll	a0,a0,0x1
   15cd4:	fa046583          	lwu	a1,-96(s0)
   15cd8:	00b56533          	or	a0,a0,a1
   15cdc:	faa43823          	sd	a0,-80(s0)
   15ce0:	fd043503          	ld	a0,-48(s0)
   15ce4:	00050c63          	beqz	a0,15cfc <.LBB0_55>
   15ce8:	0040006f          	j	15cec <.LBB0_54>

0000000000015cec <.LBB0_54>:
   15cec:	fa843503          	ld	a0,-88(s0)
   15cf0:	fd043583          	ld	a1,-48(s0)
   15cf4:	00a5b023          	sd	a0,0(a1)
   15cf8:	0040006f          	j	15cfc <.LBB0_55>

0000000000015cfc <.LBB0_55>:
   15cfc:	fb043503          	ld	a0,-80(s0)
   15d00:	fea43423          	sd	a0,-24(s0)
   15d04:	0040006f          	j	15d08 <.LBB0_56>

0000000000015d08 <.LBB0_56>:
   15d08:	fe843503          	ld	a0,-24(s0)
   15d0c:	0e813083          	ld	ra,232(sp)
   15d10:	0e013403          	ld	s0,224(sp)
   15d14:	0f010113          	add	sp,sp,240
   15d18:	00008067          	ret

0000000000015d1c <__umoddi3>:
   15d1c:	fd010113          	add	sp,sp,-48
   15d20:	02113423          	sd	ra,40(sp)
   15d24:	02813023          	sd	s0,32(sp)
   15d28:	03010413          	add	s0,sp,48
   15d2c:	fea43423          	sd	a0,-24(s0)
   15d30:	feb43023          	sd	a1,-32(s0)
   15d34:	fe843503          	ld	a0,-24(s0)
   15d38:	fe043583          	ld	a1,-32(s0)
   15d3c:	fd840613          	add	a2,s0,-40
   15d40:	e78ff0ef          	jal	153b8 <__udivmoddi4>
   15d44:	fd843503          	ld	a0,-40(s0)
   15d48:	02813083          	ld	ra,40(sp)
   15d4c:	02013403          	ld	s0,32(sp)
   15d50:	03010113          	add	sp,sp,48
   15d54:	00008067          	ret

0000000000015d58 <__signbitl>:
   15d58:	03f5d513          	srl	a0,a1,0x3f
   15d5c:	00008067          	ret

0000000000015d60 <wctomb>:
   15d60:	00050e63          	beqz	a0,15d7c <.LBB0_2>
   15d64:	ff010113          	add	sp,sp,-16
   15d68:	00113423          	sd	ra,8(sp)
   15d6c:	00000613          	li	a2,0
   15d70:	014000ef          	jal	15d84 <wcrtomb>
   15d74:	00813083          	ld	ra,8(sp)
   15d78:	01010113          	add	sp,sp,16

0000000000015d7c <.LBB0_2>:
   15d7c:	0005051b          	sext.w	a0,a0
   15d80:	00008067          	ret

0000000000015d84 <wcrtomb>:
   15d84:	ff010113          	add	sp,sp,-16
   15d88:	00113423          	sd	ra,8(sp)
   15d8c:	00100613          	li	a2,1
   15d90:	10050463          	beqz	a0,15e98 <.LBB0_12>
   15d94:	07f00693          	li	a3,127
   15d98:	00b6e663          	bltu	a3,a1,15da4 <.LBB0_3>

0000000000015d9c <.LBB0_2>:
   15d9c:	00b50023          	sb	a1,0(a0)
   15da0:	0f80006f          	j	15e98 <.LBB0_12>

0000000000015da4 <.LBB0_3>:
   15da4:	00020693          	mv	a3,tp
   15da8:	fd06b683          	ld	a3,-48(a3)
   15dac:	0006b683          	ld	a3,0(a3)
   15db0:	02068663          	beqz	a3,15ddc <.LBB0_6>
   15db4:	7ff00613          	li	a2,2047
   15db8:	02b66a63          	bltu	a2,a1,15dec <.LBB0_7>
   15dbc:	0065d613          	srl	a2,a1,0x6
   15dc0:	0c066613          	or	a2,a2,192
   15dc4:	00c50023          	sb	a2,0(a0)
   15dc8:	03f5f593          	and	a1,a1,63
   15dcc:	08058593          	add	a1,a1,128
   15dd0:	00b500a3          	sb	a1,1(a0)
   15dd4:	00200613          	li	a2,2
   15dd8:	0c00006f          	j	15e98 <.LBB0_12>

0000000000015ddc <.LBB0_6>:
   15ddc:	0075d69b          	srlw	a3,a1,0x7
   15de0:	1bf00713          	li	a4,447
   15de4:	fae68ce3          	beq	a3,a4,15d9c <.LBB0_2>
   15de8:	0a00006f          	j	15e88 <.LBB0_11>

0000000000015dec <.LBB0_7>:
   15dec:	00b5d61b          	srlw	a2,a1,0xb
   15df0:	01b63613          	sltiu	a2,a2,27
   15df4:	00d5d69b          	srlw	a3,a1,0xd
   15df8:	ff968693          	add	a3,a3,-7
   15dfc:	0016b693          	seqz	a3,a3
   15e00:	00c6e633          	or	a2,a3,a2
   15e04:	02060a63          	beqz	a2,15e38 <.LBB0_9>
   15e08:	00c5d613          	srl	a2,a1,0xc
   15e0c:	0e066613          	or	a2,a2,224
   15e10:	00c50023          	sb	a2,0(a0)
   15e14:	03459613          	sll	a2,a1,0x34
   15e18:	03a65613          	srl	a2,a2,0x3a
   15e1c:	08060613          	add	a2,a2,128
   15e20:	00c500a3          	sb	a2,1(a0)
   15e24:	03f5f593          	and	a1,a1,63
   15e28:	08058593          	add	a1,a1,128
   15e2c:	00b50123          	sb	a1,2(a0)
   15e30:	00300613          	li	a2,3
   15e34:	0640006f          	j	15e98 <.LBB0_12>

0000000000015e38 <.LBB0_9>:
   15e38:	ffff0637          	lui	a2,0xffff0
   15e3c:	00c58633          	add	a2,a1,a2
   15e40:	0146561b          	srlw	a2,a2,0x14
   15e44:	04061263          	bnez	a2,15e88 <.LBB0_11>
   15e48:	0125d613          	srl	a2,a1,0x12
   15e4c:	0f066613          	or	a2,a2,240
   15e50:	00c50023          	sb	a2,0(a0)
   15e54:	02e59613          	sll	a2,a1,0x2e
   15e58:	03a65613          	srl	a2,a2,0x3a
   15e5c:	08060613          	add	a2,a2,128 # ffffffffffff0080 <__global_pointer$+0xfffffffffffd5038>
   15e60:	00c500a3          	sb	a2,1(a0)
   15e64:	03459613          	sll	a2,a1,0x34
   15e68:	03a65613          	srl	a2,a2,0x3a
   15e6c:	08060613          	add	a2,a2,128
   15e70:	00c50123          	sb	a2,2(a0)
   15e74:	03f5f593          	and	a1,a1,63
   15e78:	08058593          	add	a1,a1,128
   15e7c:	00b501a3          	sb	a1,3(a0)
   15e80:	00400613          	li	a2,4
   15e84:	0140006f          	j	15e98 <.LBB0_12>

0000000000015e88 <.LBB0_11>:
   15e88:	b11fc0ef          	jal	12998 <__errno_location>
   15e8c:	05400593          	li	a1,84
   15e90:	00b52023          	sw	a1,0(a0)
   15e94:	fff00613          	li	a2,-1

0000000000015e98 <.LBB0_12>:
   15e98:	00060513          	mv	a0,a2
   15e9c:	00813083          	ld	ra,8(sp)
   15ea0:	01010113          	add	sp,sp,16
   15ea4:	00008067          	ret

0000000000015ea8 <__strerror_l>:
   15ea8:	00000613          	li	a2,0
   15eac:	000106b7          	lui	a3,0x10
   15eb0:	1af68693          	add	a3,a3,431 # 101af <errid>
   15eb4:	05800713          	li	a4,88

0000000000015eb8 <.LBB0_1>:
   15eb8:	0006c783          	lbu	a5,0(a3)
   15ebc:	00a78e63          	beq	a5,a0,15ed8 <.LBB0_4>
   15ec0:	0016061b          	addw	a2,a2,1
   15ec4:	fff70713          	add	a4,a4,-1
   15ec8:	00168693          	add	a3,a3,1
   15ecc:	fe0716e3          	bnez	a4,15eb8 <.LBB0_1>
   15ed0:	05800613          	li	a2,88
   15ed4:	0080006f          	j	15edc <.LBB0_5>

0000000000015ed8 <.LBB0_4>:
   15ed8:	02060263          	beqz	a2,15efc <.LBB0_8>

0000000000015edc <.LBB0_5>:
   15edc:	00010537          	lui	a0,0x10
   15ee0:	53050513          	add	a0,a0,1328 # 10530 <errmsg>

0000000000015ee4 <.LBB0_6>:
   15ee4:	00054683          	lbu	a3,0(a0)
   15ee8:	00150513          	add	a0,a0,1
   15eec:	fe069ce3          	bnez	a3,15ee4 <.LBB0_6>
   15ef0:	fff6061b          	addw	a2,a2,-1
   15ef4:	fe0618e3          	bnez	a2,15ee4 <.LBB0_6>
   15ef8:	00c0006f          	j	15f04 <.LBB0_9>

0000000000015efc <.LBB0_8>:
   15efc:	00010537          	lui	a0,0x10
   15f00:	53050513          	add	a0,a0,1328 # 10530 <errmsg>

0000000000015f04 <.LBB0_9>:
   15f04:	0285b583          	ld	a1,40(a1)
   15f08:	0140006f          	j	15f1c <__lctrans>

0000000000015f0c <strerror>:
   15f0c:	00020593          	mv	a1,tp
   15f10:	fd05b583          	ld	a1,-48(a1)
   15f14:	f95ff06f          	j	15ea8 <__strerror_l>

0000000000015f18 <__lctrans_impl>:
   15f18:	00008067          	ret

0000000000015f1c <__lctrans>:
   15f1c:	ffdff06f          	j	15f18 <__lctrans_impl>

0000000000015f20 <__lctrans_cur>:
   15f20:	00020593          	mv	a1,tp
   15f24:	fd05b583          	ld	a1,-48(a1)
   15f28:	0285b583          	ld	a1,40(a1)
   15f2c:	fedff06f          	j	15f18 <__lctrans_impl>

0000000000015f30 <strnlen>:
   15f30:	fe010113          	add	sp,sp,-32
   15f34:	00113c23          	sd	ra,24(sp)
   15f38:	00813823          	sd	s0,16(sp)
   15f3c:	00913423          	sd	s1,8(sp)
   15f40:	00058413          	mv	s0,a1
   15f44:	00050493          	mv	s1,a0
   15f48:	00000593          	li	a1,0
   15f4c:	00040613          	mv	a2,s0
   15f50:	024000ef          	jal	15f74 <memchr>
   15f54:	00050463          	beqz	a0,15f5c <.LBB0_2>
   15f58:	40950433          	sub	s0,a0,s1

0000000000015f5c <.LBB0_2>:
   15f5c:	00040513          	mv	a0,s0
   15f60:	01813083          	ld	ra,24(sp)
   15f64:	01013403          	ld	s0,16(sp)
   15f68:	00813483          	ld	s1,8(sp)
   15f6c:	02010113          	add	sp,sp,32
   15f70:	00008067          	ret

0000000000015f74 <memchr>:
   15f74:	fe010113          	add	sp,sp,-32
   15f78:	00113c23          	sd	ra,24(sp)
   15f7c:	00813823          	sd	s0,16(sp)
   15f80:	00913423          	sd	s1,8(sp)
   15f84:	01213023          	sd	s2,0(sp)
   15f88:	00060493          	mv	s1,a2
   15f8c:	00050413          	mv	s0,a0
   15f90:	00757513          	and	a0,a0,7
   15f94:	00153513          	seqz	a0,a0
   15f98:	00163613          	seqz	a2,a2
   15f9c:	00c56533          	or	a0,a0,a2
   15fa0:	0ff5f913          	zext.b	s2,a1
   15fa4:	02051c63          	bnez	a0,15fdc <.LBB0_5>
   15fa8:	00140513          	add	a0,s0,1

0000000000015fac <.LBB0_2>:
   15fac:	00044583          	lbu	a1,0(s0)
   15fb0:	09258a63          	beq	a1,s2,16044 <.LBB0_12>
   15fb4:	00140413          	add	s0,s0,1
   15fb8:	fff48493          	add	s1,s1,-1
   15fbc:	00757593          	and	a1,a0,7
   15fc0:	00b03633          	snez	a2,a1
   15fc4:	009035b3          	snez	a1,s1
   15fc8:	00b67633          	and	a2,a2,a1
   15fcc:	00150513          	add	a0,a0,1
   15fd0:	fc061ee3          	bnez	a2,15fac <.LBB0_2>
   15fd4:	00059863          	bnez	a1,15fe4 <.LBB0_6>
   15fd8:	0800006f          	j	16058 <.LBB0_14>

0000000000015fdc <.LBB0_5>:
   15fdc:	009035b3          	snez	a1,s1
   15fe0:	06058c63          	beqz	a1,16058 <.LBB0_14>

0000000000015fe4 <.LBB0_6>:
   15fe4:	00044503          	lbu	a0,0(s0)
   15fe8:	05250c63          	beq	a0,s2,16040 <.LBB0_11>
   15fec:	0001b537          	lui	a0,0x1b
   15ff0:	85853583          	ld	a1,-1960(a0) # 1a858 <.LCPI0_0>
   15ff4:	00090513          	mv	a0,s2
   15ff8:	885fc0ef          	jal	1287c <__muldi3>
   15ffc:	00800593          	li	a1,8
   16000:	04b4e063          	bltu	s1,a1,16040 <.LBB0_11>
   16004:	0001b5b7          	lui	a1,0x1b
   16008:	8605b583          	ld	a1,-1952(a1) # 1a860 <.LCPI0_1>
   1600c:	0001b637          	lui	a2,0x1b
   16010:	86863603          	ld	a2,-1944(a2) # 1a868 <.LCPI0_2>
   16014:	00700693          	li	a3,7

0000000000016018 <.LBB0_9>:
   16018:	00043703          	ld	a4,0(s0)
   1601c:	00a74733          	xor	a4,a4,a0
   16020:	fff74793          	not	a5,a4
   16024:	00c70733          	add	a4,a4,a2
   16028:	00b7f7b3          	and	a5,a5,a1
   1602c:	00e7f733          	and	a4,a5,a4
   16030:	00071a63          	bnez	a4,16044 <.LBB0_12>
   16034:	ff848493          	add	s1,s1,-8
   16038:	00840413          	add	s0,s0,8
   1603c:	fc96eee3          	bltu	a3,s1,16018 <.LBB0_9>

0000000000016040 <.LBB0_11>:
   16040:	00048c63          	beqz	s1,16058 <.LBB0_14>

0000000000016044 <.LBB0_12>:
   16044:	00044503          	lbu	a0,0(s0)
   16048:	01250a63          	beq	a0,s2,1605c <.LBB0_15>
   1604c:	fff48493          	add	s1,s1,-1
   16050:	00140413          	add	s0,s0,1
   16054:	fe0498e3          	bnez	s1,16044 <.LBB0_12>

0000000000016058 <.LBB0_14>:
   16058:	00000413          	li	s0,0

000000000001605c <.LBB0_15>:
   1605c:	00040513          	mv	a0,s0
   16060:	01813083          	ld	ra,24(sp)
   16064:	01013403          	ld	s0,16(sp)
   16068:	00813483          	ld	s1,8(sp)
   1606c:	00013903          	ld	s2,0(sp)
   16070:	02010113          	add	sp,sp,32
   16074:	00008067          	ret

0000000000016078 <__fpclassifyl>:
   16078:	01059613          	sll	a2,a1,0x10
   1607c:	00159593          	sll	a1,a1,0x1
   16080:	0315d693          	srl	a3,a1,0x31
   16084:	000085b7          	lui	a1,0x8
   16088:	fff5859b          	addw	a1,a1,-1 # 7fff <.Lline_table_start0+0x7fff>
   1608c:	01065613          	srl	a2,a2,0x10
   16090:	00b68e63          	beq	a3,a1,160ac <.LBB0_3>
   16094:	00400593          	li	a1,4
   16098:	00069e63          	bnez	a3,160b4 <.LBB0_4>
   1609c:	00a66533          	or	a0,a2,a0
   160a0:	00153513          	seqz	a0,a0
   160a4:	00354593          	xor	a1,a0,3
   160a8:	00c0006f          	j	160b4 <.LBB0_4>

00000000000160ac <.LBB0_3>:
   160ac:	00a66533          	or	a0,a2,a0
   160b0:	00153593          	seqz	a1,a0

00000000000160b4 <.LBB0_4>:
   160b4:	00058513          	mv	a0,a1
   160b8:	00008067          	ret

00000000000160bc <frexpl>:
   160bc:	fe010113          	add	sp,sp,-32
   160c0:	00113c23          	sd	ra,24(sp)
   160c4:	00813823          	sd	s0,16(sp)
   160c8:	00913423          	sd	s1,8(sp)
   160cc:	01213023          	sd	s2,0(sp)
   160d0:	00058413          	mv	s0,a1
   160d4:	0305d593          	srl	a1,a1,0x30
   160d8:	000086b7          	lui	a3,0x8
   160dc:	fff6871b          	addw	a4,a3,-1 # 7fff <.Lline_table_start0+0x7fff>
   160e0:	00e5f6b3          	and	a3,a1,a4
   160e4:	00050493          	mv	s1,a0
   160e8:	08e68663          	beq	a3,a4,16174 <.LBB0_6>
   160ec:	00060913          	mv	s2,a2
   160f0:	04069863          	bnez	a3,16140 <.LBB0_5>
   160f4:	00048513          	mv	a0,s1
   160f8:	00040593          	mv	a1,s0
   160fc:	00000613          	li	a2,0
   16100:	094000ef          	jal	16194 <__cmptf2>
   16104:	02050a63          	beqz	a0,16138 <.LBB0_4>
   16108:	040776b7          	lui	a3,0x4077
   1610c:	02469693          	sll	a3,a3,0x24
   16110:	00048513          	mv	a0,s1
   16114:	00040593          	mv	a1,s0
   16118:	00000613          	li	a2,0
   1611c:	678000ef          	jal	16794 <__multf3>
   16120:	00090613          	mv	a2,s2
   16124:	f99ff0ef          	jal	160bc <frexpl>
   16128:	00092603          	lw	a2,0(s2)
   1612c:	00050493          	mv	s1,a0
   16130:	00058413          	mv	s0,a1
   16134:	f886051b          	addw	a0,a2,-120

0000000000016138 <.LBB0_4>:
   16138:	00a92023          	sw	a0,0(s2)
   1613c:	0380006f          	j	16174 <.LBB0_6>

0000000000016140 <.LBB0_5>:
   16140:	ffffc537          	lui	a0,0xffffc
   16144:	0025051b          	addw	a0,a0,2 # ffffffffffffc002 <__global_pointer$+0xfffffffffffe0fba>
   16148:	00a68533          	add	a0,a3,a0
   1614c:	00a92023          	sw	a0,0(s2)
   16150:	00008537          	lui	a0,0x8
   16154:	00a5f533          	and	a0,a1,a0
   16158:	03051513          	sll	a0,a0,0x30
   1615c:	01041413          	sll	s0,s0,0x10
   16160:	01045413          	srl	s0,s0,0x10
   16164:	01fff5b7          	lui	a1,0x1fff
   16168:	02559593          	sll	a1,a1,0x25
   1616c:	00b465b3          	or	a1,s0,a1
   16170:	00b56433          	or	s0,a0,a1

0000000000016174 <.LBB0_6>:
   16174:	00048513          	mv	a0,s1
   16178:	00040593          	mv	a1,s0
   1617c:	01813083          	ld	ra,24(sp)
   16180:	01013403          	ld	s0,16(sp)
   16184:	00813483          	ld	s1,8(sp)
   16188:	00013903          	ld	s2,0(sp)
   1618c:	02010113          	add	sp,sp,32
   16190:	00008067          	ret

0000000000016194 <__cmptf2>:
   16194:	f4010113          	add	sp,sp,-192
   16198:	0a113c23          	sd	ra,184(sp)
   1619c:	0a813823          	sd	s0,176(sp)
   161a0:	0c010413          	add	s0,sp,192
   161a4:	fcb43c23          	sd	a1,-40(s0)
   161a8:	fca43823          	sd	a0,-48(s0)
   161ac:	fcd43423          	sd	a3,-56(s0)
   161b0:	fcc43023          	sd	a2,-64(s0)
   161b4:	fd843583          	ld	a1,-40(s0)
   161b8:	fd043503          	ld	a0,-48(s0)
   161bc:	234000ef          	jal	163f0 <toRep>
   161c0:	fab43c23          	sd	a1,-72(s0)
   161c4:	faa43823          	sd	a0,-80(s0)
   161c8:	fc843583          	ld	a1,-56(s0)
   161cc:	fc043503          	ld	a0,-64(s0)
   161d0:	220000ef          	jal	163f0 <toRep>
   161d4:	fab43423          	sd	a1,-88(s0)
   161d8:	faa43023          	sd	a0,-96(s0)
   161dc:	fb043583          	ld	a1,-80(s0)
   161e0:	fb843503          	ld	a0,-72(s0)
   161e4:	fff00613          	li	a2,-1
   161e8:	00165613          	srl	a2,a2,0x1
   161ec:	00c57533          	and	a0,a0,a2
   161f0:	f8b43823          	sd	a1,-112(s0)
   161f4:	f8a43c23          	sd	a0,-104(s0)
   161f8:	fa043583          	ld	a1,-96(s0)
   161fc:	fa843503          	ld	a0,-88(s0)
   16200:	00c57533          	and	a0,a0,a2
   16204:	f8b43023          	sd	a1,-128(s0)
   16208:	f8a43423          	sd	a0,-120(s0)
   1620c:	f9043603          	ld	a2,-112(s0)
   16210:	f9843503          	ld	a0,-104(s0)
   16214:	07fff5b7          	lui	a1,0x7fff
   16218:	02459593          	sll	a1,a1,0x24
   1621c:	00a5b6b3          	sltu	a3,a1,a0
   16220:	f6d43823          	sd	a3,-144(s0)
   16224:	00c03633          	snez	a2,a2
   16228:	f6c43c23          	sd	a2,-136(s0)
   1622c:	00b50663          	beq	a0,a1,16238 <.LBB0_2>
   16230:	f7043503          	ld	a0,-144(s0)
   16234:	f6a43c23          	sd	a0,-136(s0)

0000000000016238 <.LBB0_2>:
   16238:	f7843503          	ld	a0,-136(s0)
   1623c:	04051063          	bnez	a0,1627c <.LBB0_6>
   16240:	0040006f          	j	16244 <.LBB0_3>

0000000000016244 <.LBB0_3>:
   16244:	f8043603          	ld	a2,-128(s0)
   16248:	f8843503          	ld	a0,-120(s0)
   1624c:	07fff5b7          	lui	a1,0x7fff
   16250:	02459593          	sll	a1,a1,0x24
   16254:	00b536b3          	sltu	a3,a0,a1
   16258:	f6d43023          	sd	a3,-160(s0)
   1625c:	00163613          	seqz	a2,a2
   16260:	f6c43423          	sd	a2,-152(s0)
   16264:	00b50663          	beq	a0,a1,16270 <.LBB0_5>
   16268:	f6043503          	ld	a0,-160(s0)
   1626c:	f6a43423          	sd	a0,-152(s0)

0000000000016270 <.LBB0_5>:
   16270:	f6843503          	ld	a0,-152(s0)
   16274:	00051a63          	bnez	a0,16288 <.LBB0_7>
   16278:	0040006f          	j	1627c <.LBB0_6>

000000000001627c <.LBB0_6>:
   1627c:	00100513          	li	a0,1
   16280:	fea42623          	sw	a0,-20(s0)
   16284:	1580006f          	j	163dc <.LBB0_24>

0000000000016288 <.LBB0_7>:
   16288:	f9043503          	ld	a0,-112(s0)
   1628c:	f9843583          	ld	a1,-104(s0)
   16290:	f8043603          	ld	a2,-128(s0)
   16294:	f8843683          	ld	a3,-120(s0)
   16298:	00d5e5b3          	or	a1,a1,a3
   1629c:	00c56533          	or	a0,a0,a2
   162a0:	00b56533          	or	a0,a0,a1
   162a4:	00051a63          	bnez	a0,162b8 <.LBB0_9>
   162a8:	0040006f          	j	162ac <.LBB0_8>

00000000000162ac <.LBB0_8>:
   162ac:	00000513          	li	a0,0
   162b0:	fea42623          	sw	a0,-20(s0)
   162b4:	1280006f          	j	163dc <.LBB0_24>

00000000000162b8 <.LBB0_9>:
   162b8:	fb843503          	ld	a0,-72(s0)
   162bc:	fa843583          	ld	a1,-88(s0)
   162c0:	00b57533          	and	a0,a0,a1
   162c4:	08054863          	bltz	a0,16354 <.LBB0_17>
   162c8:	0040006f          	j	162cc <.LBB0_10>

00000000000162cc <.LBB0_10>:
   162cc:	fb043603          	ld	a2,-80(s0)
   162d0:	fb843503          	ld	a0,-72(s0)
   162d4:	fa043683          	ld	a3,-96(s0)
   162d8:	fa843583          	ld	a1,-88(s0)
   162dc:	00b52733          	slt	a4,a0,a1
   162e0:	00174713          	xor	a4,a4,1
   162e4:	f4e43823          	sd	a4,-176(s0)
   162e8:	00d63633          	sltu	a2,a2,a3
   162ec:	00164613          	xor	a2,a2,1
   162f0:	f4c43c23          	sd	a2,-168(s0)
   162f4:	00b50663          	beq	a0,a1,16300 <.LBB0_12>
   162f8:	f5043503          	ld	a0,-176(s0)
   162fc:	f4a43c23          	sd	a0,-168(s0)

0000000000016300 <.LBB0_12>:
   16300:	f5843503          	ld	a0,-168(s0)
   16304:	00051a63          	bnez	a0,16318 <.LBB0_14>
   16308:	0040006f          	j	1630c <.LBB0_13>

000000000001630c <.LBB0_13>:
   1630c:	fff00513          	li	a0,-1
   16310:	fea42623          	sw	a0,-20(s0)
   16314:	0c80006f          	j	163dc <.LBB0_24>

0000000000016318 <.LBB0_14>:
   16318:	fb043503          	ld	a0,-80(s0)
   1631c:	fb843583          	ld	a1,-72(s0)
   16320:	fa043603          	ld	a2,-96(s0)
   16324:	fa843683          	ld	a3,-88(s0)
   16328:	00d5c5b3          	xor	a1,a1,a3
   1632c:	00c54533          	xor	a0,a0,a2
   16330:	00b56533          	or	a0,a0,a1
   16334:	00051a63          	bnez	a0,16348 <.LBB0_16>
   16338:	0040006f          	j	1633c <.LBB0_15>

000000000001633c <.LBB0_15>:
   1633c:	00000513          	li	a0,0
   16340:	fea42623          	sw	a0,-20(s0)
   16344:	0980006f          	j	163dc <.LBB0_24>

0000000000016348 <.LBB0_16>:
   16348:	00100513          	li	a0,1
   1634c:	fea42623          	sw	a0,-20(s0)
   16350:	08c0006f          	j	163dc <.LBB0_24>

0000000000016354 <.LBB0_17>:
   16354:	fb043683          	ld	a3,-80(s0)
   16358:	fb843503          	ld	a0,-72(s0)
   1635c:	fa043603          	ld	a2,-96(s0)
   16360:	fa843583          	ld	a1,-88(s0)
   16364:	00a5a733          	slt	a4,a1,a0
   16368:	00174713          	xor	a4,a4,1
   1636c:	f4e43023          	sd	a4,-192(s0)
   16370:	00d63633          	sltu	a2,a2,a3
   16374:	00164613          	xor	a2,a2,1
   16378:	f4c43423          	sd	a2,-184(s0)
   1637c:	00b50663          	beq	a0,a1,16388 <.LBB0_19>
   16380:	f4043503          	ld	a0,-192(s0)
   16384:	f4a43423          	sd	a0,-184(s0)

0000000000016388 <.LBB0_19>:
   16388:	f4843503          	ld	a0,-184(s0)
   1638c:	00051a63          	bnez	a0,163a0 <.LBB0_21>
   16390:	0040006f          	j	16394 <.LBB0_20>

0000000000016394 <.LBB0_20>:
   16394:	fff00513          	li	a0,-1
   16398:	fea42623          	sw	a0,-20(s0)
   1639c:	0400006f          	j	163dc <.LBB0_24>

00000000000163a0 <.LBB0_21>:
   163a0:	fb043503          	ld	a0,-80(s0)
   163a4:	fb843583          	ld	a1,-72(s0)
   163a8:	fa043603          	ld	a2,-96(s0)
   163ac:	fa843683          	ld	a3,-88(s0)
   163b0:	00d5c5b3          	xor	a1,a1,a3
   163b4:	00c54533          	xor	a0,a0,a2
   163b8:	00b56533          	or	a0,a0,a1
   163bc:	00051a63          	bnez	a0,163d0 <.LBB0_23>
   163c0:	0040006f          	j	163c4 <.LBB0_22>

00000000000163c4 <.LBB0_22>:
   163c4:	00000513          	li	a0,0
   163c8:	fea42623          	sw	a0,-20(s0)
   163cc:	0100006f          	j	163dc <.LBB0_24>

00000000000163d0 <.LBB0_23>:
   163d0:	00100513          	li	a0,1
   163d4:	fea42623          	sw	a0,-20(s0)
   163d8:	0040006f          	j	163dc <.LBB0_24>

00000000000163dc <.LBB0_24>:
   163dc:	fec42503          	lw	a0,-20(s0)
   163e0:	0b813083          	ld	ra,184(sp)
   163e4:	0b013403          	ld	s0,176(sp)
   163e8:	0c010113          	add	sp,sp,192
   163ec:	00008067          	ret

00000000000163f0 <toRep>:
   163f0:	fd010113          	add	sp,sp,-48
   163f4:	02113423          	sd	ra,40(sp)
   163f8:	02813023          	sd	s0,32(sp)
   163fc:	03010413          	add	s0,sp,48
   16400:	feb43423          	sd	a1,-24(s0)
   16404:	fea43023          	sd	a0,-32(s0)
   16408:	fe043503          	ld	a0,-32(s0)
   1640c:	fe843583          	ld	a1,-24(s0)
   16410:	fcb43c23          	sd	a1,-40(s0)
   16414:	fca43823          	sd	a0,-48(s0)
   16418:	fd043503          	ld	a0,-48(s0)
   1641c:	fd843583          	ld	a1,-40(s0)
   16420:	02813083          	ld	ra,40(sp)
   16424:	02013403          	ld	s0,32(sp)
   16428:	03010113          	add	sp,sp,48
   1642c:	00008067          	ret

0000000000016430 <__getf2>:
   16430:	f4010113          	add	sp,sp,-192
   16434:	0a113c23          	sd	ra,184(sp)
   16438:	0a813823          	sd	s0,176(sp)
   1643c:	0c010413          	add	s0,sp,192
   16440:	fcb43c23          	sd	a1,-40(s0)
   16444:	fca43823          	sd	a0,-48(s0)
   16448:	fcd43423          	sd	a3,-56(s0)
   1644c:	fcc43023          	sd	a2,-64(s0)
   16450:	fd843583          	ld	a1,-40(s0)
   16454:	fd043503          	ld	a0,-48(s0)
   16458:	f99ff0ef          	jal	163f0 <toRep>
   1645c:	fab43c23          	sd	a1,-72(s0)
   16460:	faa43823          	sd	a0,-80(s0)
   16464:	fc843583          	ld	a1,-56(s0)
   16468:	fc043503          	ld	a0,-64(s0)
   1646c:	f85ff0ef          	jal	163f0 <toRep>
   16470:	fab43423          	sd	a1,-88(s0)
   16474:	faa43023          	sd	a0,-96(s0)
   16478:	fb043583          	ld	a1,-80(s0)
   1647c:	fb843503          	ld	a0,-72(s0)
   16480:	fff00613          	li	a2,-1
   16484:	00165613          	srl	a2,a2,0x1
   16488:	00c57533          	and	a0,a0,a2
   1648c:	f8b43823          	sd	a1,-112(s0)
   16490:	f8a43c23          	sd	a0,-104(s0)
   16494:	fa043583          	ld	a1,-96(s0)
   16498:	fa843503          	ld	a0,-88(s0)
   1649c:	00c57533          	and	a0,a0,a2
   164a0:	f8b43023          	sd	a1,-128(s0)
   164a4:	f8a43423          	sd	a0,-120(s0)
   164a8:	f9043603          	ld	a2,-112(s0)
   164ac:	f9843503          	ld	a0,-104(s0)
   164b0:	07fff5b7          	lui	a1,0x7fff
   164b4:	02459593          	sll	a1,a1,0x24
   164b8:	00a5b6b3          	sltu	a3,a1,a0
   164bc:	f6d43823          	sd	a3,-144(s0)
   164c0:	00c03633          	snez	a2,a2
   164c4:	f6c43c23          	sd	a2,-136(s0)
   164c8:	00b50663          	beq	a0,a1,164d4 <.LBB2_2>
   164cc:	f7043503          	ld	a0,-144(s0)
   164d0:	f6a43c23          	sd	a0,-136(s0)

00000000000164d4 <.LBB2_2>:
   164d4:	f7843503          	ld	a0,-136(s0)
   164d8:	04051063          	bnez	a0,16518 <.LBB2_6>
   164dc:	0040006f          	j	164e0 <.LBB2_3>

00000000000164e0 <.LBB2_3>:
   164e0:	f8043603          	ld	a2,-128(s0)
   164e4:	f8843503          	ld	a0,-120(s0)
   164e8:	07fff5b7          	lui	a1,0x7fff
   164ec:	02459593          	sll	a1,a1,0x24
   164f0:	00b536b3          	sltu	a3,a0,a1
   164f4:	f6d43023          	sd	a3,-160(s0)
   164f8:	00163613          	seqz	a2,a2
   164fc:	f6c43423          	sd	a2,-152(s0)
   16500:	00b50663          	beq	a0,a1,1650c <.LBB2_5>
   16504:	f6043503          	ld	a0,-160(s0)
   16508:	f6a43423          	sd	a0,-152(s0)

000000000001650c <.LBB2_5>:
   1650c:	f6843503          	ld	a0,-152(s0)
   16510:	00051a63          	bnez	a0,16524 <.LBB2_7>
   16514:	0040006f          	j	16518 <.LBB2_6>

0000000000016518 <.LBB2_6>:
   16518:	fff00513          	li	a0,-1
   1651c:	fea42623          	sw	a0,-20(s0)
   16520:	1580006f          	j	16678 <.LBB2_24>

0000000000016524 <.LBB2_7>:
   16524:	f9043503          	ld	a0,-112(s0)
   16528:	f9843583          	ld	a1,-104(s0)
   1652c:	f8043603          	ld	a2,-128(s0)
   16530:	f8843683          	ld	a3,-120(s0)
   16534:	00d5e5b3          	or	a1,a1,a3
   16538:	00c56533          	or	a0,a0,a2
   1653c:	00b56533          	or	a0,a0,a1
   16540:	00051a63          	bnez	a0,16554 <.LBB2_9>
   16544:	0040006f          	j	16548 <.LBB2_8>

0000000000016548 <.LBB2_8>:
   16548:	00000513          	li	a0,0
   1654c:	fea42623          	sw	a0,-20(s0)
   16550:	1280006f          	j	16678 <.LBB2_24>

0000000000016554 <.LBB2_9>:
   16554:	fb843503          	ld	a0,-72(s0)
   16558:	fa843583          	ld	a1,-88(s0)
   1655c:	00b57533          	and	a0,a0,a1
   16560:	08054863          	bltz	a0,165f0 <.LBB2_17>
   16564:	0040006f          	j	16568 <.LBB2_10>

0000000000016568 <.LBB2_10>:
   16568:	fb043603          	ld	a2,-80(s0)
   1656c:	fb843503          	ld	a0,-72(s0)
   16570:	fa043683          	ld	a3,-96(s0)
   16574:	fa843583          	ld	a1,-88(s0)
   16578:	00b52733          	slt	a4,a0,a1
   1657c:	00174713          	xor	a4,a4,1
   16580:	f4e43823          	sd	a4,-176(s0)
   16584:	00d63633          	sltu	a2,a2,a3
   16588:	00164613          	xor	a2,a2,1
   1658c:	f4c43c23          	sd	a2,-168(s0)
   16590:	00b50663          	beq	a0,a1,1659c <.LBB2_12>
   16594:	f5043503          	ld	a0,-176(s0)
   16598:	f4a43c23          	sd	a0,-168(s0)

000000000001659c <.LBB2_12>:
   1659c:	f5843503          	ld	a0,-168(s0)
   165a0:	00051a63          	bnez	a0,165b4 <.LBB2_14>
   165a4:	0040006f          	j	165a8 <.LBB2_13>

00000000000165a8 <.LBB2_13>:
   165a8:	fff00513          	li	a0,-1
   165ac:	fea42623          	sw	a0,-20(s0)
   165b0:	0c80006f          	j	16678 <.LBB2_24>

00000000000165b4 <.LBB2_14>:
   165b4:	fb043503          	ld	a0,-80(s0)
   165b8:	fb843583          	ld	a1,-72(s0)
   165bc:	fa043603          	ld	a2,-96(s0)
   165c0:	fa843683          	ld	a3,-88(s0)
   165c4:	00d5c5b3          	xor	a1,a1,a3
   165c8:	00c54533          	xor	a0,a0,a2
   165cc:	00b56533          	or	a0,a0,a1
   165d0:	00051a63          	bnez	a0,165e4 <.LBB2_16>
   165d4:	0040006f          	j	165d8 <.LBB2_15>

00000000000165d8 <.LBB2_15>:
   165d8:	00000513          	li	a0,0
   165dc:	fea42623          	sw	a0,-20(s0)
   165e0:	0980006f          	j	16678 <.LBB2_24>

00000000000165e4 <.LBB2_16>:
   165e4:	00100513          	li	a0,1
   165e8:	fea42623          	sw	a0,-20(s0)
   165ec:	08c0006f          	j	16678 <.LBB2_24>

00000000000165f0 <.LBB2_17>:
   165f0:	fb043683          	ld	a3,-80(s0)
   165f4:	fb843503          	ld	a0,-72(s0)
   165f8:	fa043603          	ld	a2,-96(s0)
   165fc:	fa843583          	ld	a1,-88(s0)
   16600:	00a5a733          	slt	a4,a1,a0
   16604:	00174713          	xor	a4,a4,1
   16608:	f4e43023          	sd	a4,-192(s0)
   1660c:	00d63633          	sltu	a2,a2,a3
   16610:	00164613          	xor	a2,a2,1
   16614:	f4c43423          	sd	a2,-184(s0)
   16618:	00b50663          	beq	a0,a1,16624 <.LBB2_19>
   1661c:	f4043503          	ld	a0,-192(s0)
   16620:	f4a43423          	sd	a0,-184(s0)

0000000000016624 <.LBB2_19>:
   16624:	f4843503          	ld	a0,-184(s0)
   16628:	00051a63          	bnez	a0,1663c <.LBB2_21>
   1662c:	0040006f          	j	16630 <.LBB2_20>

0000000000016630 <.LBB2_20>:
   16630:	fff00513          	li	a0,-1
   16634:	fea42623          	sw	a0,-20(s0)
   16638:	0400006f          	j	16678 <.LBB2_24>

000000000001663c <.LBB2_21>:
   1663c:	fb043503          	ld	a0,-80(s0)
   16640:	fb843583          	ld	a1,-72(s0)
   16644:	fa043603          	ld	a2,-96(s0)
   16648:	fa843683          	ld	a3,-88(s0)
   1664c:	00d5c5b3          	xor	a1,a1,a3
   16650:	00c54533          	xor	a0,a0,a2
   16654:	00b56533          	or	a0,a0,a1
   16658:	00051a63          	bnez	a0,1666c <.LBB2_23>
   1665c:	0040006f          	j	16660 <.LBB2_22>

0000000000016660 <.LBB2_22>:
   16660:	00000513          	li	a0,0
   16664:	fea42623          	sw	a0,-20(s0)
   16668:	0100006f          	j	16678 <.LBB2_24>

000000000001666c <.LBB2_23>:
   1666c:	00100513          	li	a0,1
   16670:	fea42623          	sw	a0,-20(s0)
   16674:	0040006f          	j	16678 <.LBB2_24>

0000000000016678 <.LBB2_24>:
   16678:	fec42503          	lw	a0,-20(s0)
   1667c:	0b813083          	ld	ra,184(sp)
   16680:	0b013403          	ld	s0,176(sp)
   16684:	0c010113          	add	sp,sp,192
   16688:	00008067          	ret

000000000001668c <__unordtf2>:
   1668c:	f7010113          	add	sp,sp,-144
   16690:	08113423          	sd	ra,136(sp)
   16694:	08813023          	sd	s0,128(sp)
   16698:	09010413          	add	s0,sp,144
   1669c:	feb43423          	sd	a1,-24(s0)
   166a0:	fea43023          	sd	a0,-32(s0)
   166a4:	fcd43c23          	sd	a3,-40(s0)
   166a8:	fcc43823          	sd	a2,-48(s0)
   166ac:	fe843583          	ld	a1,-24(s0)
   166b0:	fe043503          	ld	a0,-32(s0)
   166b4:	d3dff0ef          	jal	163f0 <toRep>
   166b8:	f8a43423          	sd	a0,-120(s0)
   166bc:	00058513          	mv	a0,a1
   166c0:	f8843583          	ld	a1,-120(s0)
   166c4:	fff00613          	li	a2,-1
   166c8:	00165613          	srl	a2,a2,0x1
   166cc:	f8c43823          	sd	a2,-112(s0)
   166d0:	00c57533          	and	a0,a0,a2
   166d4:	fcb43023          	sd	a1,-64(s0)
   166d8:	fca43423          	sd	a0,-56(s0)
   166dc:	fd843583          	ld	a1,-40(s0)
   166e0:	fd043503          	ld	a0,-48(s0)
   166e4:	d0dff0ef          	jal	163f0 <toRep>
   166e8:	f9043603          	ld	a2,-112(s0)
   166ec:	f8a43c23          	sd	a0,-104(s0)
   166f0:	00058513          	mv	a0,a1
   166f4:	f9843583          	ld	a1,-104(s0)
   166f8:	00c57533          	and	a0,a0,a2
   166fc:	fab43823          	sd	a1,-80(s0)
   16700:	faa43c23          	sd	a0,-72(s0)
   16704:	fc043603          	ld	a2,-64(s0)
   16708:	fc843503          	ld	a0,-56(s0)
   1670c:	07fff5b7          	lui	a1,0x7fff
   16710:	02459593          	sll	a1,a1,0x24
   16714:	00a5b6b3          	sltu	a3,a1,a0
   16718:	fad43023          	sd	a3,-96(s0)
   1671c:	00c03633          	snez	a2,a2
   16720:	fac43423          	sd	a2,-88(s0)
   16724:	00b50663          	beq	a0,a1,16730 <.LBB3_2>
   16728:	fa043503          	ld	a0,-96(s0)
   1672c:	faa43423          	sd	a0,-88(s0)

0000000000016730 <.LBB3_2>:
   16730:	fa843503          	ld	a0,-88(s0)
   16734:	00100593          	li	a1,1
   16738:	f8b43023          	sd	a1,-128(s0)
   1673c:	04051063          	bnez	a0,1677c <.LBB3_6>
   16740:	0040006f          	j	16744 <.LBB3_3>

0000000000016744 <.LBB3_3>:
   16744:	fb043603          	ld	a2,-80(s0)
   16748:	fb843503          	ld	a0,-72(s0)
   1674c:	07fff5b7          	lui	a1,0x7fff
   16750:	02459593          	sll	a1,a1,0x24
   16754:	00a5b6b3          	sltu	a3,a1,a0
   16758:	f6d43823          	sd	a3,-144(s0)
   1675c:	00c03633          	snez	a2,a2
   16760:	f6c43c23          	sd	a2,-136(s0)
   16764:	00b50663          	beq	a0,a1,16770 <.LBB3_5>
   16768:	f7043503          	ld	a0,-144(s0)
   1676c:	f6a43c23          	sd	a0,-136(s0)

0000000000016770 <.LBB3_5>:
   16770:	f7843503          	ld	a0,-136(s0)
   16774:	f8a43023          	sd	a0,-128(s0)
   16778:	0040006f          	j	1677c <.LBB3_6>

000000000001677c <.LBB3_6>:
   1677c:	f8043503          	ld	a0,-128(s0)
   16780:	00157513          	and	a0,a0,1
   16784:	08813083          	ld	ra,136(sp)
   16788:	08013403          	ld	s0,128(sp)
   1678c:	09010113          	add	sp,sp,144
   16790:	00008067          	ret

0000000000016794 <__multf3>:
   16794:	fd010113          	add	sp,sp,-48
   16798:	02113423          	sd	ra,40(sp)
   1679c:	02813023          	sd	s0,32(sp)
   167a0:	03010413          	add	s0,sp,48
   167a4:	feb43423          	sd	a1,-24(s0)
   167a8:	fea43023          	sd	a0,-32(s0)
   167ac:	fcd43c23          	sd	a3,-40(s0)
   167b0:	fcc43823          	sd	a2,-48(s0)
   167b4:	fd843683          	ld	a3,-40(s0)
   167b8:	fd043603          	ld	a2,-48(s0)
   167bc:	fe843583          	ld	a1,-24(s0)
   167c0:	fe043503          	ld	a0,-32(s0)
   167c4:	014000ef          	jal	167d8 <__mulXf3__>
   167c8:	02813083          	ld	ra,40(sp)
   167cc:	02013403          	ld	s0,32(sp)
   167d0:	03010113          	add	sp,sp,48
   167d4:	00008067          	ret

00000000000167d8 <__mulXf3__>:
   167d8:	ec010113          	add	sp,sp,-320
   167dc:	12113c23          	sd	ra,312(sp)
   167e0:	12813823          	sd	s0,304(sp)
   167e4:	14010413          	add	s0,sp,320
   167e8:	fcb43c23          	sd	a1,-40(s0)
   167ec:	fca43823          	sd	a0,-48(s0)
   167f0:	fcd43423          	sd	a3,-56(s0)
   167f4:	fcc43023          	sd	a2,-64(s0)
   167f8:	fd843583          	ld	a1,-40(s0)
   167fc:	fd043503          	ld	a0,-48(s0)
   16800:	5fc000ef          	jal	16dfc <toRep>
   16804:	00159513          	sll	a0,a1,0x1
   16808:	03155513          	srl	a0,a0,0x31
   1680c:	faa42e23          	sw	a0,-68(s0)
   16810:	fc843583          	ld	a1,-56(s0)
   16814:	fc043503          	ld	a0,-64(s0)
   16818:	5e4000ef          	jal	16dfc <toRep>
   1681c:	00159513          	sll	a0,a1,0x1
   16820:	03155513          	srl	a0,a0,0x31
   16824:	faa42c23          	sw	a0,-72(s0)
   16828:	fd843583          	ld	a1,-40(s0)
   1682c:	fd043503          	ld	a0,-48(s0)
   16830:	5cc000ef          	jal	16dfc <toRep>
   16834:	f0b43423          	sd	a1,-248(s0)
   16838:	fc843583          	ld	a1,-56(s0)
   1683c:	fc043503          	ld	a0,-64(s0)
   16840:	5bc000ef          	jal	16dfc <toRep>
   16844:	00058513          	mv	a0,a1
   16848:	f0843583          	ld	a1,-248(s0)
   1684c:	00a5c533          	xor	a0,a1,a0
   16850:	03f55513          	srl	a0,a0,0x3f
   16854:	03f51513          	sll	a0,a0,0x3f
   16858:	00000593          	li	a1,0
   1685c:	f2b43023          	sd	a1,-224(s0)
   16860:	fab43023          	sd	a1,-96(s0)
   16864:	faa43423          	sd	a0,-88(s0)
   16868:	fd843583          	ld	a1,-40(s0)
   1686c:	fd043503          	ld	a0,-48(s0)
   16870:	58c000ef          	jal	16dfc <toRep>
   16874:	f0a43823          	sd	a0,-240(s0)
   16878:	00058513          	mv	a0,a1
   1687c:	f1043583          	ld	a1,-240(s0)
   16880:	fff00613          	li	a2,-1
   16884:	01065613          	srl	a2,a2,0x10
   16888:	f0c43c23          	sd	a2,-232(s0)
   1688c:	00c57533          	and	a0,a0,a2
   16890:	f8b43823          	sd	a1,-112(s0)
   16894:	f8a43c23          	sd	a0,-104(s0)
   16898:	fc843583          	ld	a1,-56(s0)
   1689c:	fc043503          	ld	a0,-64(s0)
   168a0:	55c000ef          	jal	16dfc <toRep>
   168a4:	f1843683          	ld	a3,-232(s0)
   168a8:	00050613          	mv	a2,a0
   168ac:	f2043503          	ld	a0,-224(s0)
   168b0:	00d5f5b3          	and	a1,a1,a3
   168b4:	f8c43023          	sd	a2,-128(s0)
   168b8:	f8b43423          	sd	a1,-120(s0)
   168bc:	f6a42e23          	sw	a0,-132(s0)
   168c0:	fbc42503          	lw	a0,-68(s0)
   168c4:	fff5059b          	addw	a1,a0,-1 # 7fff <.Lline_table_start0+0x7fff>
   168c8:	00008537          	lui	a0,0x8
   168cc:	ffd5051b          	addw	a0,a0,-3 # 7ffd <.Lline_table_start0+0x7ffd>
   168d0:	02b56063          	bltu	a0,a1,168f0 <.LBB1_2>
   168d4:	0040006f          	j	168d8 <.LBB1_1>

00000000000168d8 <.LBB1_1>:
   168d8:	fb842503          	lw	a0,-72(s0)
   168dc:	fff5051b          	addw	a0,a0,-1
   168e0:	000085b7          	lui	a1,0x8
   168e4:	ffe5859b          	addw	a1,a1,-2 # 7ffe <.Lline_table_start0+0x7ffe>
   168e8:	2ab56e63          	bltu	a0,a1,16ba4 <.LBB1_27>
   168ec:	0040006f          	j	168f0 <.LBB1_2>

00000000000168f0 <.LBB1_2>:
   168f0:	fd843583          	ld	a1,-40(s0)
   168f4:	fd043503          	ld	a0,-48(s0)
   168f8:	504000ef          	jal	16dfc <toRep>
   168fc:	eea43023          	sd	a0,-288(s0)
   16900:	00058513          	mv	a0,a1
   16904:	ee043583          	ld	a1,-288(s0)
   16908:	fff00613          	li	a2,-1
   1690c:	00165613          	srl	a2,a2,0x1
   16910:	eec43423          	sd	a2,-280(s0)
   16914:	00c57533          	and	a0,a0,a2
   16918:	f6b43023          	sd	a1,-160(s0)
   1691c:	f6a43423          	sd	a0,-152(s0)
   16920:	fc843583          	ld	a1,-56(s0)
   16924:	fc043503          	ld	a0,-64(s0)
   16928:	4d4000ef          	jal	16dfc <toRep>
   1692c:	ee843603          	ld	a2,-280(s0)
   16930:	eea43823          	sd	a0,-272(s0)
   16934:	00058513          	mv	a0,a1
   16938:	ef043583          	ld	a1,-272(s0)
   1693c:	00c57533          	and	a0,a0,a2
   16940:	f4b43823          	sd	a1,-176(s0)
   16944:	f4a43c23          	sd	a0,-168(s0)
   16948:	f6043603          	ld	a2,-160(s0)
   1694c:	f6843503          	ld	a0,-152(s0)
   16950:	07fff5b7          	lui	a1,0x7fff
   16954:	02459593          	sll	a1,a1,0x24
   16958:	00b536b3          	sltu	a3,a0,a1
   1695c:	eed43c23          	sd	a3,-264(s0)
   16960:	00163613          	seqz	a2,a2
   16964:	f0c43023          	sd	a2,-256(s0)
   16968:	00b50663          	beq	a0,a1,16974 <.LBB1_4>
   1696c:	ef843503          	ld	a0,-264(s0)
   16970:	f0a43023          	sd	a0,-256(s0)

0000000000016974 <.LBB1_4>:
   16974:	f0043503          	ld	a0,-256(s0)
   16978:	02051863          	bnez	a0,169a8 <.LBB1_6>
   1697c:	0040006f          	j	16980 <.LBB1_5>

0000000000016980 <.LBB1_5>:
   16980:	fd843583          	ld	a1,-40(s0)
   16984:	fd043503          	ld	a0,-48(s0)
   16988:	474000ef          	jal	16dfc <toRep>
   1698c:	00100613          	li	a2,1
   16990:	02f61613          	sll	a2,a2,0x2f
   16994:	00c5e5b3          	or	a1,a1,a2
   16998:	4a4000ef          	jal	16e3c <fromRep>
   1699c:	feb43423          	sd	a1,-24(s0)
   169a0:	fea43023          	sd	a0,-32(s0)
   169a4:	4400006f          	j	16de4 <.LBB1_44>

00000000000169a8 <.LBB1_6>:
   169a8:	f5043603          	ld	a2,-176(s0)
   169ac:	f5843503          	ld	a0,-168(s0)
   169b0:	07fff5b7          	lui	a1,0x7fff
   169b4:	02459593          	sll	a1,a1,0x24
   169b8:	00b536b3          	sltu	a3,a0,a1
   169bc:	ecd43823          	sd	a3,-304(s0)
   169c0:	00163613          	seqz	a2,a2
   169c4:	ecc43c23          	sd	a2,-296(s0)
   169c8:	00b50663          	beq	a0,a1,169d4 <.LBB1_8>
   169cc:	ed043503          	ld	a0,-304(s0)
   169d0:	eca43c23          	sd	a0,-296(s0)

00000000000169d4 <.LBB1_8>:
   169d4:	ed843503          	ld	a0,-296(s0)
   169d8:	02051863          	bnez	a0,16a08 <.LBB1_10>
   169dc:	0040006f          	j	169e0 <.LBB1_9>

00000000000169e0 <.LBB1_9>:
   169e0:	fc843583          	ld	a1,-56(s0)
   169e4:	fc043503          	ld	a0,-64(s0)
   169e8:	414000ef          	jal	16dfc <toRep>
   169ec:	00100613          	li	a2,1
   169f0:	02f61613          	sll	a2,a2,0x2f
   169f4:	00c5e5b3          	or	a1,a1,a2
   169f8:	444000ef          	jal	16e3c <fromRep>
   169fc:	feb43423          	sd	a1,-24(s0)
   16a00:	fea43023          	sd	a0,-32(s0)
   16a04:	3e00006f          	j	16de4 <.LBB1_44>

0000000000016a08 <.LBB1_10>:
   16a08:	f6043503          	ld	a0,-160(s0)
   16a0c:	f6843583          	ld	a1,-152(s0)
   16a10:	07fff637          	lui	a2,0x7fff
   16a14:	02461613          	sll	a2,a2,0x24
   16a18:	00c5c5b3          	xor	a1,a1,a2
   16a1c:	00b56533          	or	a0,a0,a1
   16a20:	06051063          	bnez	a0,16a80 <.LBB1_14>
   16a24:	0040006f          	j	16a28 <.LBB1_11>

0000000000016a28 <.LBB1_11>:
   16a28:	f5843583          	ld	a1,-168(s0)
   16a2c:	f5043503          	ld	a0,-176(s0)
   16a30:	00b56533          	or	a0,a0,a1
   16a34:	02050863          	beqz	a0,16a64 <.LBB1_13>
   16a38:	0040006f          	j	16a3c <.LBB1_12>

0000000000016a3c <.LBB1_12>:
   16a3c:	f6843583          	ld	a1,-152(s0)
   16a40:	f6043503          	ld	a0,-160(s0)
   16a44:	fa843603          	ld	a2,-88(s0)
   16a48:	fa043683          	ld	a3,-96(s0)
   16a4c:	00d56533          	or	a0,a0,a3
   16a50:	00c5e5b3          	or	a1,a1,a2
   16a54:	3e8000ef          	jal	16e3c <fromRep>
   16a58:	feb43423          	sd	a1,-24(s0)
   16a5c:	fea43023          	sd	a0,-32(s0)
   16a60:	3840006f          	j	16de4 <.LBB1_44>

0000000000016a64 <.LBB1_13>:
   16a64:	0ffff537          	lui	a0,0xffff
   16a68:	02351593          	sll	a1,a0,0x23
   16a6c:	00000513          	li	a0,0
   16a70:	3cc000ef          	jal	16e3c <fromRep>
   16a74:	feb43423          	sd	a1,-24(s0)
   16a78:	fea43023          	sd	a0,-32(s0)
   16a7c:	3680006f          	j	16de4 <.LBB1_44>

0000000000016a80 <.LBB1_14>:
   16a80:	f5043503          	ld	a0,-176(s0)
   16a84:	f5843583          	ld	a1,-168(s0)
   16a88:	07fff637          	lui	a2,0x7fff
   16a8c:	02461613          	sll	a2,a2,0x24
   16a90:	00c5c5b3          	xor	a1,a1,a2
   16a94:	00b56533          	or	a0,a0,a1
   16a98:	06051063          	bnez	a0,16af8 <.LBB1_18>
   16a9c:	0040006f          	j	16aa0 <.LBB1_15>

0000000000016aa0 <.LBB1_15>:
   16aa0:	f6843583          	ld	a1,-152(s0)
   16aa4:	f6043503          	ld	a0,-160(s0)
   16aa8:	00b56533          	or	a0,a0,a1
   16aac:	02050863          	beqz	a0,16adc <.LBB1_17>
   16ab0:	0040006f          	j	16ab4 <.LBB1_16>

0000000000016ab4 <.LBB1_16>:
   16ab4:	f5843583          	ld	a1,-168(s0)
   16ab8:	f5043503          	ld	a0,-176(s0)
   16abc:	fa843603          	ld	a2,-88(s0)
   16ac0:	fa043683          	ld	a3,-96(s0)
   16ac4:	00d56533          	or	a0,a0,a3
   16ac8:	00c5e5b3          	or	a1,a1,a2
   16acc:	370000ef          	jal	16e3c <fromRep>
   16ad0:	feb43423          	sd	a1,-24(s0)
   16ad4:	fea43023          	sd	a0,-32(s0)
   16ad8:	30c0006f          	j	16de4 <.LBB1_44>

0000000000016adc <.LBB1_17>:
   16adc:	0ffff537          	lui	a0,0xffff
   16ae0:	02351593          	sll	a1,a0,0x23
   16ae4:	00000513          	li	a0,0
   16ae8:	354000ef          	jal	16e3c <fromRep>
   16aec:	feb43423          	sd	a1,-24(s0)
   16af0:	fea43023          	sd	a0,-32(s0)
   16af4:	2f00006f          	j	16de4 <.LBB1_44>

0000000000016af8 <.LBB1_18>:
   16af8:	f6843583          	ld	a1,-152(s0)
   16afc:	f6043503          	ld	a0,-160(s0)
   16b00:	00b56533          	or	a0,a0,a1
   16b04:	02051063          	bnez	a0,16b24 <.LBB1_20>
   16b08:	0040006f          	j	16b0c <.LBB1_19>

0000000000016b0c <.LBB1_19>:
   16b0c:	fa843583          	ld	a1,-88(s0)
   16b10:	fa043503          	ld	a0,-96(s0)
   16b14:	328000ef          	jal	16e3c <fromRep>
   16b18:	feb43423          	sd	a1,-24(s0)
   16b1c:	fea43023          	sd	a0,-32(s0)
   16b20:	2c40006f          	j	16de4 <.LBB1_44>

0000000000016b24 <.LBB1_20>:
   16b24:	f5843583          	ld	a1,-168(s0)
   16b28:	f5043503          	ld	a0,-176(s0)
   16b2c:	00b56533          	or	a0,a0,a1
   16b30:	02051063          	bnez	a0,16b50 <.LBB1_22>
   16b34:	0040006f          	j	16b38 <.LBB1_21>

0000000000016b38 <.LBB1_21>:
   16b38:	fa843583          	ld	a1,-88(s0)
   16b3c:	fa043503          	ld	a0,-96(s0)
   16b40:	2fc000ef          	jal	16e3c <fromRep>
   16b44:	feb43423          	sd	a1,-24(s0)
   16b48:	fea43023          	sd	a0,-32(s0)
   16b4c:	2980006f          	j	16de4 <.LBB1_44>

0000000000016b50 <.LBB1_22>:
   16b50:	f6e45503          	lhu	a0,-146(s0)
   16b54:	02051263          	bnez	a0,16b78 <.LBB1_24>
   16b58:	0040006f          	j	16b5c <.LBB1_23>

0000000000016b5c <.LBB1_23>:
   16b5c:	f9040513          	add	a0,s0,-112
   16b60:	31c000ef          	jal	16e7c <normalize>
   16b64:	00050593          	mv	a1,a0
   16b68:	f7c42503          	lw	a0,-132(s0)
   16b6c:	00b5053b          	addw	a0,a0,a1
   16b70:	f6a42e23          	sw	a0,-132(s0)
   16b74:	0040006f          	j	16b78 <.LBB1_24>

0000000000016b78 <.LBB1_24>:
   16b78:	f5e45503          	lhu	a0,-162(s0)
   16b7c:	02051263          	bnez	a0,16ba0 <.LBB1_26>
   16b80:	0040006f          	j	16b84 <.LBB1_25>

0000000000016b84 <.LBB1_25>:
   16b84:	f8040513          	add	a0,s0,-128
   16b88:	2f4000ef          	jal	16e7c <normalize>
   16b8c:	00050593          	mv	a1,a0
   16b90:	f7c42503          	lw	a0,-132(s0)
   16b94:	00b5053b          	addw	a0,a0,a1
   16b98:	f6a42e23          	sw	a0,-132(s0)
   16b9c:	0040006f          	j	16ba0 <.LBB1_26>

0000000000016ba0 <.LBB1_26>:
   16ba0:	0040006f          	j	16ba4 <.LBB1_27>

0000000000016ba4 <.LBB1_27>:
   16ba4:	f9843503          	ld	a0,-104(s0)
   16ba8:	00100593          	li	a1,1
   16bac:	03059593          	sll	a1,a1,0x30
   16bb0:	00b56533          	or	a0,a0,a1
   16bb4:	f8a43c23          	sd	a0,-104(s0)
   16bb8:	f8843503          	ld	a0,-120(s0)
   16bbc:	00b56533          	or	a0,a0,a1
   16bc0:	f8a43423          	sd	a0,-120(s0)
   16bc4:	f9843583          	ld	a1,-104(s0)
   16bc8:	f9043503          	ld	a0,-112(s0)
   16bcc:	f8843683          	ld	a3,-120(s0)
   16bd0:	f8043603          	ld	a2,-128(s0)
   16bd4:	03165713          	srl	a4,a2,0x31
   16bd8:	00f69693          	sll	a3,a3,0xf
   16bdc:	00e6e6b3          	or	a3,a3,a4
   16be0:	00f61613          	sll	a2,a2,0xf
   16be4:	f4040713          	add	a4,s0,-192
   16be8:	f3040793          	add	a5,s0,-208
   16bec:	36c000ef          	jal	16f58 <wideMultiply>
   16bf0:	fbc42503          	lw	a0,-68(s0)
   16bf4:	fb842583          	lw	a1,-72(s0)
   16bf8:	00b5053b          	addw	a0,a0,a1
   16bfc:	f7c42583          	lw	a1,-132(s0)
   16c00:	00b5053b          	addw	a0,a0,a1
   16c04:	ffffc5b7          	lui	a1,0xffffc
   16c08:	0015859b          	addw	a1,a1,1 # ffffffffffffc001 <__global_pointer$+0xfffffffffffe0fb9>
   16c0c:	00b5053b          	addw	a0,a0,a1
   16c10:	f2a42623          	sw	a0,-212(s0)
   16c14:	f4e44503          	lbu	a0,-178(s0)
   16c18:	00157513          	and	a0,a0,1
   16c1c:	00050c63          	beqz	a0,16c34 <.LBB1_29>
   16c20:	0040006f          	j	16c24 <.LBB1_28>

0000000000016c24 <.LBB1_28>:
   16c24:	f2c42503          	lw	a0,-212(s0)
   16c28:	0015051b          	addw	a0,a0,1 # ffff001 <__global_pointer$+0xffe3fb9>
   16c2c:	f2a42623          	sw	a0,-212(s0)
   16c30:	0180006f          	j	16c48 <.LBB1_30>

0000000000016c34 <.LBB1_29>:
   16c34:	f4040513          	add	a0,s0,-192
   16c38:	f3040593          	add	a1,s0,-208
   16c3c:	00100613          	li	a2,1
   16c40:	63c000ef          	jal	1727c <wideLeftShift>
   16c44:	0040006f          	j	16c48 <.LBB1_30>

0000000000016c48 <.LBB1_30>:
   16c48:	f2c42503          	lw	a0,-212(s0)
   16c4c:	000085b7          	lui	a1,0x8
   16c50:	fff5859b          	addw	a1,a1,-1 # 7fff <.Lline_table_start0+0x7fff>
   16c54:	02b54663          	blt	a0,a1,16c80 <.LBB1_32>
   16c58:	0040006f          	j	16c5c <.LBB1_31>

0000000000016c5c <.LBB1_31>:
   16c5c:	fa043503          	ld	a0,-96(s0)
   16c60:	fa843583          	ld	a1,-88(s0)
   16c64:	07fff637          	lui	a2,0x7fff
   16c68:	02461613          	sll	a2,a2,0x24
   16c6c:	00c5e5b3          	or	a1,a1,a2
   16c70:	1cc000ef          	jal	16e3c <fromRep>
   16c74:	feb43423          	sd	a1,-24(s0)
   16c78:	fea43023          	sd	a0,-32(s0)
   16c7c:	1680006f          	j	16de4 <.LBB1_44>

0000000000016c80 <.LBB1_32>:
   16c80:	f2c42583          	lw	a1,-212(s0)
   16c84:	00000513          	li	a0,0
   16c88:	04b54a63          	blt	a0,a1,16cdc <.LBB1_36>
   16c8c:	0040006f          	j	16c90 <.LBB1_33>

0000000000016c90 <.LBB1_33>:
   16c90:	f2c42583          	lw	a1,-212(s0)
   16c94:	00100513          	li	a0,1
   16c98:	40b5053b          	subw	a0,a0,a1
   16c9c:	f2a42423          	sw	a0,-216(s0)
   16ca0:	f2842503          	lw	a0,-216(s0)
   16ca4:	08000593          	li	a1,128
   16ca8:	02b56063          	bltu	a0,a1,16cc8 <.LBB1_35>
   16cac:	0040006f          	j	16cb0 <.LBB1_34>

0000000000016cb0 <.LBB1_34>:
   16cb0:	fa843583          	ld	a1,-88(s0)
   16cb4:	fa043503          	ld	a0,-96(s0)
   16cb8:	184000ef          	jal	16e3c <fromRep>
   16cbc:	feb43423          	sd	a1,-24(s0)
   16cc0:	fea43023          	sd	a0,-32(s0)
   16cc4:	1200006f          	j	16de4 <.LBB1_44>

0000000000016cc8 <.LBB1_35>:
   16cc8:	f2842603          	lw	a2,-216(s0)
   16ccc:	f4040513          	add	a0,s0,-192
   16cd0:	f3040593          	add	a1,s0,-208
   16cd4:	74c000ef          	jal	17420 <wideRightShiftWithSticky>
   16cd8:	0340006f          	j	16d0c <.LBB1_37>

0000000000016cdc <.LBB1_36>:
   16cdc:	f4843503          	ld	a0,-184(s0)
   16ce0:	01051513          	sll	a0,a0,0x10
   16ce4:	01055513          	srl	a0,a0,0x10
   16ce8:	f4a43423          	sd	a0,-184(s0)
   16cec:	f2c42503          	lw	a0,-212(s0)
   16cf0:	03051613          	sll	a2,a0,0x30
   16cf4:	f4043583          	ld	a1,-192(s0)
   16cf8:	f4843503          	ld	a0,-184(s0)
   16cfc:	00c56533          	or	a0,a0,a2
   16d00:	f4b43023          	sd	a1,-192(s0)
   16d04:	f4a43423          	sd	a0,-184(s0)
   16d08:	0040006f          	j	16d0c <.LBB1_37>

0000000000016d0c <.LBB1_37>:
   16d0c:	fa843603          	ld	a2,-88(s0)
   16d10:	fa043683          	ld	a3,-96(s0)
   16d14:	f4843583          	ld	a1,-184(s0)
   16d18:	f4043503          	ld	a0,-192(s0)
   16d1c:	00d56533          	or	a0,a0,a3
   16d20:	00c5e5b3          	or	a1,a1,a2
   16d24:	f4b43423          	sd	a1,-184(s0)
   16d28:	f4a43023          	sd	a0,-192(s0)
   16d2c:	f3843503          	ld	a0,-200(s0)
   16d30:	f3043583          	ld	a1,-208(s0)
   16d34:	0015b613          	seqz	a2,a1
   16d38:	00052593          	slti	a1,a0,0
   16d3c:	0015c593          	xor	a1,a1,1
   16d40:	ecb43023          	sd	a1,-320(s0)
   16d44:	fff00593          	li	a1,-1
   16d48:	03f59593          	sll	a1,a1,0x3f
   16d4c:	ecc43423          	sd	a2,-312(s0)
   16d50:	00b50663          	beq	a0,a1,16d5c <.LBB1_39>
   16d54:	ec043503          	ld	a0,-320(s0)
   16d58:	eca43423          	sd	a0,-312(s0)

0000000000016d5c <.LBB1_39>:
   16d5c:	ec843503          	ld	a0,-312(s0)
   16d60:	02051463          	bnez	a0,16d88 <.LBB1_41>
   16d64:	0040006f          	j	16d68 <.LBB1_40>

0000000000016d68 <.LBB1_40>:
   16d68:	f4843503          	ld	a0,-184(s0)
   16d6c:	f4043603          	ld	a2,-192(s0)
   16d70:	00160593          	add	a1,a2,1 # 7fff001 <__global_pointer$+0x7fe3fb9>
   16d74:	00c5b633          	sltu	a2,a1,a2
   16d78:	00c50533          	add	a0,a0,a2
   16d7c:	f4b43023          	sd	a1,-192(s0)
   16d80:	f4a43423          	sd	a0,-184(s0)
   16d84:	0040006f          	j	16d88 <.LBB1_41>

0000000000016d88 <.LBB1_41>:
   16d88:	f3043503          	ld	a0,-208(s0)
   16d8c:	f3843583          	ld	a1,-200(s0)
   16d90:	fff00613          	li	a2,-1
   16d94:	03f61613          	sll	a2,a2,0x3f
   16d98:	00c5c5b3          	xor	a1,a1,a2
   16d9c:	00b56533          	or	a0,a0,a1
   16da0:	02051663          	bnez	a0,16dcc <.LBB1_43>
   16da4:	0040006f          	j	16da8 <.LBB1_42>

0000000000016da8 <.LBB1_42>:
   16da8:	f4843503          	ld	a0,-184(s0)
   16dac:	f4043603          	ld	a2,-192(s0)
   16db0:	00167593          	and	a1,a2,1
   16db4:	00b605b3          	add	a1,a2,a1
   16db8:	00c5b633          	sltu	a2,a1,a2
   16dbc:	00c50533          	add	a0,a0,a2
   16dc0:	f4b43023          	sd	a1,-192(s0)
   16dc4:	f4a43423          	sd	a0,-184(s0)
   16dc8:	0040006f          	j	16dcc <.LBB1_43>

0000000000016dcc <.LBB1_43>:
   16dcc:	f4843583          	ld	a1,-184(s0)
   16dd0:	f4043503          	ld	a0,-192(s0)
   16dd4:	068000ef          	jal	16e3c <fromRep>
   16dd8:	feb43423          	sd	a1,-24(s0)
   16ddc:	fea43023          	sd	a0,-32(s0)
   16de0:	0040006f          	j	16de4 <.LBB1_44>

0000000000016de4 <.LBB1_44>:
   16de4:	fe043503          	ld	a0,-32(s0)
   16de8:	fe843583          	ld	a1,-24(s0)
   16dec:	13813083          	ld	ra,312(sp)
   16df0:	13013403          	ld	s0,304(sp)
   16df4:	14010113          	add	sp,sp,320
   16df8:	00008067          	ret

0000000000016dfc <toRep>:
   16dfc:	fd010113          	add	sp,sp,-48
   16e00:	02113423          	sd	ra,40(sp)
   16e04:	02813023          	sd	s0,32(sp)
   16e08:	03010413          	add	s0,sp,48
   16e0c:	feb43423          	sd	a1,-24(s0)
   16e10:	fea43023          	sd	a0,-32(s0)
   16e14:	fe043503          	ld	a0,-32(s0)
   16e18:	fe843583          	ld	a1,-24(s0)
   16e1c:	fcb43c23          	sd	a1,-40(s0)
   16e20:	fca43823          	sd	a0,-48(s0)
   16e24:	fd043503          	ld	a0,-48(s0)
   16e28:	fd843583          	ld	a1,-40(s0)
   16e2c:	02813083          	ld	ra,40(sp)
   16e30:	02013403          	ld	s0,32(sp)
   16e34:	03010113          	add	sp,sp,48
   16e38:	00008067          	ret

0000000000016e3c <fromRep>:
   16e3c:	fd010113          	add	sp,sp,-48
   16e40:	02113423          	sd	ra,40(sp)
   16e44:	02813023          	sd	s0,32(sp)
   16e48:	03010413          	add	s0,sp,48
   16e4c:	feb43423          	sd	a1,-24(s0)
   16e50:	fea43023          	sd	a0,-32(s0)
   16e54:	fe043503          	ld	a0,-32(s0)
   16e58:	fe843583          	ld	a1,-24(s0)
   16e5c:	fcb43c23          	sd	a1,-40(s0)
   16e60:	fca43823          	sd	a0,-48(s0)
   16e64:	fd043503          	ld	a0,-48(s0)
   16e68:	fd843583          	ld	a1,-40(s0)
   16e6c:	02813083          	ld	ra,40(sp)
   16e70:	02013403          	ld	s0,32(sp)
   16e74:	03010113          	add	sp,sp,48
   16e78:	00008067          	ret

0000000000016e7c <normalize>:
   16e7c:	fa010113          	add	sp,sp,-96
   16e80:	04113c23          	sd	ra,88(sp)
   16e84:	04813823          	sd	s0,80(sp)
   16e88:	06010413          	add	s0,sp,96
   16e8c:	fea43423          	sd	a0,-24(s0)
   16e90:	fe843503          	ld	a0,-24(s0)
   16e94:	00853583          	ld	a1,8(a0)
   16e98:	00053503          	ld	a0,0(a0)
   16e9c:	135000ef          	jal	177d0 <rep_clz>
   16ea0:	faa43c23          	sd	a0,-72(s0)
   16ea4:	00100513          	li	a0,1
   16ea8:	faa43423          	sd	a0,-88(s0)
   16eac:	03051593          	sll	a1,a0,0x30
   16eb0:	00000513          	li	a0,0
   16eb4:	faa43823          	sd	a0,-80(s0)
   16eb8:	119000ef          	jal	177d0 <rep_clz>
   16ebc:	00050593          	mv	a1,a0
   16ec0:	fb843503          	ld	a0,-72(s0)
   16ec4:	40b5053b          	subw	a0,a0,a1
   16ec8:	fea42223          	sw	a0,-28(s0)
   16ecc:	fe446503          	lwu	a0,-28(s0)
   16ed0:	fe843583          	ld	a1,-24(s0)
   16ed4:	fcb43023          	sd	a1,-64(s0)
   16ed8:	0005b603          	ld	a2,0(a1)
   16edc:	0085b583          	ld	a1,8(a1)
   16ee0:	00a595b3          	sll	a1,a1,a0
   16ee4:	fff54713          	not	a4,a0
   16ee8:	00165693          	srl	a3,a2,0x1
   16eec:	00e6d6b3          	srl	a3,a3,a4
   16ef0:	00d5e5b3          	or	a1,a1,a3
   16ef4:	00a61633          	sll	a2,a2,a0
   16ef8:	fcc43423          	sd	a2,-56(s0)
   16efc:	fc050513          	add	a0,a0,-64
   16f00:	fca43823          	sd	a0,-48(s0)
   16f04:	fcb43c23          	sd	a1,-40(s0)
   16f08:	00054663          	bltz	a0,16f14 <.LBB4_2>
   16f0c:	fc843503          	ld	a0,-56(s0)
   16f10:	fca43c23          	sd	a0,-40(s0)

0000000000016f14 <.LBB4_2>:
   16f14:	fa843503          	ld	a0,-88(s0)
   16f18:	fc043603          	ld	a2,-64(s0)
   16f1c:	fc843703          	ld	a4,-56(s0)
   16f20:	fb043683          	ld	a3,-80(s0)
   16f24:	fd043783          	ld	a5,-48(s0)
   16f28:	fd843583          	ld	a1,-40(s0)
   16f2c:	0007a793          	slti	a5,a5,0
   16f30:	40f686b3          	sub	a3,a3,a5
   16f34:	00e6f6b3          	and	a3,a3,a4
   16f38:	00d63023          	sd	a3,0(a2)
   16f3c:	00b63423          	sd	a1,8(a2)
   16f40:	fe442583          	lw	a1,-28(s0)
   16f44:	40b5053b          	subw	a0,a0,a1
   16f48:	05813083          	ld	ra,88(sp)
   16f4c:	05013403          	ld	s0,80(sp)
   16f50:	06010113          	add	sp,sp,96
   16f54:	00008067          	ret

0000000000016f58 <wideMultiply>:
   16f58:	eb010113          	add	sp,sp,-336
   16f5c:	14113423          	sd	ra,328(sp)
   16f60:	14813023          	sd	s0,320(sp)
   16f64:	15010413          	add	s0,sp,336
   16f68:	feb43423          	sd	a1,-24(s0)
   16f6c:	fea43023          	sd	a0,-32(s0)
   16f70:	fcd43c23          	sd	a3,-40(s0)
   16f74:	fcc43823          	sd	a2,-48(s0)
   16f78:	fce43423          	sd	a4,-56(s0)
   16f7c:	fcf43023          	sd	a5,-64(s0)
   16f80:	fec46503          	lwu	a0,-20(s0)
   16f84:	fdc46583          	lwu	a1,-36(s0)
   16f88:	8f5fb0ef          	jal	1287c <__muldi3>
   16f8c:	faa43c23          	sd	a0,-72(s0)
   16f90:	fec46503          	lwu	a0,-20(s0)
   16f94:	fd846583          	lwu	a1,-40(s0)
   16f98:	8e5fb0ef          	jal	1287c <__muldi3>
   16f9c:	faa43823          	sd	a0,-80(s0)
   16fa0:	fec46503          	lwu	a0,-20(s0)
   16fa4:	fd446583          	lwu	a1,-44(s0)
   16fa8:	8d5fb0ef          	jal	1287c <__muldi3>
   16fac:	faa43423          	sd	a0,-88(s0)
   16fb0:	fec46503          	lwu	a0,-20(s0)
   16fb4:	fd046583          	lwu	a1,-48(s0)
   16fb8:	8c5fb0ef          	jal	1287c <__muldi3>
   16fbc:	faa43023          	sd	a0,-96(s0)
   16fc0:	fe846503          	lwu	a0,-24(s0)
   16fc4:	fdc46583          	lwu	a1,-36(s0)
   16fc8:	8b5fb0ef          	jal	1287c <__muldi3>
   16fcc:	f8a43c23          	sd	a0,-104(s0)
   16fd0:	fe846503          	lwu	a0,-24(s0)
   16fd4:	fd846583          	lwu	a1,-40(s0)
   16fd8:	8a5fb0ef          	jal	1287c <__muldi3>
   16fdc:	f8a43823          	sd	a0,-112(s0)
   16fe0:	fe846503          	lwu	a0,-24(s0)
   16fe4:	fd446583          	lwu	a1,-44(s0)
   16fe8:	895fb0ef          	jal	1287c <__muldi3>
   16fec:	f8a43423          	sd	a0,-120(s0)
   16ff0:	fe846503          	lwu	a0,-24(s0)
   16ff4:	fd046583          	lwu	a1,-48(s0)
   16ff8:	885fb0ef          	jal	1287c <__muldi3>
   16ffc:	f8a43023          	sd	a0,-128(s0)
   17000:	fe446503          	lwu	a0,-28(s0)
   17004:	fdc46583          	lwu	a1,-36(s0)
   17008:	875fb0ef          	jal	1287c <__muldi3>
   1700c:	f6a43c23          	sd	a0,-136(s0)
   17010:	fe446503          	lwu	a0,-28(s0)
   17014:	fd846583          	lwu	a1,-40(s0)
   17018:	865fb0ef          	jal	1287c <__muldi3>
   1701c:	f6a43823          	sd	a0,-144(s0)
   17020:	fe446503          	lwu	a0,-28(s0)
   17024:	fd446583          	lwu	a1,-44(s0)
   17028:	855fb0ef          	jal	1287c <__muldi3>
   1702c:	f6a43423          	sd	a0,-152(s0)
   17030:	fe446503          	lwu	a0,-28(s0)
   17034:	fd046583          	lwu	a1,-48(s0)
   17038:	845fb0ef          	jal	1287c <__muldi3>
   1703c:	f6a43023          	sd	a0,-160(s0)
   17040:	fe046503          	lwu	a0,-32(s0)
   17044:	fdc46583          	lwu	a1,-36(s0)
   17048:	835fb0ef          	jal	1287c <__muldi3>
   1704c:	f4a43c23          	sd	a0,-168(s0)
   17050:	fe046503          	lwu	a0,-32(s0)
   17054:	fd846583          	lwu	a1,-40(s0)
   17058:	825fb0ef          	jal	1287c <__muldi3>
   1705c:	f4a43823          	sd	a0,-176(s0)
   17060:	fe046503          	lwu	a0,-32(s0)
   17064:	fd446583          	lwu	a1,-44(s0)
   17068:	815fb0ef          	jal	1287c <__muldi3>
   1706c:	f4a43423          	sd	a0,-184(s0)
   17070:	fe046503          	lwu	a0,-32(s0)
   17074:	fd046583          	lwu	a1,-48(s0)
   17078:	805fb0ef          	jal	1287c <__muldi3>
   1707c:	f4a43023          	sd	a0,-192(s0)
   17080:	f4043503          	ld	a0,-192(s0)
   17084:	00000593          	li	a1,0
   17088:	f2b43c23          	sd	a1,-200(s0)
   1708c:	f2a43823          	sd	a0,-208(s0)
   17090:	f6043503          	ld	a0,-160(s0)
   17094:	f4843603          	ld	a2,-184(s0)
   17098:	00c50633          	add	a2,a0,a2
   1709c:	00a63533          	sltu	a0,a2,a0
   170a0:	f2c43023          	sd	a2,-224(s0)
   170a4:	f2a43423          	sd	a0,-216(s0)
   170a8:	f8043503          	ld	a0,-128(s0)
   170ac:	f6843603          	ld	a2,-152(s0)
   170b0:	00c506b3          	add	a3,a0,a2
   170b4:	00a6b533          	sltu	a0,a3,a0
   170b8:	f5043603          	ld	a2,-176(s0)
   170bc:	00c68633          	add	a2,a3,a2
   170c0:	00d636b3          	sltu	a3,a2,a3
   170c4:	00d50533          	add	a0,a0,a3
   170c8:	f0c43823          	sd	a2,-240(s0)
   170cc:	f0a43c23          	sd	a0,-232(s0)
   170d0:	fa043503          	ld	a0,-96(s0)
   170d4:	f8843603          	ld	a2,-120(s0)
   170d8:	00c50633          	add	a2,a0,a2
   170dc:	00a63533          	sltu	a0,a2,a0
   170e0:	f7043683          	ld	a3,-144(s0)
   170e4:	00d606b3          	add	a3,a2,a3
   170e8:	00c6b633          	sltu	a2,a3,a2
   170ec:	00c50533          	add	a0,a0,a2
   170f0:	f5843603          	ld	a2,-168(s0)
   170f4:	00c68633          	add	a2,a3,a2
   170f8:	00d636b3          	sltu	a3,a2,a3
   170fc:	00d50533          	add	a0,a0,a3
   17100:	f0c43023          	sd	a2,-256(s0)
   17104:	f0a43423          	sd	a0,-248(s0)
   17108:	fa843503          	ld	a0,-88(s0)
   1710c:	f9043603          	ld	a2,-112(s0)
   17110:	00c506b3          	add	a3,a0,a2
   17114:	00a6b533          	sltu	a0,a3,a0
   17118:	f7843603          	ld	a2,-136(s0)
   1711c:	00c68633          	add	a2,a3,a2
   17120:	00d636b3          	sltu	a3,a2,a3
   17124:	00d50533          	add	a0,a0,a3
   17128:	eec43823          	sd	a2,-272(s0)
   1712c:	eea43c23          	sd	a0,-264(s0)
   17130:	fb043503          	ld	a0,-80(s0)
   17134:	f9843603          	ld	a2,-104(s0)
   17138:	00c50633          	add	a2,a0,a2
   1713c:	00a63533          	sltu	a0,a2,a0
   17140:	eec43023          	sd	a2,-288(s0)
   17144:	eea43423          	sd	a0,-280(s0)
   17148:	fb843503          	ld	a0,-72(s0)
   1714c:	ecb43c23          	sd	a1,-296(s0)
   17150:	eca43823          	sd	a0,-304(s0)
   17154:	f3043503          	ld	a0,-208(s0)
   17158:	f2046583          	lwu	a1,-224(s0)
   1715c:	02059593          	sll	a1,a1,0x20
   17160:	00b505b3          	add	a1,a0,a1
   17164:	00a5b533          	sltu	a0,a1,a0
   17168:	ecb43023          	sd	a1,-320(s0)
   1716c:	eca43423          	sd	a0,-312(s0)
   17170:	f3843503          	ld	a0,-200(s0)
   17174:	f2446583          	lwu	a1,-220(s0)
   17178:	f2843603          	ld	a2,-216(s0)
   1717c:	02061613          	sll	a2,a2,0x20
   17180:	00c5e5b3          	or	a1,a1,a2
   17184:	00b505b3          	add	a1,a0,a1
   17188:	00a5b533          	sltu	a0,a1,a0
   1718c:	f1043603          	ld	a2,-240(s0)
   17190:	00c58633          	add	a2,a1,a2
   17194:	00b635b3          	sltu	a1,a2,a1
   17198:	00b50533          	add	a0,a0,a1
   1719c:	f0043583          	ld	a1,-256(s0)
   171a0:	02059593          	sll	a1,a1,0x20
   171a4:	00b605b3          	add	a1,a2,a1
   171a8:	00c5b633          	sltu	a2,a1,a2
   171ac:	00c50533          	add	a0,a0,a2
   171b0:	eab43823          	sd	a1,-336(s0)
   171b4:	eaa43c23          	sd	a0,-328(s0)
   171b8:	ec043603          	ld	a2,-320(s0)
   171bc:	ec843503          	ld	a0,-312(s0)
   171c0:	eb043583          	ld	a1,-336(s0)
   171c4:	00b50533          	add	a0,a0,a1
   171c8:	fc043583          	ld	a1,-64(s0)
   171cc:	00c5b023          	sd	a2,0(a1)
   171d0:	00a5b423          	sd	a0,8(a1)
   171d4:	eb843503          	ld	a0,-328(s0)
   171d8:	f2c46583          	lwu	a1,-212(s0)
   171dc:	00b50633          	add	a2,a0,a1
   171e0:	00a63533          	sltu	a0,a2,a0
   171e4:	f1843583          	ld	a1,-232(s0)
   171e8:	00b605b3          	add	a1,a2,a1
   171ec:	00c5b633          	sltu	a2,a1,a2
   171f0:	00c50533          	add	a0,a0,a2
   171f4:	f0446603          	lwu	a2,-252(s0)
   171f8:	f0843683          	ld	a3,-248(s0)
   171fc:	02069713          	sll	a4,a3,0x20
   17200:	00e66633          	or	a2,a2,a4
   17204:	0206d693          	srl	a3,a3,0x20
   17208:	00c58633          	add	a2,a1,a2
   1720c:	00b635b3          	sltu	a1,a2,a1
   17210:	00d50533          	add	a0,a0,a3
   17214:	00b50533          	add	a0,a0,a1
   17218:	ef843683          	ld	a3,-264(s0)
   1721c:	ef043583          	ld	a1,-272(s0)
   17220:	00b605b3          	add	a1,a2,a1
   17224:	00c5b633          	sltu	a2,a1,a2
   17228:	00d50533          	add	a0,a0,a3
   1722c:	00c50533          	add	a0,a0,a2
   17230:	ee843683          	ld	a3,-280(s0)
   17234:	ee043603          	ld	a2,-288(s0)
   17238:	02065713          	srl	a4,a2,0x20
   1723c:	02069693          	sll	a3,a3,0x20
   17240:	00e6e6b3          	or	a3,a3,a4
   17244:	02061613          	sll	a2,a2,0x20
   17248:	00d50533          	add	a0,a0,a3
   1724c:	00c58633          	add	a2,a1,a2
   17250:	00b635b3          	sltu	a1,a2,a1
   17254:	00b50533          	add	a0,a0,a1
   17258:	ed043583          	ld	a1,-304(s0)
   1725c:	00b50533          	add	a0,a0,a1
   17260:	fc843583          	ld	a1,-56(s0)
   17264:	00c5b023          	sd	a2,0(a1)
   17268:	00a5b423          	sd	a0,8(a1)
   1726c:	14813083          	ld	ra,328(sp)
   17270:	14013403          	ld	s0,320(sp)
   17274:	15010113          	add	sp,sp,336
   17278:	00008067          	ret

000000000001727c <wideLeftShift>:
   1727c:	f5010113          	add	sp,sp,-176
   17280:	0a113423          	sd	ra,168(sp)
   17284:	0a813023          	sd	s0,160(sp)
   17288:	0b010413          	add	s0,sp,176
   1728c:	fea43423          	sd	a0,-24(s0)
   17290:	feb43023          	sd	a1,-32(s0)
   17294:	fcc42e23          	sw	a2,-36(s0)
   17298:	fe843503          	ld	a0,-24(s0)
   1729c:	faa43423          	sd	a0,-88(s0)
   172a0:	00053603          	ld	a2,0(a0)
   172a4:	fac43823          	sd	a2,-80(s0)
   172a8:	00853583          	ld	a1,8(a0)
   172ac:	fdc42503          	lw	a0,-36(s0)
   172b0:	faa43c23          	sd	a0,-72(s0)
   172b4:	00a595b3          	sll	a1,a1,a0
   172b8:	00165693          	srl	a3,a2,0x1
   172bc:	02051513          	sll	a0,a0,0x20
   172c0:	02055513          	srl	a0,a0,0x20
   172c4:	fff54713          	not	a4,a0
   172c8:	00e6d6b3          	srl	a3,a3,a4
   172cc:	00d5e5b3          	or	a1,a1,a3
   172d0:	00a61633          	sll	a2,a2,a0
   172d4:	fcc43023          	sd	a2,-64(s0)
   172d8:	fc050513          	add	a0,a0,-64
   172dc:	fca43423          	sd	a0,-56(s0)
   172e0:	fcb43823          	sd	a1,-48(s0)
   172e4:	00054663          	bltz	a0,172f0 <.LBB6_2>
   172e8:	fc043503          	ld	a0,-64(s0)
   172ec:	fca43823          	sd	a0,-48(s0)

00000000000172f0 <.LBB6_2>:
   172f0:	fb843883          	ld	a7,-72(s0)
   172f4:	fc843503          	ld	a0,-56(s0)
   172f8:	fb043583          	ld	a1,-80(s0)
   172fc:	fd043603          	ld	a2,-48(s0)
   17300:	f6c43c23          	sd	a2,-136(s0)
   17304:	011595b3          	sll	a1,a1,a7
   17308:	00052513          	slti	a0,a0,0
   1730c:	00000793          	li	a5,0
   17310:	f8f43023          	sd	a5,-128(s0)
   17314:	40a78533          	sub	a0,a5,a0
   17318:	00b57533          	and	a0,a0,a1
   1731c:	f8a43423          	sd	a0,-120(s0)
   17320:	fe043503          	ld	a0,-32(s0)
   17324:	00053583          	ld	a1,0(a0)
   17328:	00853603          	ld	a2,8(a0)
   1732c:	08000513          	li	a0,128
   17330:	411506bb          	subw	a3,a0,a7
   17334:	4110073b          	negw	a4,a7
   17338:	00e65833          	srl	a6,a2,a4
   1733c:	f9043823          	sd	a6,-112(s0)
   17340:	04000513          	li	a0,64
   17344:	41150533          	sub	a0,a0,a7
   17348:	00052893          	slti	a7,a0,0
   1734c:	411787b3          	sub	a5,a5,a7
   17350:	0107f7b3          	and	a5,a5,a6
   17354:	f8f43c23          	sd	a5,-104(s0)
   17358:	00e5d5b3          	srl	a1,a1,a4
   1735c:	fff6c693          	not	a3,a3
   17360:	00161613          	sll	a2,a2,0x1
   17364:	00d61633          	sll	a2,a2,a3
   17368:	00c5e5b3          	or	a1,a1,a2
   1736c:	fab43023          	sd	a1,-96(s0)
   17370:	00054663          	bltz	a0,1737c <.LBB6_4>
   17374:	f9043503          	ld	a0,-112(s0)
   17378:	faa43023          	sd	a0,-96(s0)

000000000001737c <.LBB6_4>:
   1737c:	fa843583          	ld	a1,-88(s0)
   17380:	f7843603          	ld	a2,-136(s0)
   17384:	f9843683          	ld	a3,-104(s0)
   17388:	f8843503          	ld	a0,-120(s0)
   1738c:	fa043703          	ld	a4,-96(s0)
   17390:	00e56533          	or	a0,a0,a4
   17394:	00d66633          	or	a2,a2,a3
   17398:	00c5b423          	sd	a2,8(a1)
   1739c:	00a5b023          	sd	a0,0(a1)
   173a0:	fe043503          	ld	a0,-32(s0)
   173a4:	f4a43c23          	sd	a0,-168(s0)
   173a8:	00053603          	ld	a2,0(a0)
   173ac:	00853583          	ld	a1,8(a0)
   173b0:	fdc46503          	lwu	a0,-36(s0)
   173b4:	00a595b3          	sll	a1,a1,a0
   173b8:	fff54713          	not	a4,a0
   173bc:	00165693          	srl	a3,a2,0x1
   173c0:	00e6d6b3          	srl	a3,a3,a4
   173c4:	00d5e5b3          	or	a1,a1,a3
   173c8:	00a61633          	sll	a2,a2,a0
   173cc:	f6c43023          	sd	a2,-160(s0)
   173d0:	fc050513          	add	a0,a0,-64
   173d4:	f6a43423          	sd	a0,-152(s0)
   173d8:	f6b43823          	sd	a1,-144(s0)
   173dc:	00054663          	bltz	a0,173e8 <.LBB6_6>
   173e0:	f6043503          	ld	a0,-160(s0)
   173e4:	f6a43823          	sd	a0,-144(s0)

00000000000173e8 <.LBB6_6>:
   173e8:	f5843583          	ld	a1,-168(s0)
   173ec:	f6043683          	ld	a3,-160(s0)
   173f0:	f8043603          	ld	a2,-128(s0)
   173f4:	f6843703          	ld	a4,-152(s0)
   173f8:	f7043503          	ld	a0,-144(s0)
   173fc:	00072713          	slti	a4,a4,0
   17400:	40e60633          	sub	a2,a2,a4
   17404:	00d67633          	and	a2,a2,a3
   17408:	00c5b023          	sd	a2,0(a1)
   1740c:	00a5b423          	sd	a0,8(a1)
   17410:	0a813083          	ld	ra,168(sp)
   17414:	0a013403          	ld	s0,160(sp)
   17418:	0b010113          	add	sp,sp,176
   1741c:	00008067          	ret

0000000000017420 <wideRightShiftWithSticky>:
   17420:	f0010113          	add	sp,sp,-256
   17424:	0e113c23          	sd	ra,248(sp)
   17428:	0e813823          	sd	s0,240(sp)
   1742c:	10010413          	add	s0,sp,256
   17430:	fea43423          	sd	a0,-24(s0)
   17434:	feb43023          	sd	a1,-32(s0)
   17438:	fcc42e23          	sw	a2,-36(s0)
   1743c:	fdc42583          	lw	a1,-36(s0)
   17440:	07f00513          	li	a0,127
   17444:	1eb56e63          	bltu	a0,a1,17640 <.LBB7_10>
   17448:	0040006f          	j	1744c <.LBB7_1>

000000000001744c <.LBB7_1>:
   1744c:	fe043503          	ld	a0,-32(s0)
   17450:	00053603          	ld	a2,0(a0)
   17454:	00853503          	ld	a0,8(a0)
   17458:	fdc46703          	lwu	a4,-36(s0)
   1745c:	08000593          	li	a1,128
   17460:	fab43823          	sd	a1,-80(s0)
   17464:	40e585bb          	subw	a1,a1,a4
   17468:	40e006bb          	negw	a3,a4
   1746c:	00d51533          	sll	a0,a0,a3
   17470:	fff5c793          	not	a5,a1
   17474:	00165593          	srl	a1,a2,0x1
   17478:	00f5d5b3          	srl	a1,a1,a5
   1747c:	00b565b3          	or	a1,a0,a1
   17480:	04000513          	li	a0,64
   17484:	faa43c23          	sd	a0,-72(s0)
   17488:	40e50533          	sub	a0,a0,a4
   1748c:	fca43023          	sd	a0,-64(s0)
   17490:	00d61633          	sll	a2,a2,a3
   17494:	fcc43423          	sd	a2,-56(s0)
   17498:	fcb43823          	sd	a1,-48(s0)
   1749c:	00054663          	bltz	a0,174a8 <.LBB7_3>
   174a0:	fc843503          	ld	a0,-56(s0)
   174a4:	fca43823          	sd	a0,-48(s0)

00000000000174a8 <.LBB7_3>:
   174a8:	fb843503          	ld	a0,-72(s0)
   174ac:	fb043683          	ld	a3,-80(s0)
   174b0:	fc843703          	ld	a4,-56(s0)
   174b4:	fc043583          	ld	a1,-64(s0)
   174b8:	fd043603          	ld	a2,-48(s0)
   174bc:	0005a593          	slti	a1,a1,0
   174c0:	00000793          	li	a5,0
   174c4:	f8f43423          	sd	a5,-120(s0)
   174c8:	40b785b3          	sub	a1,a5,a1
   174cc:	00e5f5b3          	and	a1,a1,a4
   174d0:	00c5e5b3          	or	a1,a1,a2
   174d4:	00b035b3          	snez	a1,a1
   174d8:	fcb40da3          	sb	a1,-37(s0)
   174dc:	fe843603          	ld	a2,-24(s0)
   174e0:	00863583          	ld	a1,8(a2)
   174e4:	00063603          	ld	a2,0(a2)
   174e8:	fdc46883          	lwu	a7,-36(s0)
   174ec:	f9143823          	sd	a7,-112(s0)
   174f0:	411686bb          	subw	a3,a3,a7
   174f4:	4110073b          	negw	a4,a7
   174f8:	00e61833          	sll	a6,a2,a4
   174fc:	f9043c23          	sd	a6,-104(s0)
   17500:	41150533          	sub	a0,a0,a7
   17504:	00052893          	slti	a7,a0,0
   17508:	411787b3          	sub	a5,a5,a7
   1750c:	0107f7b3          	and	a5,a5,a6
   17510:	faf43023          	sd	a5,-96(s0)
   17514:	00e595b3          	sll	a1,a1,a4
   17518:	fff6c693          	not	a3,a3
   1751c:	00165613          	srl	a2,a2,0x1
   17520:	00d65633          	srl	a2,a2,a3
   17524:	00c5e5b3          	or	a1,a1,a2
   17528:	fab43423          	sd	a1,-88(s0)
   1752c:	00054663          	bltz	a0,17538 <.LBB7_5>
   17530:	f9843503          	ld	a0,-104(s0)
   17534:	faa43423          	sd	a0,-88(s0)

0000000000017538 <.LBB7_5>:
   17538:	f9043503          	ld	a0,-112(s0)
   1753c:	fa843583          	ld	a1,-88(s0)
   17540:	f6b43023          	sd	a1,-160(s0)
   17544:	fe043583          	ld	a1,-32(s0)
   17548:	f6b43423          	sd	a1,-152(s0)
   1754c:	0085b603          	ld	a2,8(a1)
   17550:	0005b583          	ld	a1,0(a1)
   17554:	00a5d5b3          	srl	a1,a1,a0
   17558:	fff54713          	not	a4,a0
   1755c:	00161693          	sll	a3,a2,0x1
   17560:	00e696b3          	sll	a3,a3,a4
   17564:	00d5e5b3          	or	a1,a1,a3
   17568:	00a65633          	srl	a2,a2,a0
   1756c:	f6c43823          	sd	a2,-144(s0)
   17570:	fc050513          	add	a0,a0,-64
   17574:	f6a43c23          	sd	a0,-136(s0)
   17578:	f8b43023          	sd	a1,-128(s0)
   1757c:	00054663          	bltz	a0,17588 <.LBB7_7>
   17580:	f7043503          	ld	a0,-144(s0)
   17584:	f8a43023          	sd	a0,-128(s0)

0000000000017588 <.LBB7_7>:
   17588:	f6843583          	ld	a1,-152(s0)
   1758c:	fa043503          	ld	a0,-96(s0)
   17590:	f6043603          	ld	a2,-160(s0)
   17594:	f7043783          	ld	a5,-144(s0)
   17598:	f8843703          	ld	a4,-120(s0)
   1759c:	f7843803          	ld	a6,-136(s0)
   175a0:	f8043683          	ld	a3,-128(s0)
   175a4:	00082813          	slti	a6,a6,0
   175a8:	41070733          	sub	a4,a4,a6
   175ac:	00f77733          	and	a4,a4,a5
   175b0:	00e66633          	or	a2,a2,a4
   175b4:	00d56533          	or	a0,a0,a3
   175b8:	fdb44683          	lbu	a3,-37(s0)
   175bc:	0016f693          	and	a3,a3,1
   175c0:	00d56533          	or	a0,a0,a3
   175c4:	00c5b423          	sd	a2,8(a1)
   175c8:	00a5b023          	sd	a0,0(a1)
   175cc:	fe843503          	ld	a0,-24(s0)
   175d0:	f4a43023          	sd	a0,-192(s0)
   175d4:	00853603          	ld	a2,8(a0)
   175d8:	00053583          	ld	a1,0(a0)
   175dc:	fdc46503          	lwu	a0,-36(s0)
   175e0:	00a5d5b3          	srl	a1,a1,a0
   175e4:	fff54713          	not	a4,a0
   175e8:	00161693          	sll	a3,a2,0x1
   175ec:	00e696b3          	sll	a3,a3,a4
   175f0:	00d5e5b3          	or	a1,a1,a3
   175f4:	00a65633          	srl	a2,a2,a0
   175f8:	f4c43423          	sd	a2,-184(s0)
   175fc:	fc050513          	add	a0,a0,-64
   17600:	f4a43823          	sd	a0,-176(s0)
   17604:	f4b43c23          	sd	a1,-168(s0)
   17608:	00054663          	bltz	a0,17614 <.LBB7_9>
   1760c:	f4843503          	ld	a0,-184(s0)
   17610:	f4a43c23          	sd	a0,-168(s0)

0000000000017614 <.LBB7_9>:
   17614:	f4043583          	ld	a1,-192(s0)
   17618:	f4843683          	ld	a3,-184(s0)
   1761c:	f8843603          	ld	a2,-120(s0)
   17620:	f5043703          	ld	a4,-176(s0)
   17624:	f5843503          	ld	a0,-168(s0)
   17628:	00072713          	slti	a4,a4,0
   1762c:	40e60633          	sub	a2,a2,a4
   17630:	00d67633          	and	a2,a2,a3
   17634:	00c5b423          	sd	a2,8(a1)
   17638:	00a5b023          	sd	a0,0(a1)
   1763c:	1840006f          	j	177c0 <.LBB7_18>

0000000000017640 <.LBB7_10>:
   17640:	fdc42583          	lw	a1,-36(s0)
   17644:	0ff00513          	li	a0,255
   17648:	12b56063          	bltu	a0,a1,17768 <.LBB7_16>
   1764c:	0040006f          	j	17650 <.LBB7_11>

0000000000017650 <.LBB7_11>:
   17650:	fe843503          	ld	a0,-24(s0)
   17654:	00053603          	ld	a2,0(a0)
   17658:	00853503          	ld	a0,8(a0)
   1765c:	fdc46703          	lwu	a4,-36(s0)
   17660:	10000593          	li	a1,256
   17664:	40e585bb          	subw	a1,a1,a4
   17668:	40e006bb          	negw	a3,a4
   1766c:	00d51533          	sll	a0,a0,a3
   17670:	fff5c793          	not	a5,a1
   17674:	00165593          	srl	a1,a2,0x1
   17678:	00f5d5b3          	srl	a1,a1,a5
   1767c:	00b565b3          	or	a1,a0,a1
   17680:	0c000513          	li	a0,192
   17684:	40e50533          	sub	a0,a0,a4
   17688:	f2a43423          	sd	a0,-216(s0)
   1768c:	00d61633          	sll	a2,a2,a3
   17690:	f2c43823          	sd	a2,-208(s0)
   17694:	f2b43c23          	sd	a1,-200(s0)
   17698:	00054663          	bltz	a0,176a4 <.LBB7_13>
   1769c:	f3043503          	ld	a0,-208(s0)
   176a0:	f2a43c23          	sd	a0,-200(s0)

00000000000176a4 <.LBB7_13>:
   176a4:	f3043603          	ld	a2,-208(s0)
   176a8:	f2843503          	ld	a0,-216(s0)
   176ac:	f3843583          	ld	a1,-200(s0)
   176b0:	00052513          	slti	a0,a0,0
   176b4:	00000713          	li	a4,0
   176b8:	f0e43423          	sd	a4,-248(s0)
   176bc:	40a70533          	sub	a0,a4,a0
   176c0:	00c57533          	and	a0,a0,a2
   176c4:	fe043683          	ld	a3,-32(s0)
   176c8:	0086b603          	ld	a2,8(a3) # 4077008 <__global_pointer$+0x405bfc0>
   176cc:	0006b683          	ld	a3,0(a3)
   176d0:	00d56533          	or	a0,a0,a3
   176d4:	00c5e5b3          	or	a1,a1,a2
   176d8:	00b56533          	or	a0,a0,a1
   176dc:	00a03533          	snez	a0,a0
   176e0:	fca40d23          	sb	a0,-38(s0)
   176e4:	fe843503          	ld	a0,-24(s0)
   176e8:	00053583          	ld	a1,0(a0)
   176ec:	00853603          	ld	a2,8(a0)
   176f0:	fdc46683          	lwu	a3,-36(s0)
   176f4:	00d657b3          	srl	a5,a2,a3
   176f8:	f0f43823          	sd	a5,-240(s0)
   176fc:	f4068513          	add	a0,a3,-192
   17700:	00052813          	slti	a6,a0,0
   17704:	41070733          	sub	a4,a4,a6
   17708:	00f77733          	and	a4,a4,a5
   1770c:	f0e43c23          	sd	a4,-232(s0)
   17710:	00d5d5b3          	srl	a1,a1,a3
   17714:	fff6c693          	not	a3,a3
   17718:	00161613          	sll	a2,a2,0x1
   1771c:	00d61633          	sll	a2,a2,a3
   17720:	00c5e5b3          	or	a1,a1,a2
   17724:	f2b43023          	sd	a1,-224(s0)
   17728:	00054663          	bltz	a0,17734 <.LBB7_15>
   1772c:	f1043503          	ld	a0,-240(s0)
   17730:	f2a43023          	sd	a0,-224(s0)

0000000000017734 <.LBB7_15>:
   17734:	f0843503          	ld	a0,-248(s0)
   17738:	f1843683          	ld	a3,-232(s0)
   1773c:	f2043583          	ld	a1,-224(s0)
   17740:	fda44603          	lbu	a2,-38(s0)
   17744:	00167613          	and	a2,a2,1
   17748:	00c5e5b3          	or	a1,a1,a2
   1774c:	fe043603          	ld	a2,-32(s0)
   17750:	00d63423          	sd	a3,8(a2)
   17754:	00b63023          	sd	a1,0(a2)
   17758:	fe843583          	ld	a1,-24(s0)
   1775c:	00a5b423          	sd	a0,8(a1)
   17760:	00a5b023          	sd	a0,0(a1)
   17764:	0580006f          	j	177bc <.LBB7_17>

0000000000017768 <.LBB7_16>:
   17768:	fe843583          	ld	a1,-24(s0)
   1776c:	0005b503          	ld	a0,0(a1)
   17770:	0085b583          	ld	a1,8(a1)
   17774:	fe043683          	ld	a3,-32(s0)
   17778:	0006b603          	ld	a2,0(a3)
   1777c:	0086b683          	ld	a3,8(a3)
   17780:	00d5e5b3          	or	a1,a1,a3
   17784:	00c56533          	or	a0,a0,a2
   17788:	00b56533          	or	a0,a0,a1
   1778c:	00a03533          	snez	a0,a0
   17790:	fca40ca3          	sb	a0,-39(s0)
   17794:	fd944503          	lbu	a0,-39(s0)
   17798:	00157593          	and	a1,a0,1
   1779c:	fe043603          	ld	a2,-32(s0)
   177a0:	00000513          	li	a0,0
   177a4:	00a63423          	sd	a0,8(a2)
   177a8:	00b63023          	sd	a1,0(a2)
   177ac:	fe843583          	ld	a1,-24(s0)
   177b0:	00a5b423          	sd	a0,8(a1)
   177b4:	00a5b023          	sd	a0,0(a1)
   177b8:	0040006f          	j	177bc <.LBB7_17>

00000000000177bc <.LBB7_17>:
   177bc:	0040006f          	j	177c0 <.LBB7_18>

00000000000177c0 <.LBB7_18>:
   177c0:	0f813083          	ld	ra,248(sp)
   177c4:	0f013403          	ld	s0,240(sp)
   177c8:	10010113          	add	sp,sp,256
   177cc:	00008067          	ret

00000000000177d0 <rep_clz>:
   177d0:	fc010113          	add	sp,sp,-64
   177d4:	02113c23          	sd	ra,56(sp)
   177d8:	02813823          	sd	s0,48(sp)
   177dc:	04010413          	add	s0,sp,64
   177e0:	feb43423          	sd	a1,-24(s0)
   177e4:	fea43023          	sd	a0,-32(s0)
   177e8:	fe043503          	ld	a0,-32(s0)
   177ec:	fe843583          	ld	a1,-24(s0)
   177f0:	fcb43c23          	sd	a1,-40(s0)
   177f4:	fca43823          	sd	a0,-48(s0)
   177f8:	fd843503          	ld	a0,-40(s0)
   177fc:	00050e63          	beqz	a0,17818 <.LBB8_2>
   17800:	0040006f          	j	17804 <.LBB8_1>

0000000000017804 <.LBB8_1>:
   17804:	fd843503          	ld	a0,-40(s0)
   17808:	fca43423          	sd	a0,-56(s0)
   1780c:	00000513          	li	a0,0
   17810:	fca43023          	sd	a0,-64(s0)
   17814:	0180006f          	j	1782c <.LBB8_3>

0000000000017818 <.LBB8_2>:
   17818:	fd043503          	ld	a0,-48(s0)
   1781c:	fca43423          	sd	a0,-56(s0)
   17820:	04000513          	li	a0,64
   17824:	fca43023          	sd	a0,-64(s0)
   17828:	0040006f          	j	1782c <.LBB8_3>

000000000001782c <.LBB8_3>:
   1782c:	fc843503          	ld	a0,-56(s0)
   17830:	00155593          	srl	a1,a0,0x1
   17834:	00b56533          	or	a0,a0,a1
   17838:	00255593          	srl	a1,a0,0x2
   1783c:	00b56533          	or	a0,a0,a1
   17840:	00455593          	srl	a1,a0,0x4
   17844:	00b56533          	or	a0,a0,a1
   17848:	00855593          	srl	a1,a0,0x8
   1784c:	00b56533          	or	a0,a0,a1
   17850:	01055593          	srl	a1,a0,0x10
   17854:	00b56533          	or	a0,a0,a1
   17858:	02055593          	srl	a1,a0,0x20
   1785c:	00b56533          	or	a0,a0,a1
   17860:	fff54513          	not	a0,a0
   17864:	00155593          	srl	a1,a0,0x1

0000000000017868 <.Lpcrel_hi0>:
   17868:	ffff9617          	auipc	a2,0xffff9
   1786c:	40060613          	add	a2,a2,1024 # 10c68 <errmsg+0x738>
   17870:	00063603          	ld	a2,0(a2)
   17874:	00c5f5b3          	and	a1,a1,a2
   17878:	40b505b3          	sub	a1,a0,a1

000000000001787c <.Lpcrel_hi1>:
   1787c:	ffff9517          	auipc	a0,0xffff9
   17880:	3d450513          	add	a0,a0,980 # 10c50 <errmsg+0x720>
   17884:	00053603          	ld	a2,0(a0)
   17888:	00c5f533          	and	a0,a1,a2
   1788c:	0025d593          	srl	a1,a1,0x2
   17890:	00c5f5b3          	and	a1,a1,a2
   17894:	00b50533          	add	a0,a0,a1
   17898:	00455593          	srl	a1,a0,0x4
   1789c:	00b50533          	add	a0,a0,a1

00000000000178a0 <.Lpcrel_hi2>:
   178a0:	ffff9597          	auipc	a1,0xffff9
   178a4:	3b858593          	add	a1,a1,952 # 10c58 <errmsg+0x728>
   178a8:	0005b583          	ld	a1,0(a1)
   178ac:	00b57533          	and	a0,a0,a1

00000000000178b0 <.Lpcrel_hi3>:
   178b0:	ffff9597          	auipc	a1,0xffff9
   178b4:	3b058593          	add	a1,a1,944 # 10c60 <errmsg+0x730>
   178b8:	0005b583          	ld	a1,0(a1)
   178bc:	fc1fa0ef          	jal	1287c <__muldi3>
   178c0:	03855513          	srl	a0,a0,0x38
   178c4:	fc043583          	ld	a1,-64(s0)
   178c8:	00b5053b          	addw	a0,a0,a1
   178cc:	03813083          	ld	ra,56(sp)
   178d0:	03013403          	ld	s0,48(sp)
   178d4:	04010113          	add	sp,sp,64
   178d8:	00008067          	ret

00000000000178dc <__addtf3>:
   178dc:	fd010113          	add	sp,sp,-48
   178e0:	02113423          	sd	ra,40(sp)
   178e4:	02813023          	sd	s0,32(sp)
   178e8:	03010413          	add	s0,sp,48
   178ec:	feb43423          	sd	a1,-24(s0)
   178f0:	fea43023          	sd	a0,-32(s0)
   178f4:	fcd43c23          	sd	a3,-40(s0)
   178f8:	fcc43823          	sd	a2,-48(s0)
   178fc:	fd843683          	ld	a3,-40(s0)
   17900:	fd043603          	ld	a2,-48(s0)
   17904:	fe843583          	ld	a1,-24(s0)
   17908:	fe043503          	ld	a0,-32(s0)
   1790c:	014000ef          	jal	17920 <__addXf3__>
   17910:	02813083          	ld	ra,40(sp)
   17914:	02013403          	ld	s0,32(sp)
   17918:	03010113          	add	sp,sp,48
   1791c:	00008067          	ret

0000000000017920 <__addXf3__>:
   17920:	df010113          	add	sp,sp,-528
   17924:	20113423          	sd	ra,520(sp)
   17928:	20813023          	sd	s0,512(sp)
   1792c:	21010413          	add	s0,sp,528
   17930:	fcb43c23          	sd	a1,-40(s0)
   17934:	fca43823          	sd	a0,-48(s0)
   17938:	fcd43423          	sd	a3,-56(s0)
   1793c:	fcc43023          	sd	a2,-64(s0)
   17940:	fd843583          	ld	a1,-40(s0)
   17944:	fd043503          	ld	a0,-48(s0)
   17948:	2b1000ef          	jal	183f8 <toRep>
   1794c:	fab43c23          	sd	a1,-72(s0)
   17950:	faa43823          	sd	a0,-80(s0)
   17954:	fc843583          	ld	a1,-56(s0)
   17958:	fc043503          	ld	a0,-64(s0)
   1795c:	29d000ef          	jal	183f8 <toRep>
   17960:	fab43423          	sd	a1,-88(s0)
   17964:	faa43023          	sd	a0,-96(s0)
   17968:	fb043583          	ld	a1,-80(s0)
   1796c:	fb843503          	ld	a0,-72(s0)
   17970:	fff00613          	li	a2,-1
   17974:	00165613          	srl	a2,a2,0x1
   17978:	00c57533          	and	a0,a0,a2
   1797c:	f8b43823          	sd	a1,-112(s0)
   17980:	f8a43c23          	sd	a0,-104(s0)
   17984:	fa043583          	ld	a1,-96(s0)
   17988:	fa843503          	ld	a0,-88(s0)
   1798c:	00c57533          	and	a0,a0,a2
   17990:	f8b43023          	sd	a1,-128(s0)
   17994:	f8a43423          	sd	a0,-120(s0)
   17998:	f9843503          	ld	a0,-104(s0)
   1799c:	f9043583          	ld	a1,-112(s0)
   179a0:	fff58613          	add	a2,a1,-1
   179a4:	00b635b3          	sltu	a1,a2,a1
   179a8:	00b50533          	add	a0,a0,a1
   179ac:	fff50513          	add	a0,a0,-1
   179b0:	07fff5b7          	lui	a1,0x7fff
   179b4:	02459593          	sll	a1,a1,0x24
   179b8:	fff58593          	add	a1,a1,-1 # 7ffefff <__global_pointer$+0x7fe3fb7>
   179bc:	00a5b6b3          	sltu	a3,a1,a0
   179c0:	eed43823          	sd	a3,-272(s0)
   179c4:	00160613          	add	a2,a2,1
   179c8:	00163613          	seqz	a2,a2
   179cc:	eec43c23          	sd	a2,-264(s0)
   179d0:	00b50663          	beq	a0,a1,179dc <.LBB1_2>
   179d4:	ef043503          	ld	a0,-272(s0)
   179d8:	eea43c23          	sd	a0,-264(s0)

00000000000179dc <.LBB1_2>:
   179dc:	ef843503          	ld	a0,-264(s0)
   179e0:	04051a63          	bnez	a0,17a34 <.LBB1_6>
   179e4:	0040006f          	j	179e8 <.LBB1_3>

00000000000179e8 <.LBB1_3>:
   179e8:	f8843503          	ld	a0,-120(s0)
   179ec:	f8043583          	ld	a1,-128(s0)
   179f0:	fff58613          	add	a2,a1,-1
   179f4:	00b635b3          	sltu	a1,a2,a1
   179f8:	00b50533          	add	a0,a0,a1
   179fc:	fff50513          	add	a0,a0,-1
   17a00:	07fff5b7          	lui	a1,0x7fff
   17a04:	02459593          	sll	a1,a1,0x24
   17a08:	fff58593          	add	a1,a1,-1 # 7ffefff <__global_pointer$+0x7fe3fb7>
   17a0c:	00b536b3          	sltu	a3,a0,a1
   17a10:	eed43023          	sd	a3,-288(s0)
   17a14:	fff63613          	sltiu	a2,a2,-1
   17a18:	eec43423          	sd	a2,-280(s0)
   17a1c:	00b50663          	beq	a0,a1,17a28 <.LBB1_5>
   17a20:	ee043503          	ld	a0,-288(s0)
   17a24:	eea43423          	sd	a0,-280(s0)

0000000000017a28 <.LBB1_5>:
   17a28:	ee843503          	ld	a0,-280(s0)
   17a2c:	24051663          	bnez	a0,17c78 <.LBB1_27>
   17a30:	0040006f          	j	17a34 <.LBB1_6>

0000000000017a34 <.LBB1_6>:
   17a34:	f9043603          	ld	a2,-112(s0)
   17a38:	f9843503          	ld	a0,-104(s0)
   17a3c:	07fff5b7          	lui	a1,0x7fff
   17a40:	02459593          	sll	a1,a1,0x24
   17a44:	00b536b3          	sltu	a3,a0,a1
   17a48:	ecd43823          	sd	a3,-304(s0)
   17a4c:	00163613          	seqz	a2,a2
   17a50:	ecc43c23          	sd	a2,-296(s0)
   17a54:	00b50663          	beq	a0,a1,17a60 <.LBB1_8>
   17a58:	ed043503          	ld	a0,-304(s0)
   17a5c:	eca43c23          	sd	a0,-296(s0)

0000000000017a60 <.LBB1_8>:
   17a60:	ed843503          	ld	a0,-296(s0)
   17a64:	02051863          	bnez	a0,17a94 <.LBB1_10>
   17a68:	0040006f          	j	17a6c <.LBB1_9>

0000000000017a6c <.LBB1_9>:
   17a6c:	fd843583          	ld	a1,-40(s0)
   17a70:	fd043503          	ld	a0,-48(s0)
   17a74:	185000ef          	jal	183f8 <toRep>
   17a78:	00100613          	li	a2,1
   17a7c:	02f61613          	sll	a2,a2,0x2f
   17a80:	00c5e5b3          	or	a1,a1,a2
   17a84:	1b5000ef          	jal	18438 <fromRep>
   17a88:	feb43423          	sd	a1,-24(s0)
   17a8c:	fea43023          	sd	a0,-32(s0)
   17a90:	1510006f          	j	183e0 <.LBB1_84>

0000000000017a94 <.LBB1_10>:
   17a94:	f8043603          	ld	a2,-128(s0)
   17a98:	f8843503          	ld	a0,-120(s0)
   17a9c:	07fff5b7          	lui	a1,0x7fff
   17aa0:	02459593          	sll	a1,a1,0x24
   17aa4:	00b536b3          	sltu	a3,a0,a1
   17aa8:	ecd43023          	sd	a3,-320(s0)
   17aac:	00163613          	seqz	a2,a2
   17ab0:	ecc43423          	sd	a2,-312(s0)
   17ab4:	00b50663          	beq	a0,a1,17ac0 <.LBB1_12>
   17ab8:	ec043503          	ld	a0,-320(s0)
   17abc:	eca43423          	sd	a0,-312(s0)

0000000000017ac0 <.LBB1_12>:
   17ac0:	ec843503          	ld	a0,-312(s0)
   17ac4:	02051863          	bnez	a0,17af4 <.LBB1_14>
   17ac8:	0040006f          	j	17acc <.LBB1_13>

0000000000017acc <.LBB1_13>:
   17acc:	fc843583          	ld	a1,-56(s0)
   17ad0:	fc043503          	ld	a0,-64(s0)
   17ad4:	125000ef          	jal	183f8 <toRep>
   17ad8:	00100613          	li	a2,1
   17adc:	02f61613          	sll	a2,a2,0x2f
   17ae0:	00c5e5b3          	or	a1,a1,a2
   17ae4:	155000ef          	jal	18438 <fromRep>
   17ae8:	feb43423          	sd	a1,-24(s0)
   17aec:	fea43023          	sd	a0,-32(s0)
   17af0:	0f10006f          	j	183e0 <.LBB1_84>

0000000000017af4 <.LBB1_14>:
   17af4:	f9043503          	ld	a0,-112(s0)
   17af8:	f9843583          	ld	a1,-104(s0)
   17afc:	07fff637          	lui	a2,0x7fff
   17b00:	02461613          	sll	a2,a2,0x24
   17b04:	00c5c5b3          	xor	a1,a1,a2
   17b08:	00b56533          	or	a0,a0,a1
   17b0c:	08051463          	bnez	a0,17b94 <.LBB1_18>
   17b10:	0040006f          	j	17b14 <.LBB1_15>

0000000000017b14 <.LBB1_15>:
   17b14:	fd843583          	ld	a1,-40(s0)
   17b18:	fd043503          	ld	a0,-48(s0)
   17b1c:	0dd000ef          	jal	183f8 <toRep>
   17b20:	eaa43823          	sd	a0,-336(s0)
   17b24:	eab43c23          	sd	a1,-328(s0)
   17b28:	fc843583          	ld	a1,-56(s0)
   17b2c:	fc043503          	ld	a0,-64(s0)
   17b30:	0c9000ef          	jal	183f8 <toRep>
   17b34:	00050693          	mv	a3,a0
   17b38:	eb043503          	ld	a0,-336(s0)
   17b3c:	00058613          	mv	a2,a1
   17b40:	eb843583          	ld	a1,-328(s0)
   17b44:	00d54533          	xor	a0,a0,a3
   17b48:	00c5c5b3          	xor	a1,a1,a2
   17b4c:	fff00613          	li	a2,-1
   17b50:	03f61613          	sll	a2,a2,0x3f
   17b54:	00c5c5b3          	xor	a1,a1,a2
   17b58:	00b56533          	or	a0,a0,a1
   17b5c:	02051263          	bnez	a0,17b80 <.LBB1_17>
   17b60:	0040006f          	j	17b64 <.LBB1_16>

0000000000017b64 <.LBB1_16>:
   17b64:	0ffff537          	lui	a0,0xffff
   17b68:	02351593          	sll	a1,a0,0x23
   17b6c:	00000513          	li	a0,0
   17b70:	0c9000ef          	jal	18438 <fromRep>
   17b74:	feb43423          	sd	a1,-24(s0)
   17b78:	fea43023          	sd	a0,-32(s0)
   17b7c:	0650006f          	j	183e0 <.LBB1_84>

0000000000017b80 <.LBB1_17>:
   17b80:	fd043503          	ld	a0,-48(s0)
   17b84:	fd843583          	ld	a1,-40(s0)
   17b88:	feb43423          	sd	a1,-24(s0)
   17b8c:	fea43023          	sd	a0,-32(s0)
   17b90:	0510006f          	j	183e0 <.LBB1_84>

0000000000017b94 <.LBB1_18>:
   17b94:	f8043503          	ld	a0,-128(s0)
   17b98:	f8843583          	ld	a1,-120(s0)
   17b9c:	07fff637          	lui	a2,0x7fff
   17ba0:	02461613          	sll	a2,a2,0x24
   17ba4:	00c5c5b3          	xor	a1,a1,a2
   17ba8:	00b56533          	or	a0,a0,a1
   17bac:	00051e63          	bnez	a0,17bc8 <.LBB1_20>
   17bb0:	0040006f          	j	17bb4 <.LBB1_19>

0000000000017bb4 <.LBB1_19>:
   17bb4:	fc043503          	ld	a0,-64(s0)
   17bb8:	fc843583          	ld	a1,-56(s0)
   17bbc:	feb43423          	sd	a1,-24(s0)
   17bc0:	fea43023          	sd	a0,-32(s0)
   17bc4:	01d0006f          	j	183e0 <.LBB1_84>

0000000000017bc8 <.LBB1_20>:
   17bc8:	f9843583          	ld	a1,-104(s0)
   17bcc:	f9043503          	ld	a0,-112(s0)
   17bd0:	00b56533          	or	a0,a0,a1
   17bd4:	06051c63          	bnez	a0,17c4c <.LBB1_24>
   17bd8:	0040006f          	j	17bdc <.LBB1_21>

0000000000017bdc <.LBB1_21>:
   17bdc:	f8843583          	ld	a1,-120(s0)
   17be0:	f8043503          	ld	a0,-128(s0)
   17be4:	00b56533          	or	a0,a0,a1
   17be8:	04051863          	bnez	a0,17c38 <.LBB1_23>
   17bec:	0040006f          	j	17bf0 <.LBB1_22>

0000000000017bf0 <.LBB1_22>:
   17bf0:	fd843583          	ld	a1,-40(s0)
   17bf4:	fd043503          	ld	a0,-48(s0)
   17bf8:	001000ef          	jal	183f8 <toRep>
   17bfc:	eaa43023          	sd	a0,-352(s0)
   17c00:	eab43423          	sd	a1,-344(s0)
   17c04:	fc843583          	ld	a1,-56(s0)
   17c08:	fc043503          	ld	a0,-64(s0)
   17c0c:	7ec000ef          	jal	183f8 <toRep>
   17c10:	00050693          	mv	a3,a0
   17c14:	ea043503          	ld	a0,-352(s0)
   17c18:	00058613          	mv	a2,a1
   17c1c:	ea843583          	ld	a1,-344(s0)
   17c20:	00d57533          	and	a0,a0,a3
   17c24:	00c5f5b3          	and	a1,a1,a2
   17c28:	011000ef          	jal	18438 <fromRep>
   17c2c:	feb43423          	sd	a1,-24(s0)
   17c30:	fea43023          	sd	a0,-32(s0)
   17c34:	7ac0006f          	j	183e0 <.LBB1_84>

0000000000017c38 <.LBB1_23>:
   17c38:	fc043503          	ld	a0,-64(s0)
   17c3c:	fc843583          	ld	a1,-56(s0)
   17c40:	feb43423          	sd	a1,-24(s0)
   17c44:	fea43023          	sd	a0,-32(s0)
   17c48:	7980006f          	j	183e0 <.LBB1_84>

0000000000017c4c <.LBB1_24>:
   17c4c:	f8843583          	ld	a1,-120(s0)
   17c50:	f8043503          	ld	a0,-128(s0)
   17c54:	00b56533          	or	a0,a0,a1
   17c58:	00051e63          	bnez	a0,17c74 <.LBB1_26>
   17c5c:	0040006f          	j	17c60 <.LBB1_25>

0000000000017c60 <.LBB1_25>:
   17c60:	fd043503          	ld	a0,-48(s0)
   17c64:	fd843583          	ld	a1,-40(s0)
   17c68:	feb43423          	sd	a1,-24(s0)
   17c6c:	fea43023          	sd	a0,-32(s0)
   17c70:	7700006f          	j	183e0 <.LBB1_84>

0000000000017c74 <.LBB1_26>:
   17c74:	0040006f          	j	17c78 <.LBB1_27>

0000000000017c78 <.LBB1_27>:
   17c78:	f8043683          	ld	a3,-128(s0)
   17c7c:	f8843503          	ld	a0,-120(s0)
   17c80:	f9043603          	ld	a2,-112(s0)
   17c84:	f9843583          	ld	a1,-104(s0)
   17c88:	00a5b733          	sltu	a4,a1,a0
   17c8c:	00174713          	xor	a4,a4,1
   17c90:	e8e43823          	sd	a4,-368(s0)
   17c94:	00d63633          	sltu	a2,a2,a3
   17c98:	00164613          	xor	a2,a2,1
   17c9c:	e8c43c23          	sd	a2,-360(s0)
   17ca0:	00b50663          	beq	a0,a1,17cac <.LBB1_29>
   17ca4:	e9043503          	ld	a0,-368(s0)
   17ca8:	e8a43c23          	sd	a0,-360(s0)

0000000000017cac <.LBB1_29>:
   17cac:	e9843503          	ld	a0,-360(s0)
   17cb0:	02051e63          	bnez	a0,17cec <.LBB1_31>
   17cb4:	0040006f          	j	17cb8 <.LBB1_30>

0000000000017cb8 <.LBB1_30>:
   17cb8:	fb043503          	ld	a0,-80(s0)
   17cbc:	fb843583          	ld	a1,-72(s0)
   17cc0:	f6b43c23          	sd	a1,-136(s0)
   17cc4:	f6a43823          	sd	a0,-144(s0)
   17cc8:	fa043503          	ld	a0,-96(s0)
   17ccc:	fa843583          	ld	a1,-88(s0)
   17cd0:	fab43c23          	sd	a1,-72(s0)
   17cd4:	faa43823          	sd	a0,-80(s0)
   17cd8:	f7043503          	ld	a0,-144(s0)
   17cdc:	f7843583          	ld	a1,-136(s0)
   17ce0:	fab43423          	sd	a1,-88(s0)
   17ce4:	faa43023          	sd	a0,-96(s0)
   17ce8:	0040006f          	j	17cec <.LBB1_31>

0000000000017cec <.LBB1_31>:
   17cec:	fbe45503          	lhu	a0,-66(s0)
   17cf0:	000085b7          	lui	a1,0x8
   17cf4:	fff5859b          	addw	a1,a1,-1 # 7fff <.Lline_table_start0+0x7fff>
   17cf8:	00b57533          	and	a0,a0,a1
   17cfc:	f6a42623          	sw	a0,-148(s0)
   17d00:	fae45503          	lhu	a0,-82(s0)
   17d04:	00b57533          	and	a0,a0,a1
   17d08:	f6a42423          	sw	a0,-152(s0)
   17d0c:	fb043583          	ld	a1,-80(s0)
   17d10:	fb843503          	ld	a0,-72(s0)
   17d14:	fff00613          	li	a2,-1
   17d18:	01065613          	srl	a2,a2,0x10
   17d1c:	00c57533          	and	a0,a0,a2
   17d20:	f4b43823          	sd	a1,-176(s0)
   17d24:	f4a43c23          	sd	a0,-168(s0)
   17d28:	fa043583          	ld	a1,-96(s0)
   17d2c:	fa843503          	ld	a0,-88(s0)
   17d30:	00c57533          	and	a0,a0,a2
   17d34:	f4b43023          	sd	a1,-192(s0)
   17d38:	f4a43423          	sd	a0,-184(s0)
   17d3c:	f6c42503          	lw	a0,-148(s0)
   17d40:	00051c63          	bnez	a0,17d58 <.LBB1_33>
   17d44:	0040006f          	j	17d48 <.LBB1_32>

0000000000017d48 <.LBB1_32>:
   17d48:	f5040513          	add	a0,s0,-176
   17d4c:	72c000ef          	jal	18478 <normalize>
   17d50:	f6a42623          	sw	a0,-148(s0)
   17d54:	0040006f          	j	17d58 <.LBB1_33>

0000000000017d58 <.LBB1_33>:
   17d58:	f6842503          	lw	a0,-152(s0)
   17d5c:	00051c63          	bnez	a0,17d74 <.LBB1_35>
   17d60:	0040006f          	j	17d64 <.LBB1_34>

0000000000017d64 <.LBB1_34>:
   17d64:	f4040513          	add	a0,s0,-192
   17d68:	710000ef          	jal	18478 <normalize>
   17d6c:	f6a42423          	sw	a0,-152(s0)
   17d70:	0040006f          	j	17d74 <.LBB1_35>

0000000000017d74 <.LBB1_35>:
   17d74:	fb843503          	ld	a0,-72(s0)
   17d78:	03f55513          	srl	a0,a0,0x3f
   17d7c:	03f51513          	sll	a0,a0,0x3f
   17d80:	00000593          	li	a1,0
   17d84:	f2b43823          	sd	a1,-208(s0)
   17d88:	f2a43c23          	sd	a0,-200(s0)
   17d8c:	fb843503          	ld	a0,-72(s0)
   17d90:	fa843583          	ld	a1,-88(s0)
   17d94:	00b54533          	xor	a0,a0,a1
   17d98:	03f55513          	srl	a0,a0,0x3f
   17d9c:	f2a407a3          	sb	a0,-209(s0)
   17da0:	f5843503          	ld	a0,-168(s0)
   17da4:	f5043583          	ld	a1,-176(s0)
   17da8:	03d5d613          	srl	a2,a1,0x3d
   17dac:	00351513          	sll	a0,a0,0x3
   17db0:	00c56533          	or	a0,a0,a2
   17db4:	00359593          	sll	a1,a1,0x3
   17db8:	00100613          	li	a2,1
   17dbc:	03361613          	sll	a2,a2,0x33
   17dc0:	00c56533          	or	a0,a0,a2
   17dc4:	f4b43823          	sd	a1,-176(s0)
   17dc8:	f4a43c23          	sd	a0,-168(s0)
   17dcc:	f4843503          	ld	a0,-184(s0)
   17dd0:	f4043583          	ld	a1,-192(s0)
   17dd4:	03d5d693          	srl	a3,a1,0x3d
   17dd8:	00351513          	sll	a0,a0,0x3
   17ddc:	00d56533          	or	a0,a0,a3
   17de0:	00359593          	sll	a1,a1,0x3
   17de4:	00c56533          	or	a0,a0,a2
   17de8:	f4b43023          	sd	a1,-192(s0)
   17dec:	f4a43423          	sd	a0,-184(s0)
   17df0:	f6c42503          	lw	a0,-148(s0)
   17df4:	f6842583          	lw	a1,-152(s0)
   17df8:	40b5053b          	subw	a0,a0,a1
   17dfc:	f2a42423          	sw	a0,-216(s0)
   17e00:	f2842503          	lw	a0,-216(s0)
   17e04:	10050a63          	beqz	a0,17f18 <.LBB1_44>
   17e08:	0040006f          	j	17e0c <.LBB1_36>

0000000000017e0c <.LBB1_36>:
   17e0c:	f2842583          	lw	a1,-216(s0)
   17e10:	07f00513          	li	a0,127
   17e14:	0eb56663          	bltu	a0,a1,17f00 <.LBB1_42>
   17e18:	0040006f          	j	17e1c <.LBB1_37>

0000000000017e1c <.LBB1_37>:
   17e1c:	f4043603          	ld	a2,-192(s0)
   17e20:	f4843503          	ld	a0,-184(s0)
   17e24:	f2846703          	lwu	a4,-216(s0)
   17e28:	08000593          	li	a1,128
   17e2c:	40e585bb          	subw	a1,a1,a4
   17e30:	40e006bb          	negw	a3,a4
   17e34:	00d51533          	sll	a0,a0,a3
   17e38:	fff5c793          	not	a5,a1
   17e3c:	00165593          	srl	a1,a2,0x1
   17e40:	00f5d5b3          	srl	a1,a1,a5
   17e44:	00b565b3          	or	a1,a0,a1
   17e48:	04000513          	li	a0,64
   17e4c:	40e50533          	sub	a0,a0,a4
   17e50:	e6a43c23          	sd	a0,-392(s0)
   17e54:	00d61633          	sll	a2,a2,a3
   17e58:	e8c43023          	sd	a2,-384(s0)
   17e5c:	e8b43423          	sd	a1,-376(s0)
   17e60:	00054663          	bltz	a0,17e6c <.LBB1_39>
   17e64:	e8043503          	ld	a0,-384(s0)
   17e68:	e8a43423          	sd	a0,-376(s0)

0000000000017e6c <.LBB1_39>:
   17e6c:	e8043603          	ld	a2,-384(s0)
   17e70:	e7843503          	ld	a0,-392(s0)
   17e74:	e8843583          	ld	a1,-376(s0)
   17e78:	00052513          	slti	a0,a0,0
   17e7c:	00000713          	li	a4,0
   17e80:	40a70533          	sub	a0,a4,a0
   17e84:	00c57533          	and	a0,a0,a2
   17e88:	00b56533          	or	a0,a0,a1
   17e8c:	00a03533          	snez	a0,a0
   17e90:	f2a403a3          	sb	a0,-217(s0)
   17e94:	f4043583          	ld	a1,-192(s0)
   17e98:	f4843603          	ld	a2,-184(s0)
   17e9c:	f2846683          	lwu	a3,-216(s0)
   17ea0:	00d657b3          	srl	a5,a2,a3
   17ea4:	e6f43023          	sd	a5,-416(s0)
   17ea8:	fc068513          	add	a0,a3,-64
   17eac:	00052813          	slti	a6,a0,0
   17eb0:	41070733          	sub	a4,a4,a6
   17eb4:	00f77733          	and	a4,a4,a5
   17eb8:	e6e43423          	sd	a4,-408(s0)
   17ebc:	00d5d5b3          	srl	a1,a1,a3
   17ec0:	fff6c693          	not	a3,a3
   17ec4:	00161613          	sll	a2,a2,0x1
   17ec8:	00d61633          	sll	a2,a2,a3
   17ecc:	00c5e5b3          	or	a1,a1,a2
   17ed0:	e6b43823          	sd	a1,-400(s0)
   17ed4:	00054663          	bltz	a0,17ee0 <.LBB1_41>
   17ed8:	e6043503          	ld	a0,-416(s0)
   17edc:	e6a43823          	sd	a0,-400(s0)

0000000000017ee0 <.LBB1_41>:
   17ee0:	e6843583          	ld	a1,-408(s0)
   17ee4:	e7043503          	ld	a0,-400(s0)
   17ee8:	f2744603          	lbu	a2,-217(s0)
   17eec:	00167613          	and	a2,a2,1
   17ef0:	00c56533          	or	a0,a0,a2
   17ef4:	f4b43423          	sd	a1,-184(s0)
   17ef8:	f4a43023          	sd	a0,-192(s0)
   17efc:	0180006f          	j	17f14 <.LBB1_43>

0000000000017f00 <.LBB1_42>:
   17f00:	00000513          	li	a0,0
   17f04:	f4a43423          	sd	a0,-184(s0)
   17f08:	00100513          	li	a0,1
   17f0c:	f4a43023          	sd	a0,-192(s0)
   17f10:	0040006f          	j	17f14 <.LBB1_43>

0000000000017f14 <.LBB1_43>:
   17f14:	0040006f          	j	17f18 <.LBB1_44>

0000000000017f18 <.LBB1_44>:
   17f18:	f2f44503          	lbu	a0,-209(s0)
   17f1c:	00157513          	and	a0,a0,1
   17f20:	10050c63          	beqz	a0,18038 <.LBB1_52>
   17f24:	0040006f          	j	17f28 <.LBB1_45>

0000000000017f28 <.LBB1_45>:
   17f28:	f4843703          	ld	a4,-184(s0)
   17f2c:	f4043603          	ld	a2,-192(s0)
   17f30:	f5843503          	ld	a0,-168(s0)
   17f34:	f5043583          	ld	a1,-176(s0)
   17f38:	00c5b6b3          	sltu	a3,a1,a2
   17f3c:	40e50533          	sub	a0,a0,a4
   17f40:	40d50533          	sub	a0,a0,a3
   17f44:	40c585b3          	sub	a1,a1,a2
   17f48:	f4b43823          	sd	a1,-176(s0)
   17f4c:	f4a43c23          	sd	a0,-168(s0)
   17f50:	f5843583          	ld	a1,-168(s0)
   17f54:	f5043503          	ld	a0,-176(s0)
   17f58:	00b56533          	or	a0,a0,a1
   17f5c:	02051063          	bnez	a0,17f7c <.LBB1_47>
   17f60:	0040006f          	j	17f64 <.LBB1_46>

0000000000017f64 <.LBB1_46>:
   17f64:	00000593          	li	a1,0
   17f68:	00058513          	mv	a0,a1
   17f6c:	4cc000ef          	jal	18438 <fromRep>
   17f70:	feb43423          	sd	a1,-24(s0)
   17f74:	fea43023          	sd	a0,-32(s0)
   17f78:	4680006f          	j	183e0 <.LBB1_84>

0000000000017f7c <.LBB1_47>:
   17f7c:	f5843503          	ld	a0,-168(s0)
   17f80:	03355513          	srl	a0,a0,0x33
   17f84:	0a051863          	bnez	a0,18034 <.LBB1_51>
   17f88:	0040006f          	j	17f8c <.LBB1_48>

0000000000017f8c <.LBB1_48>:
   17f8c:	f5843583          	ld	a1,-168(s0)
   17f90:	f5043503          	ld	a0,-176(s0)
   17f94:	5c0000ef          	jal	18554 <rep_clz>
   17f98:	e4a43023          	sd	a0,-448(s0)
   17f9c:	00100513          	li	a0,1
   17fa0:	03351593          	sll	a1,a0,0x33
   17fa4:	00000513          	li	a0,0
   17fa8:	e2a43c23          	sd	a0,-456(s0)
   17fac:	5a8000ef          	jal	18554 <rep_clz>
   17fb0:	e3843703          	ld	a4,-456(s0)
   17fb4:	00050593          	mv	a1,a0
   17fb8:	e4043503          	ld	a0,-448(s0)
   17fbc:	40b5053b          	subw	a0,a0,a1
   17fc0:	f2a42023          	sw	a0,-224(s0)
   17fc4:	f2046683          	lwu	a3,-224(s0)
   17fc8:	f5843583          	ld	a1,-168(s0)
   17fcc:	f5043603          	ld	a2,-176(s0)
   17fd0:	00d617b3          	sll	a5,a2,a3
   17fd4:	e4f43423          	sd	a5,-440(s0)
   17fd8:	fc068513          	add	a0,a3,-64
   17fdc:	00052813          	slti	a6,a0,0
   17fe0:	41070733          	sub	a4,a4,a6
   17fe4:	00f77733          	and	a4,a4,a5
   17fe8:	e4e43823          	sd	a4,-432(s0)
   17fec:	00d595b3          	sll	a1,a1,a3
   17ff0:	fff6c693          	not	a3,a3
   17ff4:	00165613          	srl	a2,a2,0x1
   17ff8:	00d65633          	srl	a2,a2,a3
   17ffc:	00c5e5b3          	or	a1,a1,a2
   18000:	e4b43c23          	sd	a1,-424(s0)
   18004:	00054663          	bltz	a0,18010 <.LBB1_50>
   18008:	e4843503          	ld	a0,-440(s0)
   1800c:	e4a43c23          	sd	a0,-424(s0)

0000000000018010 <.LBB1_50>:
   18010:	e5043503          	ld	a0,-432(s0)
   18014:	e5843583          	ld	a1,-424(s0)
   18018:	f4b43c23          	sd	a1,-168(s0)
   1801c:	f4a43823          	sd	a0,-176(s0)
   18020:	f2042583          	lw	a1,-224(s0)
   18024:	f6c42503          	lw	a0,-148(s0)
   18028:	40b5053b          	subw	a0,a0,a1
   1802c:	f6a42623          	sw	a0,-148(s0)
   18030:	0040006f          	j	18034 <.LBB1_51>

0000000000018034 <.LBB1_51>:
   18034:	0880006f          	j	180bc <.LBB1_55>

0000000000018038 <.LBB1_52>:
   18038:	f4043583          	ld	a1,-192(s0)
   1803c:	f4843683          	ld	a3,-184(s0)
   18040:	f5043603          	ld	a2,-176(s0)
   18044:	f5843503          	ld	a0,-168(s0)
   18048:	00d50533          	add	a0,a0,a3
   1804c:	00b605b3          	add	a1,a2,a1
   18050:	00c5b633          	sltu	a2,a1,a2
   18054:	00c50533          	add	a0,a0,a2
   18058:	f4b43823          	sd	a1,-176(s0)
   1805c:	f4a43c23          	sd	a0,-168(s0)
   18060:	f5e44503          	lbu	a0,-162(s0)
   18064:	01057513          	and	a0,a0,16
   18068:	04050863          	beqz	a0,180b8 <.LBB1_54>
   1806c:	0040006f          	j	18070 <.LBB1_53>

0000000000018070 <.LBB1_53>:
   18070:	f5044503          	lbu	a0,-176(s0)
   18074:	00157513          	and	a0,a0,1
   18078:	f0a40fa3          	sb	a0,-225(s0)
   1807c:	f5043503          	ld	a0,-176(s0)
   18080:	f5843583          	ld	a1,-168(s0)
   18084:	03f59613          	sll	a2,a1,0x3f
   18088:	00155513          	srl	a0,a0,0x1
   1808c:	00c56533          	or	a0,a0,a2
   18090:	0015d593          	srl	a1,a1,0x1
   18094:	f1f44603          	lbu	a2,-225(s0)
   18098:	00167613          	and	a2,a2,1
   1809c:	00c56533          	or	a0,a0,a2
   180a0:	f4b43c23          	sd	a1,-168(s0)
   180a4:	f4a43823          	sd	a0,-176(s0)
   180a8:	f6c42503          	lw	a0,-148(s0)
   180ac:	0015051b          	addw	a0,a0,1 # ffff001 <__global_pointer$+0xffe3fb9>
   180b0:	f6a42623          	sw	a0,-148(s0)
   180b4:	0040006f          	j	180b8 <.LBB1_54>

00000000000180b8 <.LBB1_54>:
   180b8:	0040006f          	j	180bc <.LBB1_55>

00000000000180bc <.LBB1_55>:
   180bc:	f6c42503          	lw	a0,-148(s0)
   180c0:	000085b7          	lui	a1,0x8
   180c4:	fff5859b          	addw	a1,a1,-1 # 7fff <.Lline_table_start0+0x7fff>
   180c8:	02b54663          	blt	a0,a1,180f4 <.LBB1_57>
   180cc:	0040006f          	j	180d0 <.LBB1_56>

00000000000180d0 <.LBB1_56>:
   180d0:	f3043503          	ld	a0,-208(s0)
   180d4:	f3843583          	ld	a1,-200(s0)
   180d8:	07fff637          	lui	a2,0x7fff
   180dc:	02461613          	sll	a2,a2,0x24
   180e0:	00c5e5b3          	or	a1,a1,a2
   180e4:	354000ef          	jal	18438 <fromRep>
   180e8:	feb43423          	sd	a1,-24(s0)
   180ec:	fea43023          	sd	a0,-32(s0)
   180f0:	2f00006f          	j	183e0 <.LBB1_84>

00000000000180f4 <.LBB1_57>:
   180f4:	f6c42583          	lw	a1,-148(s0)
   180f8:	00000513          	li	a0,0
   180fc:	10b54463          	blt	a0,a1,18204 <.LBB1_63>
   18100:	0040006f          	j	18104 <.LBB1_58>

0000000000018104 <.LBB1_58>:
   18104:	f6c42583          	lw	a1,-148(s0)
   18108:	00100513          	li	a0,1
   1810c:	40b5053b          	subw	a0,a0,a1
   18110:	f0a42c23          	sw	a0,-232(s0)
   18114:	f5043603          	ld	a2,-176(s0)
   18118:	f5843503          	ld	a0,-168(s0)
   1811c:	f1842703          	lw	a4,-232(s0)
   18120:	08000593          	li	a1,128
   18124:	40e585bb          	subw	a1,a1,a4
   18128:	40e006bb          	negw	a3,a4
   1812c:	00d51533          	sll	a0,a0,a3
   18130:	fff5c793          	not	a5,a1
   18134:	00165593          	srl	a1,a2,0x1
   18138:	00f5d5b3          	srl	a1,a1,a5
   1813c:	00b565b3          	or	a1,a0,a1
   18140:	04000513          	li	a0,64
   18144:	40e50533          	sub	a0,a0,a4
   18148:	e2a43023          	sd	a0,-480(s0)
   1814c:	00d61633          	sll	a2,a2,a3
   18150:	e2c43423          	sd	a2,-472(s0)
   18154:	e2b43823          	sd	a1,-464(s0)
   18158:	00054663          	bltz	a0,18164 <.LBB1_60>
   1815c:	e2843503          	ld	a0,-472(s0)
   18160:	e2a43823          	sd	a0,-464(s0)

0000000000018164 <.LBB1_60>:
   18164:	e2843603          	ld	a2,-472(s0)
   18168:	e2043503          	ld	a0,-480(s0)
   1816c:	e3043583          	ld	a1,-464(s0)
   18170:	00052513          	slti	a0,a0,0
   18174:	00000713          	li	a4,0
   18178:	e0e43023          	sd	a4,-512(s0)
   1817c:	40a70533          	sub	a0,a4,a0
   18180:	00c57533          	and	a0,a0,a2
   18184:	00b56533          	or	a0,a0,a1
   18188:	00a03533          	snez	a0,a0
   1818c:	f0a40ba3          	sb	a0,-233(s0)
   18190:	f5043583          	ld	a1,-176(s0)
   18194:	f5843603          	ld	a2,-168(s0)
   18198:	f1846683          	lwu	a3,-232(s0)
   1819c:	00d657b3          	srl	a5,a2,a3
   181a0:	e0f43423          	sd	a5,-504(s0)
   181a4:	fc068513          	add	a0,a3,-64
   181a8:	00052813          	slti	a6,a0,0
   181ac:	41070733          	sub	a4,a4,a6
   181b0:	00f77733          	and	a4,a4,a5
   181b4:	e0e43823          	sd	a4,-496(s0)
   181b8:	00d5d5b3          	srl	a1,a1,a3
   181bc:	fff6c693          	not	a3,a3
   181c0:	00161613          	sll	a2,a2,0x1
   181c4:	00d61633          	sll	a2,a2,a3
   181c8:	00c5e5b3          	or	a1,a1,a2
   181cc:	e0b43c23          	sd	a1,-488(s0)
   181d0:	00054663          	bltz	a0,181dc <.LBB1_62>
   181d4:	e0843503          	ld	a0,-504(s0)
   181d8:	e0a43c23          	sd	a0,-488(s0)

00000000000181dc <.LBB1_62>:
   181dc:	e0043503          	ld	a0,-512(s0)
   181e0:	e1043603          	ld	a2,-496(s0)
   181e4:	e1843583          	ld	a1,-488(s0)
   181e8:	f1744683          	lbu	a3,-233(s0)
   181ec:	0016f693          	and	a3,a3,1
   181f0:	00d5e5b3          	or	a1,a1,a3
   181f4:	f4c43c23          	sd	a2,-168(s0)
   181f8:	f4b43823          	sd	a1,-176(s0)
   181fc:	f6a42623          	sw	a0,-148(s0)
   18200:	0040006f          	j	18204 <.LBB1_63>

0000000000018204 <.LBB1_63>:
   18204:	f5046503          	lwu	a0,-176(s0)
   18208:	00757513          	and	a0,a0,7
   1820c:	f0a42823          	sw	a0,-240(s0)
   18210:	f5043503          	ld	a0,-176(s0)
   18214:	f5843583          	ld	a1,-168(s0)
   18218:	03d59613          	sll	a2,a1,0x3d
   1821c:	00355513          	srl	a0,a0,0x3
   18220:	00c56533          	or	a0,a0,a2
   18224:	00d59593          	sll	a1,a1,0xd
   18228:	0105d593          	srl	a1,a1,0x10
   1822c:	f0b43423          	sd	a1,-248(s0)
   18230:	f0a43023          	sd	a0,-256(s0)
   18234:	f6c42503          	lw	a0,-148(s0)
   18238:	03051613          	sll	a2,a0,0x30
   1823c:	f0043583          	ld	a1,-256(s0)
   18240:	f0843503          	ld	a0,-248(s0)
   18244:	00c56533          	or	a0,a0,a2
   18248:	f0b43023          	sd	a1,-256(s0)
   1824c:	f0a43423          	sd	a0,-248(s0)
   18250:	f3843603          	ld	a2,-200(s0)
   18254:	f3043683          	ld	a3,-208(s0)
   18258:	f0843583          	ld	a1,-248(s0)
   1825c:	f0043503          	ld	a0,-256(s0)
   18260:	00d56533          	or	a0,a0,a3
   18264:	00c5e5b3          	or	a1,a1,a2
   18268:	f0b43423          	sd	a1,-248(s0)
   1826c:	f0a43023          	sd	a0,-256(s0)
   18270:	3f0000ef          	jal	18660 <__fe_getround>
   18274:	00050593          	mv	a1,a0
   18278:	deb43c23          	sd	a1,-520(s0)
   1827c:	04050263          	beqz	a0,182c0 <.LBB1_67>
   18280:	0040006f          	j	18284 <.LBB1_64>

0000000000018284 <.LBB1_64>:
   18284:	df843503          	ld	a0,-520(s0)
   18288:	0005051b          	sext.w	a0,a0
   1828c:	00100593          	li	a1,1
   18290:	08b50c63          	beq	a0,a1,18328 <.LBB1_72>
   18294:	0040006f          	j	18298 <.LBB1_65>

0000000000018298 <.LBB1_65>:
   18298:	df843503          	ld	a0,-520(s0)
   1829c:	0005051b          	sext.w	a0,a0
   182a0:	00200593          	li	a1,2
   182a4:	0cb50463          	beq	a0,a1,1836c <.LBB1_76>
   182a8:	0040006f          	j	182ac <.LBB1_66>

00000000000182ac <.LBB1_66>:
   182ac:	df843503          	ld	a0,-520(s0)
   182b0:	0005051b          	sext.w	a0,a0
   182b4:	00300593          	li	a1,3
   182b8:	0eb50c63          	beq	a0,a1,183b0 <.LBB1_80>
   182bc:	0f80006f          	j	183b4 <.LBB1_81>

00000000000182c0 <.LBB1_67>:
   182c0:	f1042503          	lw	a0,-240(s0)
   182c4:	00500593          	li	a1,5
   182c8:	02b54463          	blt	a0,a1,182f0 <.LBB1_69>
   182cc:	0040006f          	j	182d0 <.LBB1_68>

00000000000182d0 <.LBB1_68>:
   182d0:	f0843503          	ld	a0,-248(s0)
   182d4:	f0043603          	ld	a2,-256(s0)
   182d8:	00160593          	add	a1,a2,1 # 7fff001 <__global_pointer$+0x7fe3fb9>
   182dc:	00c5b633          	sltu	a2,a1,a2
   182e0:	00c50533          	add	a0,a0,a2
   182e4:	f0b43023          	sd	a1,-256(s0)
   182e8:	f0a43423          	sd	a0,-248(s0)
   182ec:	0040006f          	j	182f0 <.LBB1_69>

00000000000182f0 <.LBB1_69>:
   182f0:	f1042503          	lw	a0,-240(s0)
   182f4:	00400593          	li	a1,4
   182f8:	02b51663          	bne	a0,a1,18324 <.LBB1_71>
   182fc:	0040006f          	j	18300 <.LBB1_70>

0000000000018300 <.LBB1_70>:
   18300:	f0843503          	ld	a0,-248(s0)
   18304:	f0043603          	ld	a2,-256(s0)
   18308:	00167593          	and	a1,a2,1
   1830c:	00b605b3          	add	a1,a2,a1
   18310:	00c5b633          	sltu	a2,a1,a2
   18314:	00c50533          	add	a0,a0,a2
   18318:	f0b43023          	sd	a1,-256(s0)
   1831c:	f0a43423          	sd	a0,-248(s0)
   18320:	0040006f          	j	18324 <.LBB1_71>

0000000000018324 <.LBB1_71>:
   18324:	0900006f          	j	183b4 <.LBB1_81>

0000000000018328 <.LBB1_72>:
   18328:	f3843583          	ld	a1,-200(s0)
   1832c:	f3043503          	ld	a0,-208(s0)
   18330:	00b56533          	or	a0,a0,a1
   18334:	02050a63          	beqz	a0,18368 <.LBB1_75>
   18338:	0040006f          	j	1833c <.LBB1_73>

000000000001833c <.LBB1_73>:
   1833c:	f1042503          	lw	a0,-240(s0)
   18340:	02050463          	beqz	a0,18368 <.LBB1_75>
   18344:	0040006f          	j	18348 <.LBB1_74>

0000000000018348 <.LBB1_74>:
   18348:	f0843503          	ld	a0,-248(s0)
   1834c:	f0043603          	ld	a2,-256(s0)
   18350:	00160593          	add	a1,a2,1
   18354:	00c5b633          	sltu	a2,a1,a2
   18358:	00c50533          	add	a0,a0,a2
   1835c:	f0b43023          	sd	a1,-256(s0)
   18360:	f0a43423          	sd	a0,-248(s0)
   18364:	0040006f          	j	18368 <.LBB1_75>

0000000000018368 <.LBB1_75>:
   18368:	04c0006f          	j	183b4 <.LBB1_81>

000000000001836c <.LBB1_76>:
   1836c:	f3843583          	ld	a1,-200(s0)
   18370:	f3043503          	ld	a0,-208(s0)
   18374:	00b56533          	or	a0,a0,a1
   18378:	02051a63          	bnez	a0,183ac <.LBB1_79>
   1837c:	0040006f          	j	18380 <.LBB1_77>

0000000000018380 <.LBB1_77>:
   18380:	f1042503          	lw	a0,-240(s0)
   18384:	02050463          	beqz	a0,183ac <.LBB1_79>
   18388:	0040006f          	j	1838c <.LBB1_78>

000000000001838c <.LBB1_78>:
   1838c:	f0843503          	ld	a0,-248(s0)
   18390:	f0043603          	ld	a2,-256(s0)
   18394:	00160593          	add	a1,a2,1
   18398:	00c5b633          	sltu	a2,a1,a2
   1839c:	00c50533          	add	a0,a0,a2
   183a0:	f0b43023          	sd	a1,-256(s0)
   183a4:	f0a43423          	sd	a0,-248(s0)
   183a8:	0040006f          	j	183ac <.LBB1_79>

00000000000183ac <.LBB1_79>:
   183ac:	0080006f          	j	183b4 <.LBB1_81>

00000000000183b0 <.LBB1_80>:
   183b0:	0040006f          	j	183b4 <.LBB1_81>

00000000000183b4 <.LBB1_81>:
   183b4:	f1042503          	lw	a0,-240(s0)
   183b8:	00050863          	beqz	a0,183c8 <.LBB1_83>
   183bc:	0040006f          	j	183c0 <.LBB1_82>

00000000000183c0 <.LBB1_82>:
   183c0:	2c4000ef          	jal	18684 <__fe_raise_inexact>
   183c4:	0040006f          	j	183c8 <.LBB1_83>

00000000000183c8 <.LBB1_83>:
   183c8:	f0843583          	ld	a1,-248(s0)
   183cc:	f0043503          	ld	a0,-256(s0)
   183d0:	068000ef          	jal	18438 <fromRep>
   183d4:	feb43423          	sd	a1,-24(s0)
   183d8:	fea43023          	sd	a0,-32(s0)
   183dc:	0040006f          	j	183e0 <.LBB1_84>

00000000000183e0 <.LBB1_84>:
   183e0:	fe043503          	ld	a0,-32(s0)
   183e4:	fe843583          	ld	a1,-24(s0)
   183e8:	20813083          	ld	ra,520(sp)
   183ec:	20013403          	ld	s0,512(sp)
   183f0:	21010113          	add	sp,sp,528
   183f4:	00008067          	ret

00000000000183f8 <toRep>:
   183f8:	fd010113          	add	sp,sp,-48
   183fc:	02113423          	sd	ra,40(sp)
   18400:	02813023          	sd	s0,32(sp)
   18404:	03010413          	add	s0,sp,48
   18408:	feb43423          	sd	a1,-24(s0)
   1840c:	fea43023          	sd	a0,-32(s0)
   18410:	fe043503          	ld	a0,-32(s0)
   18414:	fe843583          	ld	a1,-24(s0)
   18418:	fcb43c23          	sd	a1,-40(s0)
   1841c:	fca43823          	sd	a0,-48(s0)
   18420:	fd043503          	ld	a0,-48(s0)
   18424:	fd843583          	ld	a1,-40(s0)
   18428:	02813083          	ld	ra,40(sp)
   1842c:	02013403          	ld	s0,32(sp)
   18430:	03010113          	add	sp,sp,48
   18434:	00008067          	ret

0000000000018438 <fromRep>:
   18438:	fd010113          	add	sp,sp,-48
   1843c:	02113423          	sd	ra,40(sp)
   18440:	02813023          	sd	s0,32(sp)
   18444:	03010413          	add	s0,sp,48
   18448:	feb43423          	sd	a1,-24(s0)
   1844c:	fea43023          	sd	a0,-32(s0)
   18450:	fe043503          	ld	a0,-32(s0)
   18454:	fe843583          	ld	a1,-24(s0)
   18458:	fcb43c23          	sd	a1,-40(s0)
   1845c:	fca43823          	sd	a0,-48(s0)
   18460:	fd043503          	ld	a0,-48(s0)
   18464:	fd843583          	ld	a1,-40(s0)
   18468:	02813083          	ld	ra,40(sp)
   1846c:	02013403          	ld	s0,32(sp)
   18470:	03010113          	add	sp,sp,48
   18474:	00008067          	ret

0000000000018478 <normalize>:
   18478:	fa010113          	add	sp,sp,-96
   1847c:	04113c23          	sd	ra,88(sp)
   18480:	04813823          	sd	s0,80(sp)
   18484:	06010413          	add	s0,sp,96
   18488:	fea43423          	sd	a0,-24(s0)
   1848c:	fe843503          	ld	a0,-24(s0)
   18490:	00853583          	ld	a1,8(a0)
   18494:	00053503          	ld	a0,0(a0)
   18498:	0bc000ef          	jal	18554 <rep_clz>
   1849c:	faa43c23          	sd	a0,-72(s0)
   184a0:	00100513          	li	a0,1
   184a4:	faa43423          	sd	a0,-88(s0)
   184a8:	03051593          	sll	a1,a0,0x30
   184ac:	00000513          	li	a0,0
   184b0:	faa43823          	sd	a0,-80(s0)
   184b4:	0a0000ef          	jal	18554 <rep_clz>
   184b8:	00050593          	mv	a1,a0
   184bc:	fb843503          	ld	a0,-72(s0)
   184c0:	40b5053b          	subw	a0,a0,a1
   184c4:	fea42223          	sw	a0,-28(s0)
   184c8:	fe446503          	lwu	a0,-28(s0)
   184cc:	fe843583          	ld	a1,-24(s0)
   184d0:	fcb43023          	sd	a1,-64(s0)
   184d4:	0005b603          	ld	a2,0(a1)
   184d8:	0085b583          	ld	a1,8(a1)
   184dc:	00a595b3          	sll	a1,a1,a0
   184e0:	fff54713          	not	a4,a0
   184e4:	00165693          	srl	a3,a2,0x1
   184e8:	00e6d6b3          	srl	a3,a3,a4
   184ec:	00d5e5b3          	or	a1,a1,a3
   184f0:	00a61633          	sll	a2,a2,a0
   184f4:	fcc43423          	sd	a2,-56(s0)
   184f8:	fc050513          	add	a0,a0,-64
   184fc:	fca43823          	sd	a0,-48(s0)
   18500:	fcb43c23          	sd	a1,-40(s0)
   18504:	00054663          	bltz	a0,18510 <.LBB4_2>
   18508:	fc843503          	ld	a0,-56(s0)
   1850c:	fca43c23          	sd	a0,-40(s0)

0000000000018510 <.LBB4_2>:
   18510:	fa843503          	ld	a0,-88(s0)
   18514:	fc043603          	ld	a2,-64(s0)
   18518:	fc843703          	ld	a4,-56(s0)
   1851c:	fb043683          	ld	a3,-80(s0)
   18520:	fd043783          	ld	a5,-48(s0)
   18524:	fd843583          	ld	a1,-40(s0)
   18528:	0007a793          	slti	a5,a5,0
   1852c:	40f686b3          	sub	a3,a3,a5
   18530:	00e6f6b3          	and	a3,a3,a4
   18534:	00d63023          	sd	a3,0(a2)
   18538:	00b63423          	sd	a1,8(a2)
   1853c:	fe442583          	lw	a1,-28(s0)
   18540:	40b5053b          	subw	a0,a0,a1
   18544:	05813083          	ld	ra,88(sp)
   18548:	05013403          	ld	s0,80(sp)
   1854c:	06010113          	add	sp,sp,96
   18550:	00008067          	ret

0000000000018554 <rep_clz>:
   18554:	fc010113          	add	sp,sp,-64
   18558:	02113c23          	sd	ra,56(sp)
   1855c:	02813823          	sd	s0,48(sp)
   18560:	04010413          	add	s0,sp,64
   18564:	feb43423          	sd	a1,-24(s0)
   18568:	fea43023          	sd	a0,-32(s0)
   1856c:	fe043503          	ld	a0,-32(s0)
   18570:	fe843583          	ld	a1,-24(s0)
   18574:	fcb43c23          	sd	a1,-40(s0)
   18578:	fca43823          	sd	a0,-48(s0)
   1857c:	fd843503          	ld	a0,-40(s0)
   18580:	00050e63          	beqz	a0,1859c <.LBB5_2>
   18584:	0040006f          	j	18588 <.LBB5_1>

0000000000018588 <.LBB5_1>:
   18588:	fd843503          	ld	a0,-40(s0)
   1858c:	fca43423          	sd	a0,-56(s0)
   18590:	00000513          	li	a0,0
   18594:	fca43023          	sd	a0,-64(s0)
   18598:	0180006f          	j	185b0 <.LBB5_3>

000000000001859c <.LBB5_2>:
   1859c:	fd043503          	ld	a0,-48(s0)
   185a0:	fca43423          	sd	a0,-56(s0)
   185a4:	04000513          	li	a0,64
   185a8:	fca43023          	sd	a0,-64(s0)
   185ac:	0040006f          	j	185b0 <.LBB5_3>

00000000000185b0 <.LBB5_3>:
   185b0:	fc843503          	ld	a0,-56(s0)
   185b4:	00155593          	srl	a1,a0,0x1
   185b8:	00b56533          	or	a0,a0,a1
   185bc:	00255593          	srl	a1,a0,0x2
   185c0:	00b56533          	or	a0,a0,a1
   185c4:	00455593          	srl	a1,a0,0x4
   185c8:	00b56533          	or	a0,a0,a1
   185cc:	00855593          	srl	a1,a0,0x8
   185d0:	00b56533          	or	a0,a0,a1
   185d4:	01055593          	srl	a1,a0,0x10
   185d8:	00b56533          	or	a0,a0,a1
   185dc:	02055593          	srl	a1,a0,0x20
   185e0:	00b56533          	or	a0,a0,a1
   185e4:	fff54513          	not	a0,a0
   185e8:	00155593          	srl	a1,a0,0x1

00000000000185ec <.Lpcrel_hi0>:
   185ec:	ffff8617          	auipc	a2,0xffff8
   185f0:	67c60613          	add	a2,a2,1660 # 10c68 <errmsg+0x738>
   185f4:	00063603          	ld	a2,0(a2)
   185f8:	00c5f5b3          	and	a1,a1,a2
   185fc:	40b505b3          	sub	a1,a0,a1

0000000000018600 <.Lpcrel_hi1>:
   18600:	ffff8517          	auipc	a0,0xffff8
   18604:	65050513          	add	a0,a0,1616 # 10c50 <errmsg+0x720>
   18608:	00053603          	ld	a2,0(a0)
   1860c:	00c5f533          	and	a0,a1,a2
   18610:	0025d593          	srl	a1,a1,0x2
   18614:	00c5f5b3          	and	a1,a1,a2
   18618:	00b50533          	add	a0,a0,a1
   1861c:	00455593          	srl	a1,a0,0x4
   18620:	00b50533          	add	a0,a0,a1

0000000000018624 <.Lpcrel_hi2>:
   18624:	ffff8597          	auipc	a1,0xffff8
   18628:	63458593          	add	a1,a1,1588 # 10c58 <errmsg+0x728>
   1862c:	0005b583          	ld	a1,0(a1)
   18630:	00b57533          	and	a0,a0,a1

0000000000018634 <.Lpcrel_hi3>:
   18634:	ffff8597          	auipc	a1,0xffff8
   18638:	62c58593          	add	a1,a1,1580 # 10c60 <errmsg+0x730>
   1863c:	0005b583          	ld	a1,0(a1)
   18640:	a3cfa0ef          	jal	1287c <__muldi3>
   18644:	03855513          	srl	a0,a0,0x38
   18648:	fc043583          	ld	a1,-64(s0)
   1864c:	00b5053b          	addw	a0,a0,a1
   18650:	03813083          	ld	ra,56(sp)
   18654:	03013403          	ld	s0,48(sp)
   18658:	04010113          	add	sp,sp,64
   1865c:	00008067          	ret

0000000000018660 <__fe_getround>:
   18660:	ff010113          	add	sp,sp,-16
   18664:	00113423          	sd	ra,8(sp)
   18668:	00813023          	sd	s0,0(sp)
   1866c:	01010413          	add	s0,sp,16
   18670:	00000513          	li	a0,0
   18674:	00813083          	ld	ra,8(sp)
   18678:	00013403          	ld	s0,0(sp)
   1867c:	01010113          	add	sp,sp,16
   18680:	00008067          	ret

0000000000018684 <__fe_raise_inexact>:
   18684:	ff010113          	add	sp,sp,-16
   18688:	00113423          	sd	ra,8(sp)
   1868c:	00813023          	sd	s0,0(sp)
   18690:	01010413          	add	s0,sp,16
   18694:	00000513          	li	a0,0
   18698:	00813083          	ld	ra,8(sp)
   1869c:	00013403          	ld	s0,0(sp)
   186a0:	01010113          	add	sp,sp,16
   186a4:	00008067          	ret

00000000000186a8 <__subtf3>:
   186a8:	fc010113          	add	sp,sp,-64
   186ac:	02113c23          	sd	ra,56(sp)
   186b0:	02813823          	sd	s0,48(sp)
   186b4:	04010413          	add	s0,sp,64
   186b8:	feb43423          	sd	a1,-24(s0)
   186bc:	fea43023          	sd	a0,-32(s0)
   186c0:	fcd43c23          	sd	a3,-40(s0)
   186c4:	fcc43823          	sd	a2,-48(s0)
   186c8:	fd843583          	ld	a1,-40(s0)
   186cc:	fd043503          	ld	a0,-48(s0)
   186d0:	fe843603          	ld	a2,-24(s0)
   186d4:	fcc43423          	sd	a2,-56(s0)
   186d8:	fe043603          	ld	a2,-32(s0)
   186dc:	fcc43023          	sd	a2,-64(s0)
   186e0:	078000ef          	jal	18758 <toRep>
   186e4:	fff00613          	li	a2,-1
   186e8:	03f61613          	sll	a2,a2,0x3f
   186ec:	00c5c5b3          	xor	a1,a1,a2
   186f0:	028000ef          	jal	18718 <fromRep>
   186f4:	00050613          	mv	a2,a0
   186f8:	fc043503          	ld	a0,-64(s0)
   186fc:	00058693          	mv	a3,a1
   18700:	fc843583          	ld	a1,-56(s0)
   18704:	9d8ff0ef          	jal	178dc <__addtf3>
   18708:	03813083          	ld	ra,56(sp)
   1870c:	03013403          	ld	s0,48(sp)
   18710:	04010113          	add	sp,sp,64
   18714:	00008067          	ret

0000000000018718 <fromRep>:
   18718:	fd010113          	add	sp,sp,-48
   1871c:	02113423          	sd	ra,40(sp)
   18720:	02813023          	sd	s0,32(sp)
   18724:	03010413          	add	s0,sp,48
   18728:	feb43423          	sd	a1,-24(s0)
   1872c:	fea43023          	sd	a0,-32(s0)
   18730:	fe043503          	ld	a0,-32(s0)
   18734:	fe843583          	ld	a1,-24(s0)
   18738:	fcb43c23          	sd	a1,-40(s0)
   1873c:	fca43823          	sd	a0,-48(s0)
   18740:	fd043503          	ld	a0,-48(s0)
   18744:	fd843583          	ld	a1,-40(s0)
   18748:	02813083          	ld	ra,40(sp)
   1874c:	02013403          	ld	s0,32(sp)
   18750:	03010113          	add	sp,sp,48
   18754:	00008067          	ret

0000000000018758 <toRep>:
   18758:	fd010113          	add	sp,sp,-48
   1875c:	02113423          	sd	ra,40(sp)
   18760:	02813023          	sd	s0,32(sp)
   18764:	03010413          	add	s0,sp,48
   18768:	feb43423          	sd	a1,-24(s0)
   1876c:	fea43023          	sd	a0,-32(s0)
   18770:	fe043503          	ld	a0,-32(s0)
   18774:	fe843583          	ld	a1,-24(s0)
   18778:	fcb43c23          	sd	a1,-40(s0)
   1877c:	fca43823          	sd	a0,-48(s0)
   18780:	fd043503          	ld	a0,-48(s0)
   18784:	fd843583          	ld	a1,-40(s0)
   18788:	02813083          	ld	ra,40(sp)
   1878c:	02013403          	ld	s0,32(sp)
   18790:	03010113          	add	sp,sp,48
   18794:	00008067          	ret

0000000000018798 <__fixunstfsi>:
   18798:	fe010113          	add	sp,sp,-32
   1879c:	00113c23          	sd	ra,24(sp)
   187a0:	00813823          	sd	s0,16(sp)
   187a4:	02010413          	add	s0,sp,32
   187a8:	feb43423          	sd	a1,-24(s0)
   187ac:	fea43023          	sd	a0,-32(s0)
   187b0:	fe843583          	ld	a1,-24(s0)
   187b4:	fe043503          	ld	a0,-32(s0)
   187b8:	014000ef          	jal	187cc <__fixuint>
   187bc:	01813083          	ld	ra,24(sp)
   187c0:	01013403          	ld	s0,16(sp)
   187c4:	02010113          	add	sp,sp,32
   187c8:	00008067          	ret

00000000000187cc <__fixuint>:
   187cc:	f8010113          	add	sp,sp,-128
   187d0:	06113c23          	sd	ra,120(sp)
   187d4:	06813823          	sd	s0,112(sp)
   187d8:	08010413          	add	s0,sp,128
   187dc:	fcb43c23          	sd	a1,-40(s0)
   187e0:	fca43823          	sd	a0,-48(s0)
   187e4:	fd843583          	ld	a1,-40(s0)
   187e8:	fd043503          	ld	a0,-48(s0)
   187ec:	144000ef          	jal	18930 <toRep>
   187f0:	fcb43423          	sd	a1,-56(s0)
   187f4:	fca43023          	sd	a0,-64(s0)
   187f8:	fc043583          	ld	a1,-64(s0)
   187fc:	fc843503          	ld	a0,-56(s0)
   18800:	00151513          	sll	a0,a0,0x1
   18804:	00155513          	srl	a0,a0,0x1
   18808:	fab43823          	sd	a1,-80(s0)
   1880c:	faa43c23          	sd	a0,-72(s0)
   18810:	fc843503          	ld	a0,-56(s0)
   18814:	43f55513          	sra	a0,a0,0x3f
   18818:	00156513          	or	a0,a0,1
   1881c:	faa42623          	sw	a0,-84(s0)
   18820:	fbe45503          	lhu	a0,-66(s0)
   18824:	ffffc5b7          	lui	a1,0xffffc
   18828:	0015859b          	addw	a1,a1,1 # ffffffffffffc001 <__global_pointer$+0xfffffffffffe0fb9>
   1882c:	00b5053b          	addw	a0,a0,a1
   18830:	faa42423          	sw	a0,-88(s0)
   18834:	fb043583          	ld	a1,-80(s0)
   18838:	fb843503          	ld	a0,-72(s0)
   1883c:	01051513          	sll	a0,a0,0x10
   18840:	01055513          	srl	a0,a0,0x10
   18844:	00100613          	li	a2,1
   18848:	03061613          	sll	a2,a2,0x30
   1884c:	00c56533          	or	a0,a0,a2
   18850:	f8b43823          	sd	a1,-112(s0)
   18854:	f8a43c23          	sd	a0,-104(s0)
   18858:	fac42503          	lw	a0,-84(s0)
   1885c:	fff00593          	li	a1,-1
   18860:	00b50a63          	beq	a0,a1,18874 <.LBB1_2>
   18864:	0040006f          	j	18868 <.LBB1_1>

0000000000018868 <.LBB1_1>:
   18868:	fa842503          	lw	a0,-88(s0)
   1886c:	00055a63          	bgez	a0,18880 <.LBB1_3>
   18870:	0040006f          	j	18874 <.LBB1_2>

0000000000018874 <.LBB1_2>:
   18874:	00000513          	li	a0,0
   18878:	fea42623          	sw	a0,-20(s0)
   1887c:	0a00006f          	j	1891c <.LBB1_10>

0000000000018880 <.LBB1_3>:
   18880:	fa842503          	lw	a0,-88(s0)
   18884:	02000593          	li	a1,32
   18888:	00b56a63          	bltu	a0,a1,1889c <.LBB1_5>
   1888c:	0040006f          	j	18890 <.LBB1_4>

0000000000018890 <.LBB1_4>:
   18890:	fff00513          	li	a0,-1
   18894:	fea42623          	sw	a0,-20(s0)
   18898:	0840006f          	j	1891c <.LBB1_10>

000000000001889c <.LBB1_5>:
   1889c:	fa842583          	lw	a1,-88(s0)
   188a0:	06f00513          	li	a0,111
   188a4:	06b54063          	blt	a0,a1,18904 <.LBB1_9>
   188a8:	0040006f          	j	188ac <.LBB1_6>

00000000000188ac <.LBB1_6>:
   188ac:	f9843603          	ld	a2,-104(s0)
   188b0:	f9043583          	ld	a1,-112(s0)
   188b4:	fa842683          	lw	a3,-88(s0)
   188b8:	07000513          	li	a0,112
   188bc:	40d5053b          	subw	a0,a0,a3
   188c0:	00a5d5b3          	srl	a1,a1,a0
   188c4:	02051513          	sll	a0,a0,0x20
   188c8:	02055513          	srl	a0,a0,0x20
   188cc:	fff54713          	not	a4,a0
   188d0:	00161693          	sll	a3,a2,0x1
   188d4:	00e696b3          	sll	a3,a3,a4
   188d8:	00d5e5b3          	or	a1,a1,a3
   188dc:	00a65633          	srl	a2,a2,a0
   188e0:	f8c43023          	sd	a2,-128(s0)
   188e4:	fc050513          	add	a0,a0,-64
   188e8:	f8b43423          	sd	a1,-120(s0)
   188ec:	00054663          	bltz	a0,188f8 <.LBB1_8>
   188f0:	f8043503          	ld	a0,-128(s0)
   188f4:	f8a43423          	sd	a0,-120(s0)

00000000000188f8 <.LBB1_8>:
   188f8:	f8843503          	ld	a0,-120(s0)
   188fc:	fea42623          	sw	a0,-20(s0)
   18900:	01c0006f          	j	1891c <.LBB1_10>

0000000000018904 <.LBB1_9>:
   18904:	f9042503          	lw	a0,-112(s0)
   18908:	fa842583          	lw	a1,-88(s0)
   1890c:	f905859b          	addw	a1,a1,-112
   18910:	00b5153b          	sllw	a0,a0,a1
   18914:	fea42623          	sw	a0,-20(s0)
   18918:	0040006f          	j	1891c <.LBB1_10>

000000000001891c <.LBB1_10>:
   1891c:	fec42503          	lw	a0,-20(s0)
   18920:	07813083          	ld	ra,120(sp)
   18924:	07013403          	ld	s0,112(sp)
   18928:	08010113          	add	sp,sp,128
   1892c:	00008067          	ret

0000000000018930 <toRep>:
   18930:	fd010113          	add	sp,sp,-48
   18934:	02113423          	sd	ra,40(sp)
   18938:	02813023          	sd	s0,32(sp)
   1893c:	03010413          	add	s0,sp,48
   18940:	feb43423          	sd	a1,-24(s0)
   18944:	fea43023          	sd	a0,-32(s0)
   18948:	fe043503          	ld	a0,-32(s0)
   1894c:	fe843583          	ld	a1,-24(s0)
   18950:	fcb43c23          	sd	a1,-40(s0)
   18954:	fca43823          	sd	a0,-48(s0)
   18958:	fd043503          	ld	a0,-48(s0)
   1895c:	fd843583          	ld	a1,-40(s0)
   18960:	02813083          	ld	ra,40(sp)
   18964:	02013403          	ld	s0,32(sp)
   18968:	03010113          	add	sp,sp,48
   1896c:	00008067          	ret

0000000000018970 <__floatunsitf>:
   18970:	fa010113          	add	sp,sp,-96
   18974:	04113c23          	sd	ra,88(sp)
   18978:	04813823          	sd	s0,80(sp)
   1897c:	06010413          	add	s0,sp,96
   18980:	fca42e23          	sw	a0,-36(s0)
   18984:	02000513          	li	a0,32
   18988:	fca42c23          	sw	a0,-40(s0)
   1898c:	fdc42503          	lw	a0,-36(s0)
   18990:	02051063          	bnez	a0,189b0 <.LBB0_2>
   18994:	0040006f          	j	18998 <.LBB0_1>

0000000000018998 <.LBB0_1>:
   18998:	00000593          	li	a1,0
   1899c:	00058513          	mv	a0,a1
   189a0:	164000ef          	jal	18b04 <fromRep>
   189a4:	feb43423          	sd	a1,-24(s0)
   189a8:	fea43023          	sd	a0,-32(s0)
   189ac:	1400006f          	j	18aec <.LBB0_5>

00000000000189b0 <.LBB0_2>:
   189b0:	fdc42503          	lw	a0,-36(s0)
   189b4:	0015559b          	srlw	a1,a0,0x1
   189b8:	00b56533          	or	a0,a0,a1
   189bc:	0025559b          	srlw	a1,a0,0x2
   189c0:	00b56533          	or	a0,a0,a1
   189c4:	0045559b          	srlw	a1,a0,0x4
   189c8:	00b56533          	or	a0,a0,a1
   189cc:	0085559b          	srlw	a1,a0,0x8
   189d0:	00b56533          	or	a0,a0,a1
   189d4:	0105559b          	srlw	a1,a0,0x10
   189d8:	00b56533          	or	a0,a0,a1
   189dc:	fff54513          	not	a0,a0
   189e0:	00155593          	srl	a1,a0,0x1
   189e4:	55555637          	lui	a2,0x55555
   189e8:	5556061b          	addw	a2,a2,1365 # 55555555 <__global_pointer$+0x5553a50d>
   189ec:	00c5f5b3          	and	a1,a1,a2
   189f0:	40b505b3          	sub	a1,a0,a1
   189f4:	33333537          	lui	a0,0x33333
   189f8:	3335061b          	addw	a2,a0,819 # 33333333 <__global_pointer$+0x333182eb>
   189fc:	00c5f533          	and	a0,a1,a2
   18a00:	0025d593          	srl	a1,a1,0x2
   18a04:	00c5f5b3          	and	a1,a1,a2
   18a08:	00b50533          	add	a0,a0,a1
   18a0c:	00455593          	srl	a1,a0,0x4
   18a10:	00b50533          	add	a0,a0,a1
   18a14:	0f0f15b7          	lui	a1,0xf0f1
   18a18:	f0f5859b          	addw	a1,a1,-241 # f0f0f0f <__global_pointer$+0xf0d5ec7>
   18a1c:	00b57533          	and	a0,a0,a1
   18a20:	010105b7          	lui	a1,0x1010
   18a24:	1015859b          	addw	a1,a1,257 # 1010101 <__global_pointer$+0xff50b9>
   18a28:	e55f90ef          	jal	1287c <__muldi3>
   18a2c:	0185559b          	srlw	a1,a0,0x18
   18a30:	01f00513          	li	a0,31
   18a34:	40b5053b          	subw	a0,a0,a1
   18a38:	fca42a23          	sw	a0,-44(s0)
   18a3c:	fd442583          	lw	a1,-44(s0)
   18a40:	07000513          	li	a0,112
   18a44:	40b5053b          	subw	a0,a0,a1
   18a48:	faa42e23          	sw	a0,-68(s0)
   18a4c:	fdc46583          	lwu	a1,-36(s0)
   18a50:	fbc46603          	lwu	a2,-68(s0)
   18a54:	00c59733          	sll	a4,a1,a2
   18a58:	fae43023          	sd	a4,-96(s0)
   18a5c:	fc060513          	add	a0,a2,-64
   18a60:	00052793          	slti	a5,a0,0
   18a64:	00000693          	li	a3,0
   18a68:	40f686b3          	sub	a3,a3,a5
   18a6c:	00e6f6b3          	and	a3,a3,a4
   18a70:	fad43423          	sd	a3,-88(s0)
   18a74:	fff64613          	not	a2,a2
   18a78:	0015d593          	srl	a1,a1,0x1
   18a7c:	00c5d5b3          	srl	a1,a1,a2
   18a80:	fab43823          	sd	a1,-80(s0)
   18a84:	00054663          	bltz	a0,18a90 <.LBB0_4>
   18a88:	fa043503          	ld	a0,-96(s0)
   18a8c:	faa43823          	sd	a0,-80(s0)

0000000000018a90 <.LBB0_4>:
   18a90:	fa843503          	ld	a0,-88(s0)
   18a94:	fb043583          	ld	a1,-80(s0)
   18a98:	00100613          	li	a2,1
   18a9c:	03061613          	sll	a2,a2,0x30
   18aa0:	00c5c5b3          	xor	a1,a1,a2
   18aa4:	fcb43423          	sd	a1,-56(s0)
   18aa8:	fca43023          	sd	a0,-64(s0)
   18aac:	fd442503          	lw	a0,-44(s0)
   18ab0:	03051513          	sll	a0,a0,0x30
   18ab4:	fc843583          	ld	a1,-56(s0)
   18ab8:	00b50533          	add	a0,a0,a1
   18abc:	fc043583          	ld	a1,-64(s0)
   18ac0:	03fff637          	lui	a2,0x3fff
   18ac4:	02461613          	sll	a2,a2,0x24
   18ac8:	00c50533          	add	a0,a0,a2
   18acc:	fcb43023          	sd	a1,-64(s0)
   18ad0:	fca43423          	sd	a0,-56(s0)
   18ad4:	fc843583          	ld	a1,-56(s0)
   18ad8:	fc043503          	ld	a0,-64(s0)
   18adc:	028000ef          	jal	18b04 <fromRep>
   18ae0:	feb43423          	sd	a1,-24(s0)
   18ae4:	fea43023          	sd	a0,-32(s0)
   18ae8:	0040006f          	j	18aec <.LBB0_5>

0000000000018aec <.LBB0_5>:
   18aec:	fe043503          	ld	a0,-32(s0)
   18af0:	fe843583          	ld	a1,-24(s0)
   18af4:	05813083          	ld	ra,88(sp)
   18af8:	05013403          	ld	s0,80(sp)
   18afc:	06010113          	add	sp,sp,96
   18b00:	00008067          	ret

0000000000018b04 <fromRep>:
   18b04:	fd010113          	add	sp,sp,-48
   18b08:	02113423          	sd	ra,40(sp)
   18b0c:	02813023          	sd	s0,32(sp)
   18b10:	03010413          	add	s0,sp,48
   18b14:	feb43423          	sd	a1,-24(s0)
   18b18:	fea43023          	sd	a0,-32(s0)
   18b1c:	fe043503          	ld	a0,-32(s0)
   18b20:	fe843583          	ld	a1,-24(s0)
   18b24:	fcb43c23          	sd	a1,-40(s0)
   18b28:	fca43823          	sd	a0,-48(s0)
   18b2c:	fd043503          	ld	a0,-48(s0)
   18b30:	fd843583          	ld	a1,-40(s0)
   18b34:	02813083          	ld	ra,40(sp)
   18b38:	02013403          	ld	s0,32(sp)
   18b3c:	03010113          	add	sp,sp,48
   18b40:	00008067          	ret

0000000000018b44 <__divdi3>:
   18b44:	fc010113          	add	sp,sp,-64
   18b48:	02113c23          	sd	ra,56(sp)
   18b4c:	02813823          	sd	s0,48(sp)
   18b50:	04010413          	add	s0,sp,64
   18b54:	fea43423          	sd	a0,-24(s0)
   18b58:	feb43023          	sd	a1,-32(s0)
   18b5c:	03f00513          	li	a0,63
   18b60:	fca42e23          	sw	a0,-36(s0)
   18b64:	fe843503          	ld	a0,-24(s0)
   18b68:	43f55513          	sra	a0,a0,0x3f
   18b6c:	fca43823          	sd	a0,-48(s0)
   18b70:	fe043503          	ld	a0,-32(s0)
   18b74:	43f55513          	sra	a0,a0,0x3f
   18b78:	fca43423          	sd	a0,-56(s0)
   18b7c:	fe843503          	ld	a0,-24(s0)
   18b80:	fd043583          	ld	a1,-48(s0)
   18b84:	00b54533          	xor	a0,a0,a1
   18b88:	40b50533          	sub	a0,a0,a1
   18b8c:	fea43423          	sd	a0,-24(s0)
   18b90:	fe043503          	ld	a0,-32(s0)
   18b94:	fc843583          	ld	a1,-56(s0)
   18b98:	00b54533          	xor	a0,a0,a1
   18b9c:	40b50533          	sub	a0,a0,a1
   18ba0:	fea43023          	sd	a0,-32(s0)
   18ba4:	fc843583          	ld	a1,-56(s0)
   18ba8:	fd043503          	ld	a0,-48(s0)
   18bac:	00b54533          	xor	a0,a0,a1
   18bb0:	fca43823          	sd	a0,-48(s0)
   18bb4:	fe843503          	ld	a0,-24(s0)
   18bb8:	fe043583          	ld	a1,-32(s0)
   18bbc:	00000613          	li	a2,0
   18bc0:	ff8fc0ef          	jal	153b8 <__udivmoddi4>
   18bc4:	fd043583          	ld	a1,-48(s0)
   18bc8:	00b54533          	xor	a0,a0,a1
   18bcc:	40b50533          	sub	a0,a0,a1
   18bd0:	03813083          	ld	ra,56(sp)
   18bd4:	03013403          	ld	s0,48(sp)
   18bd8:	04010113          	add	sp,sp,64
   18bdc:	00008067          	ret

0000000000018be0 <__fixtfsi>:
   18be0:	fe010113          	add	sp,sp,-32
   18be4:	00113c23          	sd	ra,24(sp)
   18be8:	00813823          	sd	s0,16(sp)
   18bec:	02010413          	add	s0,sp,32
   18bf0:	feb43423          	sd	a1,-24(s0)
   18bf4:	fea43023          	sd	a0,-32(s0)
   18bf8:	fe843583          	ld	a1,-24(s0)
   18bfc:	fe043503          	ld	a0,-32(s0)
   18c00:	014000ef          	jal	18c14 <__fixint>
   18c04:	01813083          	ld	ra,24(sp)
   18c08:	01013403          	ld	s0,16(sp)
   18c0c:	02010113          	add	sp,sp,32
   18c10:	00008067          	ret

0000000000018c14 <__fixint>:
   18c14:	f5010113          	add	sp,sp,-176
   18c18:	0a113423          	sd	ra,168(sp)
   18c1c:	0a813023          	sd	s0,160(sp)
   18c20:	0b010413          	add	s0,sp,176
   18c24:	fcb43c23          	sd	a1,-40(s0)
   18c28:	fca43823          	sd	a0,-48(s0)
   18c2c:	80000537          	lui	a0,0x80000
   18c30:	fff5059b          	addw	a1,a0,-1 # 7fffffff <__global_pointer$+0x7ffe4fb7>
   18c34:	fcb42623          	sw	a1,-52(s0)
   18c38:	fca42423          	sw	a0,-56(s0)
   18c3c:	fd843583          	ld	a1,-40(s0)
   18c40:	fd043503          	ld	a0,-48(s0)
   18c44:	188000ef          	jal	18dcc <toRep>
   18c48:	fab43c23          	sd	a1,-72(s0)
   18c4c:	faa43823          	sd	a0,-80(s0)
   18c50:	fb043583          	ld	a1,-80(s0)
   18c54:	fb843503          	ld	a0,-72(s0)
   18c58:	00151513          	sll	a0,a0,0x1
   18c5c:	00155513          	srl	a0,a0,0x1
   18c60:	fab43023          	sd	a1,-96(s0)
   18c64:	faa43423          	sd	a0,-88(s0)
   18c68:	fb843503          	ld	a0,-72(s0)
   18c6c:	43f55513          	sra	a0,a0,0x3f
   18c70:	00156513          	or	a0,a0,1
   18c74:	f8a42e23          	sw	a0,-100(s0)
   18c78:	fae45503          	lhu	a0,-82(s0)
   18c7c:	ffffc5b7          	lui	a1,0xffffc
   18c80:	0015859b          	addw	a1,a1,1 # ffffffffffffc001 <__global_pointer$+0xfffffffffffe0fb9>
   18c84:	00b5053b          	addw	a0,a0,a1
   18c88:	f8a42c23          	sw	a0,-104(s0)
   18c8c:	fa043583          	ld	a1,-96(s0)
   18c90:	fa843503          	ld	a0,-88(s0)
   18c94:	01051513          	sll	a0,a0,0x10
   18c98:	01055513          	srl	a0,a0,0x10
   18c9c:	00100613          	li	a2,1
   18ca0:	03061613          	sll	a2,a2,0x30
   18ca4:	00c56533          	or	a0,a0,a2
   18ca8:	f8b43023          	sd	a1,-128(s0)
   18cac:	f8a43423          	sd	a0,-120(s0)
   18cb0:	f9842503          	lw	a0,-104(s0)
   18cb4:	00055a63          	bgez	a0,18cc8 <.LBB1_2>
   18cb8:	0040006f          	j	18cbc <.LBB1_1>

0000000000018cbc <.LBB1_1>:
   18cbc:	00000513          	li	a0,0
   18cc0:	fea42623          	sw	a0,-20(s0)
   18cc4:	0f40006f          	j	18db8 <.LBB1_9>

0000000000018cc8 <.LBB1_2>:
   18cc8:	f9842503          	lw	a0,-104(s0)
   18ccc:	02000593          	li	a1,32
   18cd0:	02b56263          	bltu	a0,a1,18cf4 <.LBB1_4>
   18cd4:	0040006f          	j	18cd8 <.LBB1_3>

0000000000018cd8 <.LBB1_3>:
   18cd8:	f9c42503          	lw	a0,-100(s0)
   18cdc:	fff50513          	add	a0,a0,-1
   18ce0:	00153593          	seqz	a1,a0
   18ce4:	80000537          	lui	a0,0x80000
   18ce8:	40b5053b          	subw	a0,a0,a1
   18cec:	fea42623          	sw	a0,-20(s0)
   18cf0:	0c80006f          	j	18db8 <.LBB1_9>

0000000000018cf4 <.LBB1_4>:
   18cf4:	f9842583          	lw	a1,-104(s0)
   18cf8:	06f00513          	li	a0,111
   18cfc:	08b54e63          	blt	a0,a1,18d98 <.LBB1_8>
   18d00:	0040006f          	j	18d04 <.LBB1_5>

0000000000018d04 <.LBB1_5>:
   18d04:	f9c42503          	lw	a0,-100(s0)
   18d08:	f4a43823          	sd	a0,-176(s0)
   18d0c:	f8843603          	ld	a2,-120(s0)
   18d10:	f4c43c23          	sd	a2,-168(s0)
   18d14:	f8043583          	ld	a1,-128(s0)
   18d18:	f9842683          	lw	a3,-104(s0)
   18d1c:	07000513          	li	a0,112
   18d20:	40d5053b          	subw	a0,a0,a3
   18d24:	f6a43023          	sd	a0,-160(s0)
   18d28:	00a5d5b3          	srl	a1,a1,a0
   18d2c:	02051513          	sll	a0,a0,0x20
   18d30:	02055513          	srl	a0,a0,0x20
   18d34:	fff54713          	not	a4,a0
   18d38:	00161693          	sll	a3,a2,0x1
   18d3c:	00e696b3          	sll	a3,a3,a4
   18d40:	00d5e5b3          	or	a1,a1,a3
   18d44:	00a65633          	srl	a2,a2,a0
   18d48:	f6c43423          	sd	a2,-152(s0)
   18d4c:	fc050513          	add	a0,a0,-64 # ffffffff7fffffc0 <__global_pointer$+0xffffffff7ffe4f78>
   18d50:	f6a43823          	sd	a0,-144(s0)
   18d54:	f6b43c23          	sd	a1,-136(s0)
   18d58:	00054663          	bltz	a0,18d64 <.LBB1_7>
   18d5c:	f6843503          	ld	a0,-152(s0)
   18d60:	f6a43c23          	sd	a0,-136(s0)

0000000000018d64 <.LBB1_7>:
   18d64:	f5043503          	ld	a0,-176(s0)
   18d68:	f7043583          	ld	a1,-144(s0)
   18d6c:	f5843683          	ld	a3,-168(s0)
   18d70:	f6043703          	ld	a4,-160(s0)
   18d74:	f7843603          	ld	a2,-136(s0)
   18d78:	00e6d6b3          	srl	a3,a3,a4
   18d7c:	0005a713          	slti	a4,a1,0
   18d80:	00000593          	li	a1,0
   18d84:	40e585b3          	sub	a1,a1,a4
   18d88:	00d5f6b3          	and	a3,a1,a3
   18d8c:	080000ef          	jal	18e0c <__multi3>
   18d90:	fea42623          	sw	a0,-20(s0)
   18d94:	0240006f          	j	18db8 <.LBB1_9>

0000000000018d98 <.LBB1_8>:
   18d98:	f9c42503          	lw	a0,-100(s0)
   18d9c:	f8042583          	lw	a1,-128(s0)
   18da0:	f9842603          	lw	a2,-104(s0)
   18da4:	f906061b          	addw	a2,a2,-112 # 3ffef90 <__global_pointer$+0x3fe3f48>
   18da8:	00c595bb          	sllw	a1,a1,a2
   18dac:	ad1f90ef          	jal	1287c <__muldi3>
   18db0:	fea42623          	sw	a0,-20(s0)
   18db4:	0040006f          	j	18db8 <.LBB1_9>

0000000000018db8 <.LBB1_9>:
   18db8:	fec42503          	lw	a0,-20(s0)
   18dbc:	0a813083          	ld	ra,168(sp)
   18dc0:	0a013403          	ld	s0,160(sp)
   18dc4:	0b010113          	add	sp,sp,176
   18dc8:	00008067          	ret

0000000000018dcc <toRep>:
   18dcc:	fd010113          	add	sp,sp,-48
   18dd0:	02113423          	sd	ra,40(sp)
   18dd4:	02813023          	sd	s0,32(sp)
   18dd8:	03010413          	add	s0,sp,48
   18ddc:	feb43423          	sd	a1,-24(s0)
   18de0:	fea43023          	sd	a0,-32(s0)
   18de4:	fe043503          	ld	a0,-32(s0)
   18de8:	fe843583          	ld	a1,-24(s0)
   18dec:	fcb43c23          	sd	a1,-40(s0)
   18df0:	fca43823          	sd	a0,-48(s0)
   18df4:	fd043503          	ld	a0,-48(s0)
   18df8:	fd843583          	ld	a1,-40(s0)
   18dfc:	02813083          	ld	ra,40(sp)
   18e00:	02013403          	ld	s0,32(sp)
   18e04:	03010113          	add	sp,sp,48
   18e08:	00008067          	ret

0000000000018e0c <__multi3>:
   18e0c:	f9010113          	add	sp,sp,-112
   18e10:	06113423          	sd	ra,104(sp)
   18e14:	06813023          	sd	s0,96(sp)
   18e18:	07010413          	add	s0,sp,112
   18e1c:	feb43423          	sd	a1,-24(s0)
   18e20:	fea43023          	sd	a0,-32(s0)
   18e24:	fcd43c23          	sd	a3,-40(s0)
   18e28:	fcc43823          	sd	a2,-48(s0)
   18e2c:	fe043503          	ld	a0,-32(s0)
   18e30:	fe843583          	ld	a1,-24(s0)
   18e34:	fcb43423          	sd	a1,-56(s0)
   18e38:	fca43023          	sd	a0,-64(s0)
   18e3c:	fd043503          	ld	a0,-48(s0)
   18e40:	fd843583          	ld	a1,-40(s0)
   18e44:	fab43c23          	sd	a1,-72(s0)
   18e48:	faa43823          	sd	a0,-80(s0)
   18e4c:	fc043503          	ld	a0,-64(s0)
   18e50:	fb043583          	ld	a1,-80(s0)
   18e54:	058000ef          	jal	18eac <__mulddi3>
   18e58:	fab43423          	sd	a1,-88(s0)
   18e5c:	faa43023          	sd	a0,-96(s0)
   18e60:	fc843503          	ld	a0,-56(s0)
   18e64:	fb043583          	ld	a1,-80(s0)
   18e68:	a15f90ef          	jal	1287c <__muldi3>
   18e6c:	f8a43c23          	sd	a0,-104(s0)
   18e70:	fc043503          	ld	a0,-64(s0)
   18e74:	fb843583          	ld	a1,-72(s0)
   18e78:	a05f90ef          	jal	1287c <__muldi3>
   18e7c:	00050593          	mv	a1,a0
   18e80:	f9843503          	ld	a0,-104(s0)
   18e84:	00b505b3          	add	a1,a0,a1
   18e88:	fa843503          	ld	a0,-88(s0)
   18e8c:	00b50533          	add	a0,a0,a1
   18e90:	faa43423          	sd	a0,-88(s0)
   18e94:	fa043503          	ld	a0,-96(s0)
   18e98:	fa843583          	ld	a1,-88(s0)
   18e9c:	06813083          	ld	ra,104(sp)
   18ea0:	06013403          	ld	s0,96(sp)
   18ea4:	07010113          	add	sp,sp,112
   18ea8:	00008067          	ret

0000000000018eac <__mulddi3>:
   18eac:	fb010113          	add	sp,sp,-80
   18eb0:	04113423          	sd	ra,72(sp)
   18eb4:	04813023          	sd	s0,64(sp)
   18eb8:	05010413          	add	s0,sp,80
   18ebc:	fea43423          	sd	a0,-24(s0)
   18ec0:	feb43023          	sd	a1,-32(s0)
   18ec4:	02000513          	li	a0,32
   18ec8:	fca42623          	sw	a0,-52(s0)
   18ecc:	fff00513          	li	a0,-1
   18ed0:	02055513          	srl	a0,a0,0x20
   18ed4:	fca43023          	sd	a0,-64(s0)
   18ed8:	fe846503          	lwu	a0,-24(s0)
   18edc:	fe046583          	lwu	a1,-32(s0)
   18ee0:	99df90ef          	jal	1287c <__muldi3>
   18ee4:	fca43823          	sd	a0,-48(s0)
   18ee8:	fd446503          	lwu	a0,-44(s0)
   18eec:	faa43c23          	sd	a0,-72(s0)
   18ef0:	fd046503          	lwu	a0,-48(s0)
   18ef4:	fca43823          	sd	a0,-48(s0)
   18ef8:	fec46503          	lwu	a0,-20(s0)
   18efc:	fe046583          	lwu	a1,-32(s0)
   18f00:	97df90ef          	jal	1287c <__muldi3>
   18f04:	00050593          	mv	a1,a0
   18f08:	fb843503          	ld	a0,-72(s0)
   18f0c:	00b50533          	add	a0,a0,a1
   18f10:	faa43c23          	sd	a0,-72(s0)
   18f14:	fb843503          	ld	a0,-72(s0)
   18f18:	02051593          	sll	a1,a0,0x20
   18f1c:	fd043503          	ld	a0,-48(s0)
   18f20:	00b50533          	add	a0,a0,a1
   18f24:	fca43823          	sd	a0,-48(s0)
   18f28:	fbc46503          	lwu	a0,-68(s0)
   18f2c:	fca43c23          	sd	a0,-40(s0)
   18f30:	fd446503          	lwu	a0,-44(s0)
   18f34:	faa43c23          	sd	a0,-72(s0)
   18f38:	fd046503          	lwu	a0,-48(s0)
   18f3c:	fca43823          	sd	a0,-48(s0)
   18f40:	fe446503          	lwu	a0,-28(s0)
   18f44:	fe846583          	lwu	a1,-24(s0)
   18f48:	935f90ef          	jal	1287c <__muldi3>
   18f4c:	00050593          	mv	a1,a0
   18f50:	fb843503          	ld	a0,-72(s0)
   18f54:	00b50533          	add	a0,a0,a1
   18f58:	faa43c23          	sd	a0,-72(s0)
   18f5c:	fb843503          	ld	a0,-72(s0)
   18f60:	02051593          	sll	a1,a0,0x20
   18f64:	fd043503          	ld	a0,-48(s0)
   18f68:	00b50533          	add	a0,a0,a1
   18f6c:	fca43823          	sd	a0,-48(s0)
   18f70:	fbc46583          	lwu	a1,-68(s0)
   18f74:	fd843503          	ld	a0,-40(s0)
   18f78:	00b50533          	add	a0,a0,a1
   18f7c:	fca43c23          	sd	a0,-40(s0)
   18f80:	fec46503          	lwu	a0,-20(s0)
   18f84:	fe446583          	lwu	a1,-28(s0)
   18f88:	8f5f90ef          	jal	1287c <__muldi3>
   18f8c:	00050593          	mv	a1,a0
   18f90:	fd843503          	ld	a0,-40(s0)
   18f94:	00b50533          	add	a0,a0,a1
   18f98:	fca43c23          	sd	a0,-40(s0)
   18f9c:	fd043503          	ld	a0,-48(s0)
   18fa0:	fd843583          	ld	a1,-40(s0)
   18fa4:	04813083          	ld	ra,72(sp)
   18fa8:	04013403          	ld	s0,64(sp)
   18fac:	05010113          	add	sp,sp,80
   18fb0:	00008067          	ret

0000000000018fb4 <__floatsitf>:
   18fb4:	f8010113          	add	sp,sp,-128
   18fb8:	06113c23          	sd	ra,120(sp)
   18fbc:	06813823          	sd	s0,112(sp)
   18fc0:	08010413          	add	s0,sp,128
   18fc4:	fca42e23          	sw	a0,-36(s0)
   18fc8:	02000513          	li	a0,32
   18fcc:	fca42c23          	sw	a0,-40(s0)
   18fd0:	fdc42503          	lw	a0,-36(s0)
   18fd4:	02051063          	bnez	a0,18ff4 <.LBB0_2>
   18fd8:	0040006f          	j	18fdc <.LBB0_1>

0000000000018fdc <.LBB0_1>:
   18fdc:	00000593          	li	a1,0
   18fe0:	00058513          	mv	a0,a1
   18fe4:	1b8000ef          	jal	1919c <fromRep>
   18fe8:	feb43423          	sd	a1,-24(s0)
   18fec:	fea43023          	sd	a0,-32(s0)
   18ff0:	1940006f          	j	19184 <.LBB0_7>

0000000000018ff4 <.LBB0_2>:
   18ff4:	00000513          	li	a0,0
   18ff8:	fca43423          	sd	a0,-56(s0)
   18ffc:	fca43023          	sd	a0,-64(s0)
   19000:	fdc42503          	lw	a0,-36(s0)
   19004:	faa42e23          	sw	a0,-68(s0)
   19008:	fdc42503          	lw	a0,-36(s0)
   1900c:	02055663          	bgez	a0,19038 <.LBB0_4>
   19010:	0040006f          	j	19014 <.LBB0_3>

0000000000019014 <.LBB0_3>:
   19014:	00000513          	li	a0,0
   19018:	fca43023          	sd	a0,-64(s0)
   1901c:	fff00593          	li	a1,-1
   19020:	03f59593          	sll	a1,a1,0x3f
   19024:	fcb43423          	sd	a1,-56(s0)
   19028:	fdc42583          	lw	a1,-36(s0)
   1902c:	40b5053b          	subw	a0,a0,a1
   19030:	faa42e23          	sw	a0,-68(s0)
   19034:	0040006f          	j	19038 <.LBB0_4>

0000000000019038 <.LBB0_4>:
   19038:	fbc42503          	lw	a0,-68(s0)
   1903c:	0015559b          	srlw	a1,a0,0x1
   19040:	00b56533          	or	a0,a0,a1
   19044:	0025559b          	srlw	a1,a0,0x2
   19048:	00b56533          	or	a0,a0,a1
   1904c:	0045559b          	srlw	a1,a0,0x4
   19050:	00b56533          	or	a0,a0,a1
   19054:	0085559b          	srlw	a1,a0,0x8
   19058:	00b56533          	or	a0,a0,a1
   1905c:	0105559b          	srlw	a1,a0,0x10
   19060:	00b56533          	or	a0,a0,a1
   19064:	fff54513          	not	a0,a0
   19068:	00155593          	srl	a1,a0,0x1
   1906c:	55555637          	lui	a2,0x55555
   19070:	5556061b          	addw	a2,a2,1365 # 55555555 <__global_pointer$+0x5553a50d>
   19074:	00c5f5b3          	and	a1,a1,a2
   19078:	40b505b3          	sub	a1,a0,a1
   1907c:	33333537          	lui	a0,0x33333
   19080:	3335061b          	addw	a2,a0,819 # 33333333 <__global_pointer$+0x333182eb>
   19084:	00c5f533          	and	a0,a1,a2
   19088:	0025d593          	srl	a1,a1,0x2
   1908c:	00c5f5b3          	and	a1,a1,a2
   19090:	00b50533          	add	a0,a0,a1
   19094:	00455593          	srl	a1,a0,0x4
   19098:	00b50533          	add	a0,a0,a1
   1909c:	0f0f15b7          	lui	a1,0xf0f1
   190a0:	f0f5859b          	addw	a1,a1,-241 # f0f0f0f <__global_pointer$+0xf0d5ec7>
   190a4:	00b57533          	and	a0,a0,a1
   190a8:	010105b7          	lui	a1,0x1010
   190ac:	1015859b          	addw	a1,a1,257 # 1010101 <__global_pointer$+0xff50b9>
   190b0:	fccf90ef          	jal	1287c <__muldi3>
   190b4:	0185559b          	srlw	a1,a0,0x18
   190b8:	01f00513          	li	a0,31
   190bc:	40b5053b          	subw	a0,a0,a1
   190c0:	faa42c23          	sw	a0,-72(s0)
   190c4:	fb842583          	lw	a1,-72(s0)
   190c8:	07000513          	li	a0,112
   190cc:	40b5053b          	subw	a0,a0,a1
   190d0:	f8a42e23          	sw	a0,-100(s0)
   190d4:	fbc46583          	lwu	a1,-68(s0)
   190d8:	f9c46603          	lwu	a2,-100(s0)
   190dc:	00c59733          	sll	a4,a1,a2
   190e0:	f8e43023          	sd	a4,-128(s0)
   190e4:	fc060513          	add	a0,a2,-64
   190e8:	00052793          	slti	a5,a0,0
   190ec:	00000693          	li	a3,0
   190f0:	40f686b3          	sub	a3,a3,a5
   190f4:	00e6f6b3          	and	a3,a3,a4
   190f8:	f8d43423          	sd	a3,-120(s0)
   190fc:	fff64613          	not	a2,a2
   19100:	0015d593          	srl	a1,a1,0x1
   19104:	00c5d5b3          	srl	a1,a1,a2
   19108:	f8b43823          	sd	a1,-112(s0)
   1910c:	00054663          	bltz	a0,19118 <.LBB0_6>
   19110:	f8043503          	ld	a0,-128(s0)
   19114:	f8a43823          	sd	a0,-112(s0)

0000000000019118 <.LBB0_6>:
   19118:	f8843503          	ld	a0,-120(s0)
   1911c:	f9043583          	ld	a1,-112(s0)
   19120:	00100613          	li	a2,1
   19124:	03061613          	sll	a2,a2,0x30
   19128:	00c5c5b3          	xor	a1,a1,a2
   1912c:	fab43423          	sd	a1,-88(s0)
   19130:	faa43023          	sd	a0,-96(s0)
   19134:	fb842503          	lw	a0,-72(s0)
   19138:	03051513          	sll	a0,a0,0x30
   1913c:	fa843583          	ld	a1,-88(s0)
   19140:	00b50533          	add	a0,a0,a1
   19144:	fa043583          	ld	a1,-96(s0)
   19148:	03fff637          	lui	a2,0x3fff
   1914c:	02461613          	sll	a2,a2,0x24
   19150:	00c50533          	add	a0,a0,a2
   19154:	fab43023          	sd	a1,-96(s0)
   19158:	faa43423          	sd	a0,-88(s0)
   1915c:	fa843583          	ld	a1,-88(s0)
   19160:	fa043503          	ld	a0,-96(s0)
   19164:	fc843603          	ld	a2,-56(s0)
   19168:	fc043683          	ld	a3,-64(s0)
   1916c:	00d56533          	or	a0,a0,a3
   19170:	00c5e5b3          	or	a1,a1,a2
   19174:	028000ef          	jal	1919c <fromRep>
   19178:	feb43423          	sd	a1,-24(s0)
   1917c:	fea43023          	sd	a0,-32(s0)
   19180:	0040006f          	j	19184 <.LBB0_7>

0000000000019184 <.LBB0_7>:
   19184:	fe043503          	ld	a0,-32(s0)
   19188:	fe843583          	ld	a1,-24(s0)
   1918c:	07813083          	ld	ra,120(sp)
   19190:	07013403          	ld	s0,112(sp)
   19194:	08010113          	add	sp,sp,128
   19198:	00008067          	ret

000000000001919c <fromRep>:
   1919c:	fd010113          	add	sp,sp,-48
   191a0:	02113423          	sd	ra,40(sp)
   191a4:	02813023          	sd	s0,32(sp)
   191a8:	03010413          	add	s0,sp,48
   191ac:	feb43423          	sd	a1,-24(s0)
   191b0:	fea43023          	sd	a0,-32(s0)
   191b4:	fe043503          	ld	a0,-32(s0)
   191b8:	fe843583          	ld	a1,-24(s0)
   191bc:	fcb43c23          	sd	a1,-40(s0)
   191c0:	fca43823          	sd	a0,-48(s0)
   191c4:	fd043503          	ld	a0,-48(s0)
   191c8:	fd843583          	ld	a1,-40(s0)
   191cc:	02813083          	ld	ra,40(sp)
   191d0:	02013403          	ld	s0,32(sp)
   191d4:	03010113          	add	sp,sp,48
   191d8:	00008067          	ret

00000000000191dc <__extenddftf2>:
   191dc:	fe010113          	add	sp,sp,-32
   191e0:	00113c23          	sd	ra,24(sp)
   191e4:	00813823          	sd	s0,16(sp)
   191e8:	02010413          	add	s0,sp,32
   191ec:	fea43423          	sd	a0,-24(s0)
   191f0:	fe843503          	ld	a0,-24(s0)
   191f4:	014000ef          	jal	19208 <__extendXfYf2__>
   191f8:	01813083          	ld	ra,24(sp)
   191fc:	01013403          	ld	s0,16(sp)
   19200:	02010113          	add	sp,sp,32
   19204:	00008067          	ret

0000000000019208 <__extendXfYf2__>:
   19208:	ef010113          	add	sp,sp,-272
   1920c:	10113423          	sd	ra,264(sp)
   19210:	10813023          	sd	s0,256(sp)
   19214:	11010413          	add	s0,sp,272
   19218:	fea43423          	sd	a0,-24(s0)
   1921c:	04000513          	li	a0,64
   19220:	fea42223          	sw	a0,-28(s0)
   19224:	00b00513          	li	a0,11
   19228:	fea42023          	sw	a0,-32(s0)
   1922c:	7ff00593          	li	a1,2047
   19230:	fcb42e23          	sw	a1,-36(s0)
   19234:	3ff00513          	li	a0,1023
   19238:	fca42c23          	sw	a0,-40(s0)
   1923c:	00100513          	li	a0,1
   19240:	03451613          	sll	a2,a0,0x34
   19244:	fcc43823          	sd	a2,-48(s0)
   19248:	03459593          	sll	a1,a1,0x34
   1924c:	fcb43423          	sd	a1,-56(s0)
   19250:	fff00593          	li	a1,-1
   19254:	f2b43423          	sd	a1,-216(s0)
   19258:	03f59613          	sll	a2,a1,0x3f
   1925c:	f2c43023          	sd	a2,-224(s0)
   19260:	fcc43023          	sd	a2,-64(s0)
   19264:	0015d613          	srl	a2,a1,0x1
   19268:	f0c43c23          	sd	a2,-232(s0)
   1926c:	fac43c23          	sd	a2,-72(s0)
   19270:	03351613          	sll	a2,a0,0x33
   19274:	fac43823          	sd	a2,-80(s0)
   19278:	00d5d593          	srl	a1,a1,0xd
   1927c:	fab43423          	sd	a1,-88(s0)
   19280:	08000593          	li	a1,128
   19284:	fab42223          	sw	a1,-92(s0)
   19288:	00f00593          	li	a1,15
   1928c:	fab42023          	sw	a1,-96(s0)
   19290:	000085b7          	lui	a1,0x8
   19294:	fff5859b          	addw	a1,a1,-1 # 7fff <.Lline_table_start0+0x7fff>
   19298:	f8b42e23          	sw	a1,-100(s0)
   1929c:	000045b7          	lui	a1,0x4
   192a0:	fff5859b          	addw	a1,a1,-1 # 3fff <.Lline_table_start0+0x3fff>
   192a4:	f8b42c23          	sw	a1,-104(s0)
   192a8:	03051513          	sll	a0,a0,0x30
   192ac:	f8a43423          	sd	a0,-120(s0)
   192b0:	00000513          	li	a0,0
   192b4:	f8a43023          	sd	a0,-128(s0)
   192b8:	fe843503          	ld	a0,-24(s0)
   192bc:	220000ef          	jal	194dc <srcToRep>
   192c0:	f1843683          	ld	a3,-232(s0)
   192c4:	f2043603          	ld	a2,-224(s0)
   192c8:	f2843583          	ld	a1,-216(s0)
   192cc:	f6a43c23          	sd	a0,-136(s0)
   192d0:	f7843503          	ld	a0,-136(s0)
   192d4:	00d57533          	and	a0,a0,a3
   192d8:	f6a43823          	sd	a0,-144(s0)
   192dc:	f7843503          	ld	a0,-136(s0)
   192e0:	00c57533          	and	a0,a0,a2
   192e4:	f6a43423          	sd	a0,-152(s0)
   192e8:	f7043503          	ld	a0,-144(s0)
   192ec:	03459593          	sll	a1,a1,0x34
   192f0:	00b50533          	add	a0,a0,a1
   192f4:	03555593          	srl	a1,a0,0x35
   192f8:	3fe00513          	li	a0,1022
   192fc:	02b56a63          	bltu	a0,a1,19330 <.LBB1_2>
   19300:	0040006f          	j	19304 <.LBB1_1>

0000000000019304 <.LBB1_1>:
   19304:	f7043583          	ld	a1,-144(s0)
   19308:	03c59513          	sll	a0,a1,0x3c
   1930c:	0045d593          	srl	a1,a1,0x4
   19310:	f4b43c23          	sd	a1,-168(s0)
   19314:	f4a43823          	sd	a0,-176(s0)
   19318:	f5843503          	ld	a0,-168(s0)
   1931c:	00f00593          	li	a1,15
   19320:	03a59593          	sll	a1,a1,0x3a
   19324:	00b50533          	add	a0,a0,a1
   19328:	f4a43c23          	sd	a0,-168(s0)
   1932c:	17c0006f          	j	194a8 <.LBB1_11>

0000000000019330 <.LBB1_2>:
   19330:	f7043503          	ld	a0,-144(s0)
   19334:	03455513          	srl	a0,a0,0x34
   19338:	7ff00593          	li	a1,2047
   1933c:	06b56863          	bltu	a0,a1,193ac <.LBB1_4>
   19340:	0040006f          	j	19344 <.LBB1_3>

0000000000019344 <.LBB1_3>:
   19344:	00000513          	li	a0,0
   19348:	f4a43823          	sd	a0,-176(s0)
   1934c:	07fff537          	lui	a0,0x7fff
   19350:	02451513          	sll	a0,a0,0x24
   19354:	f4a43c23          	sd	a0,-168(s0)
   19358:	f7043503          	ld	a0,-144(s0)
   1935c:	00100593          	li	a1,1
   19360:	03359593          	sll	a1,a1,0x33
   19364:	00b57533          	and	a0,a0,a1
   19368:	00455613          	srl	a2,a0,0x4
   1936c:	f5043583          	ld	a1,-176(s0)
   19370:	f5843503          	ld	a0,-168(s0)
   19374:	00c56533          	or	a0,a0,a2
   19378:	f4b43823          	sd	a1,-176(s0)
   1937c:	f4a43c23          	sd	a0,-168(s0)
   19380:	f7043503          	ld	a0,-144(s0)
   19384:	03c51613          	sll	a2,a0,0x3c
   19388:	00d51513          	sll	a0,a0,0xd
   1938c:	01155693          	srl	a3,a0,0x11
   19390:	f5043583          	ld	a1,-176(s0)
   19394:	f5843503          	ld	a0,-168(s0)
   19398:	00d56533          	or	a0,a0,a3
   1939c:	00c5e5b3          	or	a1,a1,a2
   193a0:	f4b43823          	sd	a1,-176(s0)
   193a4:	f4a43c23          	sd	a0,-168(s0)
   193a8:	0fc0006f          	j	194a4 <.LBB1_10>

00000000000193ac <.LBB1_4>:
   193ac:	f7043503          	ld	a0,-144(s0)
   193b0:	0e050063          	beqz	a0,19490 <.LBB1_8>
   193b4:	0040006f          	j	193b8 <.LBB1_5>

00000000000193b8 <.LBB1_5>:
   193b8:	f7043503          	ld	a0,-144(s0)
   193bc:	150000ef          	jal	1950c <src_rep_t_clz>
   193c0:	eea43c23          	sd	a0,-264(s0)
   193c4:	00100513          	li	a0,1
   193c8:	eea43823          	sd	a0,-272(s0)
   193cc:	03451513          	sll	a0,a0,0x34
   193d0:	13c000ef          	jal	1950c <src_rep_t_clz>
   193d4:	00050593          	mv	a1,a0
   193d8:	ef843503          	ld	a0,-264(s0)
   193dc:	40b5053b          	subw	a0,a0,a1
   193e0:	f4a42623          	sw	a0,-180(s0)
   193e4:	f7043583          	ld	a1,-144(s0)
   193e8:	f4c42503          	lw	a0,-180(s0)
   193ec:	03c5051b          	addw	a0,a0,60 # 7fff03c <__global_pointer$+0x7fe3ff4>
   193f0:	00a59733          	sll	a4,a1,a0
   193f4:	02051513          	sll	a0,a0,0x20
   193f8:	02055613          	srl	a2,a0,0x20
   193fc:	fc060513          	add	a0,a2,-64 # 3ffefc0 <__global_pointer$+0x3fe3f78>
   19400:	00052793          	slti	a5,a0,0
   19404:	00000693          	li	a3,0
   19408:	40f686b3          	sub	a3,a3,a5
   1940c:	00e6f6b3          	and	a3,a3,a4
   19410:	f0d43023          	sd	a3,-256(s0)
   19414:	00c596b3          	sll	a3,a1,a2
   19418:	f0d43423          	sd	a3,-248(s0)
   1941c:	0015d593          	srl	a1,a1,0x1
   19420:	fff64613          	not	a2,a2
   19424:	00c5d5b3          	srl	a1,a1,a2
   19428:	f0b43823          	sd	a1,-240(s0)
   1942c:	00054663          	bltz	a0,19438 <.LBB1_7>
   19430:	f0843503          	ld	a0,-248(s0)
   19434:	f0a43823          	sd	a0,-240(s0)

0000000000019438 <.LBB1_7>:
   19438:	ef043583          	ld	a1,-272(s0)
   1943c:	f0043503          	ld	a0,-256(s0)
   19440:	f1043603          	ld	a2,-240(s0)
   19444:	f4c43c23          	sd	a2,-168(s0)
   19448:	f4a43823          	sd	a0,-176(s0)
   1944c:	f5843503          	ld	a0,-168(s0)
   19450:	03059593          	sll	a1,a1,0x30
   19454:	00b54533          	xor	a0,a0,a1
   19458:	f4a43c23          	sd	a0,-168(s0)
   1945c:	f4c42583          	lw	a1,-180(s0)
   19460:	00004537          	lui	a0,0x4
   19464:	c015051b          	addw	a0,a0,-1023 # 3c01 <.Lline_table_start0+0x3c01>
   19468:	40b5053b          	subw	a0,a0,a1
   1946c:	f4a42423          	sw	a0,-184(s0)
   19470:	f4842503          	lw	a0,-184(s0)
   19474:	03051613          	sll	a2,a0,0x30
   19478:	f5043583          	ld	a1,-176(s0)
   1947c:	f5843503          	ld	a0,-168(s0)
   19480:	00c56533          	or	a0,a0,a2
   19484:	f4b43823          	sd	a1,-176(s0)
   19488:	f4a43c23          	sd	a0,-168(s0)
   1948c:	0140006f          	j	194a0 <.LBB1_9>

0000000000019490 <.LBB1_8>:
   19490:	00000513          	li	a0,0
   19494:	f4a43c23          	sd	a0,-168(s0)
   19498:	f4a43823          	sd	a0,-176(s0)
   1949c:	0040006f          	j	194a0 <.LBB1_9>

00000000000194a0 <.LBB1_9>:
   194a0:	0040006f          	j	194a4 <.LBB1_10>

00000000000194a4 <.LBB1_10>:
   194a4:	0040006f          	j	194a8 <.LBB1_11>

00000000000194a8 <.LBB1_11>:
   194a8:	f5043583          	ld	a1,-176(s0)
   194ac:	f5843503          	ld	a0,-168(s0)
   194b0:	f6843603          	ld	a2,-152(s0)
   194b4:	00c56533          	or	a0,a0,a2
   194b8:	f2b43823          	sd	a1,-208(s0)
   194bc:	f2a43c23          	sd	a0,-200(s0)
   194c0:	f3843583          	ld	a1,-200(s0)
   194c4:	f3043503          	ld	a0,-208(s0)
   194c8:	100000ef          	jal	195c8 <dstFromRep>
   194cc:	10813083          	ld	ra,264(sp)
   194d0:	10013403          	ld	s0,256(sp)
   194d4:	11010113          	add	sp,sp,272
   194d8:	00008067          	ret

00000000000194dc <srcToRep>:
   194dc:	fe010113          	add	sp,sp,-32
   194e0:	00113c23          	sd	ra,24(sp)
   194e4:	00813823          	sd	s0,16(sp)
   194e8:	02010413          	add	s0,sp,32
   194ec:	fea43423          	sd	a0,-24(s0)
   194f0:	fe843503          	ld	a0,-24(s0)
   194f4:	fea43023          	sd	a0,-32(s0)
   194f8:	fe043503          	ld	a0,-32(s0)
   194fc:	01813083          	ld	ra,24(sp)
   19500:	01013403          	ld	s0,16(sp)
   19504:	02010113          	add	sp,sp,32
   19508:	00008067          	ret

000000000001950c <src_rep_t_clz>:
   1950c:	fe010113          	add	sp,sp,-32
   19510:	00113c23          	sd	ra,24(sp)
   19514:	00813823          	sd	s0,16(sp)
   19518:	02010413          	add	s0,sp,32
   1951c:	fea43423          	sd	a0,-24(s0)
   19520:	fe843503          	ld	a0,-24(s0)
   19524:	00155593          	srl	a1,a0,0x1
   19528:	00b56533          	or	a0,a0,a1
   1952c:	00255593          	srl	a1,a0,0x2
   19530:	00b56533          	or	a0,a0,a1
   19534:	00455593          	srl	a1,a0,0x4
   19538:	00b56533          	or	a0,a0,a1
   1953c:	00855593          	srl	a1,a0,0x8
   19540:	00b56533          	or	a0,a0,a1
   19544:	01055593          	srl	a1,a0,0x10
   19548:	00b56533          	or	a0,a0,a1
   1954c:	02055593          	srl	a1,a0,0x20
   19550:	00b56533          	or	a0,a0,a1
   19554:	fff54513          	not	a0,a0
   19558:	00155593          	srl	a1,a0,0x1

000000000001955c <.Lpcrel_hi0>:
   1955c:	ffff7617          	auipc	a2,0xffff7
   19560:	70c60613          	add	a2,a2,1804 # 10c68 <errmsg+0x738>
   19564:	00063603          	ld	a2,0(a2)
   19568:	00c5f5b3          	and	a1,a1,a2
   1956c:	40b505b3          	sub	a1,a0,a1

0000000000019570 <.Lpcrel_hi1>:
   19570:	ffff7517          	auipc	a0,0xffff7
   19574:	6e050513          	add	a0,a0,1760 # 10c50 <errmsg+0x720>
   19578:	00053603          	ld	a2,0(a0)
   1957c:	00c5f533          	and	a0,a1,a2
   19580:	0025d593          	srl	a1,a1,0x2
   19584:	00c5f5b3          	and	a1,a1,a2
   19588:	00b50533          	add	a0,a0,a1
   1958c:	00455593          	srl	a1,a0,0x4
   19590:	00b50533          	add	a0,a0,a1

0000000000019594 <.Lpcrel_hi2>:
   19594:	ffff7597          	auipc	a1,0xffff7
   19598:	6c458593          	add	a1,a1,1732 # 10c58 <errmsg+0x728>
   1959c:	0005b583          	ld	a1,0(a1)
   195a0:	00b57533          	and	a0,a0,a1

00000000000195a4 <.Lpcrel_hi3>:
   195a4:	ffff7597          	auipc	a1,0xffff7
   195a8:	6bc58593          	add	a1,a1,1724 # 10c60 <errmsg+0x730>
   195ac:	0005b583          	ld	a1,0(a1)
   195b0:	accf90ef          	jal	1287c <__muldi3>
   195b4:	03855513          	srl	a0,a0,0x38
   195b8:	01813083          	ld	ra,24(sp)
   195bc:	01013403          	ld	s0,16(sp)
   195c0:	02010113          	add	sp,sp,32
   195c4:	00008067          	ret

00000000000195c8 <dstFromRep>:
   195c8:	fd010113          	add	sp,sp,-48
   195cc:	02113423          	sd	ra,40(sp)
   195d0:	02813023          	sd	s0,32(sp)
   195d4:	03010413          	add	s0,sp,48
   195d8:	feb43423          	sd	a1,-24(s0)
   195dc:	fea43023          	sd	a0,-32(s0)
   195e0:	fe043503          	ld	a0,-32(s0)
   195e4:	fe843583          	ld	a1,-24(s0)
   195e8:	fcb43c23          	sd	a1,-40(s0)
   195ec:	fca43823          	sd	a0,-48(s0)
   195f0:	fd043503          	ld	a0,-48(s0)
   195f4:	fd843583          	ld	a1,-40(s0)
   195f8:	02813083          	ld	ra,40(sp)
   195fc:	02013403          	ld	s0,32(sp)
   19600:	03010113          	add	sp,sp,48
   19604:	00008067          	ret

0000000000019608 <puts>:
   19608:	fe010113          	add	sp,sp,-32
   1960c:	00113c23          	sd	ra,24(sp)
   19610:	00813823          	sd	s0,16(sp)
   19614:	00913423          	sd	s1,8(sp)
   19618:	01213023          	sd	s2,0(sp)
   1961c:	0001b5b7          	lui	a1,0x1b
   19620:	88058493          	add	s1,a1,-1920 # 1a880 <__stdout_FILE>
   19624:	08c4a583          	lw	a1,140(s1)
   19628:	00050913          	mv	s2,a0
   1962c:	0005ca63          	bltz	a1,19640 <.LBB0_2>
   19630:	00048513          	mv	a0,s1
   19634:	fbcfb0ef          	jal	14df0 <__lockfile>
   19638:	00050413          	mv	s0,a0
   1963c:	0080006f          	j	19644 <.LBB0_3>

0000000000019640 <.LBB0_2>:
   19640:	00000413          	li	s0,0

0000000000019644 <.LBB0_3>:
   19644:	00090513          	mv	a0,s2
   19648:	00048593          	mv	a1,s1
   1964c:	08c000ef          	jal	196d8 <fputs>
   19650:	06054e63          	bltz	a0,196cc <.LBB0_10>
   19654:	0001b537          	lui	a0,0x1b
   19658:	88050513          	add	a0,a0,-1920 # 1a880 <__stdout_FILE>
   1965c:	09052583          	lw	a1,144(a0)
   19660:	00a00613          	li	a2,10
   19664:	02c58863          	beq	a1,a2,19694 <.LBB0_7>
   19668:	02853583          	ld	a1,40(a0)
   1966c:	02053603          	ld	a2,32(a0)
   19670:	02c58263          	beq	a1,a2,19694 <.LBB0_7>
   19674:	00000493          	li	s1,0
   19678:	00158513          	add	a0,a1,1
   1967c:	0001b637          	lui	a2,0x1b
   19680:	8aa63423          	sd	a0,-1880(a2) # 1a8a8 <__stdout_FILE+0x28>
   19684:	00a00513          	li	a0,10
   19688:	00a58023          	sb	a0,0(a1)
   1968c:	00041c63          	bnez	s0,196a4 <.LBB0_8>
   19690:	0200006f          	j	196b0 <.LBB0_9>

0000000000019694 <.LBB0_7>:
   19694:	00a00593          	li	a1,10
   19698:	110000ef          	jal	197a8 <__overflow>
   1969c:	41f55493          	sra	s1,a0,0x1f
   196a0:	00040863          	beqz	s0,196b0 <.LBB0_9>

00000000000196a4 <.LBB0_8>:
   196a4:	0001b537          	lui	a0,0x1b
   196a8:	88050513          	add	a0,a0,-1920 # 1a880 <__stdout_FILE>
   196ac:	fecfb0ef          	jal	14e98 <__unlockfile>

00000000000196b0 <.LBB0_9>:
   196b0:	00048513          	mv	a0,s1
   196b4:	01813083          	ld	ra,24(sp)
   196b8:	01013403          	ld	s0,16(sp)
   196bc:	00813483          	ld	s1,8(sp)
   196c0:	00013903          	ld	s2,0(sp)
   196c4:	02010113          	add	sp,sp,32
   196c8:	00008067          	ret

00000000000196cc <.LBB0_10>:
   196cc:	fff00493          	li	s1,-1
   196d0:	fc041ae3          	bnez	s0,196a4 <.LBB0_8>
   196d4:	fddff06f          	j	196b0 <.LBB0_9>

00000000000196d8 <fputs>:
   196d8:	fe010113          	add	sp,sp,-32
   196dc:	00113c23          	sd	ra,24(sp)
   196e0:	00813823          	sd	s0,16(sp)
   196e4:	00913423          	sd	s1,8(sp)
   196e8:	01213023          	sd	s2,0(sp)
   196ec:	00058413          	mv	s0,a1
   196f0:	00050493          	mv	s1,a0
   196f4:	040000ef          	jal	19734 <strlen>
   196f8:	00050913          	mv	s2,a0
   196fc:	00100593          	li	a1,1
   19700:	00048513          	mv	a0,s1
   19704:	00090613          	mv	a2,s2
   19708:	00040693          	mv	a3,s0
   1970c:	ba9fb0ef          	jal	152b4 <fwrite>
   19710:	01254533          	xor	a0,a0,s2
   19714:	00153513          	seqz	a0,a0
   19718:	fff50513          	add	a0,a0,-1
   1971c:	01813083          	ld	ra,24(sp)
   19720:	01013403          	ld	s0,16(sp)
   19724:	00813483          	ld	s1,8(sp)
   19728:	00013903          	ld	s2,0(sp)
   1972c:	02010113          	add	sp,sp,32
   19730:	00008067          	ret

0000000000019734 <strlen>:
   19734:	00757613          	and	a2,a0,7
   19738:	00050593          	mv	a1,a0
   1973c:	02060263          	beqz	a2,19760 <.LBB0_4>
   19740:	00150613          	add	a2,a0,1
   19744:	00050593          	mv	a1,a0

0000000000019748 <.LBB0_2>:
   19748:	0005c683          	lbu	a3,0(a1)
   1974c:	04068a63          	beqz	a3,197a0 <.LBB0_7>
   19750:	00158593          	add	a1,a1,1
   19754:	00767693          	and	a3,a2,7
   19758:	00160613          	add	a2,a2,1
   1975c:	fe0696e3          	bnez	a3,19748 <.LBB0_2>

0000000000019760 <.LBB0_4>:
   19760:	0001b637          	lui	a2,0x1b
   19764:	87063683          	ld	a3,-1936(a2) # 1a870 <.LCPI0_0>
   19768:	0001b637          	lui	a2,0x1b
   1976c:	87863703          	ld	a4,-1928(a2) # 1a878 <.LCPI0_1>
   19770:	ff758613          	add	a2,a1,-9

0000000000019774 <.LBB0_5>:
   19774:	00963583          	ld	a1,9(a2)
   19778:	fff5c793          	not	a5,a1
   1977c:	00e585b3          	add	a1,a1,a4
   19780:	00d7f7b3          	and	a5,a5,a3
   19784:	00b7f5b3          	and	a1,a5,a1
   19788:	00860613          	add	a2,a2,8
   1978c:	fe0584e3          	beqz	a1,19774 <.LBB0_5>

0000000000019790 <.LBB0_6>:
   19790:	00164683          	lbu	a3,1(a2)
   19794:	00160593          	add	a1,a2,1
   19798:	00058613          	mv	a2,a1
   1979c:	fe069ae3          	bnez	a3,19790 <.LBB0_6>

00000000000197a0 <.LBB0_7>:
   197a0:	40a58533          	sub	a0,a1,a0
   197a4:	00008067          	ret

00000000000197a8 <__overflow>:
   197a8:	fe010113          	add	sp,sp,-32
   197ac:	00113c23          	sd	ra,24(sp)
   197b0:	00813823          	sd	s0,16(sp)
   197b4:	00913423          	sd	s1,8(sp)
   197b8:	00058493          	mv	s1,a1
   197bc:	00050413          	mv	s0,a0
   197c0:	00b103a3          	sb	a1,7(sp)
   197c4:	02053503          	ld	a0,32(a0)
   197c8:	04050263          	beqz	a0,1980c <.LBB0_5>

00000000000197cc <.LBB0_1>:
   197cc:	02843583          	ld	a1,40(s0)
   197d0:	00a58863          	beq	a1,a0,197e0 <.LBB0_3>
   197d4:	09042603          	lw	a2,144(s0)
   197d8:	0ff4f513          	zext.b	a0,s1
   197dc:	04a61663          	bne	a2,a0,19828 <.LBB0_7>

00000000000197e0 <.LBB0_3>:
   197e0:	04843683          	ld	a3,72(s0)
   197e4:	00710593          	add	a1,sp,7
   197e8:	00100613          	li	a2,1
   197ec:	00100493          	li	s1,1
   197f0:	00040513          	mv	a0,s0
   197f4:	000680e7          	jalr	a3
   197f8:	00050593          	mv	a1,a0
   197fc:	fff00513          	li	a0,-1
   19800:	02959a63          	bne	a1,s1,19834 <.LBB0_8>
   19804:	00714503          	lbu	a0,7(sp)
   19808:	02c0006f          	j	19834 <.LBB0_8>

000000000001980c <.LBB0_5>:
   1980c:	00040513          	mv	a0,s0
   19810:	ed8fb0ef          	jal	14ee8 <__towrite>
   19814:	00050593          	mv	a1,a0
   19818:	fff00513          	li	a0,-1
   1981c:	00059c63          	bnez	a1,19834 <.LBB0_8>
   19820:	02043503          	ld	a0,32(s0)
   19824:	fa9ff06f          	j	197cc <.LBB0_1>

0000000000019828 <.LBB0_7>:
   19828:	00158613          	add	a2,a1,1
   1982c:	02c43423          	sd	a2,40(s0)
   19830:	00958023          	sb	s1,0(a1)

0000000000019834 <.LBB0_8>:
   19834:	01813083          	ld	ra,24(sp)
   19838:	01013403          	ld	s0,16(sp)
   1983c:	00813483          	ld	s1,8(sp)
   19840:	02010113          	add	sp,sp,32
   19844:	00008067          	ret
