
test:     file format elf64-littleriscv


Disassembly of section .text:

0000000000010378 <abort>:
   10378:	eb010113          	addi	sp,sp,-336
   1037c:	13213823          	sd	s2,304(sp)
   10380:	67018793          	addi	a5,gp,1648 # 85730 <lock>
   10384:	0087b783          	ld	a5,8(a5)
   10388:	14813023          	sd	s0,320(sp)
   1038c:	12913c23          	sd	s1,312(sp)
   10390:	14113423          	sd	ra,328(sp)
   10394:	13313423          	sd	s3,296(sp)
   10398:	8f020493          	addi	s1,tp,-1808 # fffffffffffff8f0 <__BSS_END__+0xfffffffffff798e0>
   1039c:	67018413          	addi	s0,gp,1648 # 85730 <lock>
   103a0:	02978663          	beq	a5,s1,103cc <abort+0x54>
   103a4:	00100713          	li	a4,1
   103a8:	100427af          	lr.w	a5,(s0)
   103ac:	00079663          	bnez	a5,103b8 <abort+0x40>
   103b0:	1ce426af          	sc.w.aq	a3,a4,(s0)
   103b4:	fe069ae3          	bnez	a3,103a8 <abort+0x30>
   103b8:	0007879b          	sext.w	a5,a5
   103bc:	00078663          	beqz	a5,103c8 <abort+0x50>
   103c0:	67018513          	addi	a0,gp,1648 # 85730 <lock>
   103c4:	074150ef          	jal	ra,25438 <__lll_lock_wait_private>
   103c8:	00943423          	sd	s1,8(s0)
   103cc:	00442783          	lw	a5,4(s0)
   103d0:	a681a703          	lw	a4,-1432(gp) # 84b28 <stage>
   103d4:	0017879b          	addiw	a5,a5,1
   103d8:	00f42223          	sw	a5,4(s0)
   103dc:	02071a63          	bnez	a4,10410 <abort+0x98>
   103e0:	00100793          	li	a5,1
   103e4:	07800613          	li	a2,120
   103e8:	00000593          	li	a1,0
   103ec:	01010513          	addi	a0,sp,16
   103f0:	a6f1a423          	sw	a5,-1432(gp) # 84b28 <stage>
   103f4:	71c1c0ef          	jal	ra,2cb10 <memset>
   103f8:	02000793          	li	a5,32
   103fc:	00000613          	li	a2,0
   10400:	00810593          	addi	a1,sp,8
   10404:	00100513          	li	a0,1
   10408:	00f13423          	sd	a5,8(sp)
   1040c:	31c050ef          	jal	ra,15728 <__sigprocmask>
   10410:	a681a703          	lw	a4,-1432(gp) # 84b28 <stage>
   10414:	00100793          	li	a5,1
   10418:	08f71863          	bne	a4,a5,104a8 <abort+0x130>
   1041c:	00442783          	lw	a5,4(s0)
   10420:	a601a423          	sw	zero,-1432(gp) # 84b28 <stage>
   10424:	fff7869b          	addiw	a3,a5,-1
   10428:	00d42223          	sw	a3,4(s0)
   1042c:	00068793          	mv	a5,a3
   10430:	02069663          	bnez	a3,1045c <abort+0xe4>
   10434:	00043423          	sd	zero,8(s0)
   10438:	0f50000f          	fence	iorw,ow
   1043c:	08f427af          	amoswap.w	a5,a5,(s0)
   10440:	0007879b          	sext.w	a5,a5
   10444:	00f75c63          	bge	a4,a5,1045c <abort+0xe4>
   10448:	06200893          	li	a7,98
   1044c:	67018513          	addi	a0,gp,1648 # 85730 <lock>
   10450:	08100593          	li	a1,129
   10454:	00100613          	li	a2,1
   10458:	00000073          	ecall
   1045c:	00600513          	li	a0,6
   10460:	1e4050ef          	jal	ra,15644 <raise>
   10464:	00843783          	ld	a5,8(s0)
   10468:	8f020993          	addi	s3,tp,-1808 # fffffffffffff8f0 <__BSS_END__+0xfffffffffff798e0>
   1046c:	03378663          	beq	a5,s3,10498 <abort+0x120>
   10470:	00100713          	li	a4,1
   10474:	100427af          	lr.w	a5,(s0)
   10478:	00079663          	bnez	a5,10484 <abort+0x10c>
   1047c:	1ce426af          	sc.w.aq	a3,a4,(s0)
   10480:	fe069ae3          	bnez	a3,10474 <abort+0xfc>
   10484:	0007879b          	sext.w	a5,a5
   10488:	00078663          	beqz	a5,10494 <abort+0x11c>
   1048c:	67018513          	addi	a0,gp,1648 # 85730 <lock>
   10490:	7a9140ef          	jal	ra,25438 <__lll_lock_wait_private>
   10494:	01343423          	sd	s3,8(s0)
   10498:	00442783          	lw	a5,4(s0)
   1049c:	0017879b          	addiw	a5,a5,1
   104a0:	00f42223          	sw	a5,4(s0)
   104a4:	00c0006f          	j	104b0 <abort+0x138>
   104a8:	00200793          	li	a5,2
   104ac:	02f71e63          	bne	a4,a5,104e8 <abort+0x170>
   104b0:	00300793          	li	a5,3
   104b4:	09800613          	li	a2,152
   104b8:	00000593          	li	a1,0
   104bc:	08810513          	addi	a0,sp,136
   104c0:	a6f1a423          	sw	a5,-1432(gp) # 84b28 <stage>
   104c4:	64c1c0ef          	jal	ra,2cb10 <memset>
   104c8:	08000613          	li	a2,128
   104cc:	0ff00593          	li	a1,255
   104d0:	09010513          	addi	a0,sp,144
   104d4:	63c1c0ef          	jal	ra,2cb10 <memset>
   104d8:	00000613          	li	a2,0
   104dc:	08810593          	addi	a1,sp,136
   104e0:	00600513          	li	a0,6
   104e4:	5a82d0ef          	jal	ra,3da8c <__sigaction>
   104e8:	a681a703          	lw	a4,-1432(gp) # 84b28 <stage>
   104ec:	00300793          	li	a5,3
   104f0:	00f71a63          	bne	a4,a5,10504 <abort+0x18c>
   104f4:	00400793          	li	a5,4
   104f8:	00600513          	li	a0,6
   104fc:	a6f1a423          	sw	a5,-1432(gp) # 84b28 <stage>
   10500:	144050ef          	jal	ra,15644 <raise>
   10504:	a681a783          	lw	a5,-1432(gp) # 84b28 <stage>
   10508:	00400713          	li	a4,4
   1050c:	00e79863          	bne	a5,a4,1051c <abort+0x1a4>
   10510:	00500793          	li	a5,5
   10514:	a6f1a423          	sw	a5,-1432(gp) # 84b28 <stage>
   10518:	00100073          	ebreak
   1051c:	00500713          	li	a4,5
   10520:	00e79a63          	bne	a5,a4,10534 <abort+0x1bc>
   10524:	00600793          	li	a5,6
   10528:	07f00513          	li	a0,127
   1052c:	a6f1a423          	sw	a5,-1432(gp) # 84b28 <stage>
   10530:	4211d0ef          	jal	ra,2e150 <_exit>
   10534:	00100073          	ebreak

0000000000010538 <_dl_start>:
   10538:	ff010113          	addi	sp,sp,-16
   1053c:	00113423          	sd	ra,8(sp)
   10540:	e39ff0ef          	jal	ra,10378 <abort>

0000000000010544 <fini>:
   10544:	fe010113          	addi	sp,sp,-32
   10548:	00813823          	sd	s0,16(sp)
   1054c:	00086437          	lui	s0,0x86
   10550:	cf040413          	addi	s0,s0,-784 # 85cf0 <last_result>
   10554:	00913423          	sd	s1,8(sp)
   10558:	01843483          	ld	s1,24(s0)
   1055c:	00113c23          	sd	ra,24(sp)
   10560:	00048c63          	beqz	s1,10578 <fini+0x34>
   10564:	000785b7          	lui	a1,0x78
   10568:	cf858593          	addi	a1,a1,-776 # 77cf8 <_dl_out_of_memory>
   1056c:	00048513          	mv	a0,s1
   10570:	1a01b0ef          	jal	ra,2b710 <strcmp>
   10574:	00051c63          	bnez	a0,1058c <fini+0x48>
   10578:	01813083          	ld	ra,24(sp)
   1057c:	01013403          	ld	s0,16(sp)
   10580:	00813483          	ld	s1,8(sp)
   10584:	02010113          	addi	sp,sp,32
   10588:	00008067          	ret
   1058c:	00048513          	mv	a0,s1
   10590:	311190ef          	jal	ra,2a0a0 <__free>
   10594:	00043c23          	sd	zero,24(s0)
   10598:	fe1ff06f          	j	10578 <fini+0x34>

000000000001059c <_start>:
   1059c:	038000ef          	jal	ra,105d4 <load_gp>
   105a0:	00050793          	mv	a5,a0
   105a4:	00000517          	auipc	a0,0x0
   105a8:	11c50513          	addi	a0,a0,284 # 106c0 <main>
   105ac:	00013583          	ld	a1,0(sp)
   105b0:	00810613          	addi	a2,sp,8
   105b4:	ff017113          	andi	sp,sp,-16
   105b8:	00000697          	auipc	a3,0x0
   105bc:	7b468693          	addi	a3,a3,1972 # 10d6c <__libc_csu_init>
   105c0:	00001717          	auipc	a4,0x1
   105c4:	88470713          	addi	a4,a4,-1916 # 10e44 <__libc_csu_fini>
   105c8:	00010813          	mv	a6,sp
   105cc:	160000ef          	jal	ra,1072c <__libc_start_main>
   105d0:	00100073          	ebreak

00000000000105d4 <load_gp>:
   105d4:	00075197          	auipc	gp,0x75
   105d8:	aec18193          	addi	gp,gp,-1300 # 850c0 <__global_pointer$>
   105dc:	00008067          	ret

00000000000105e0 <deregister_tm_clones>:
   105e0:	00084537          	lui	a0,0x84
   105e4:	000847b7          	lui	a5,0x84
   105e8:	7f050713          	addi	a4,a0,2032 # 847f0 <__TMC_END__>
   105ec:	7f078793          	addi	a5,a5,2032 # 847f0 <__TMC_END__>
   105f0:	00e78a63          	beq	a5,a4,10604 <deregister_tm_clones+0x24>
   105f4:	00000793          	li	a5,0
   105f8:	00078663          	beqz	a5,10604 <deregister_tm_clones+0x24>
   105fc:	7f050513          	addi	a0,a0,2032
   10600:	00078067          	jr	a5
   10604:	00008067          	ret

0000000000010608 <register_tm_clones>:
   10608:	000847b7          	lui	a5,0x84
   1060c:	00084537          	lui	a0,0x84
   10610:	7f078593          	addi	a1,a5,2032 # 847f0 <__TMC_END__>
   10614:	7f050793          	addi	a5,a0,2032 # 847f0 <__TMC_END__>
   10618:	40f585b3          	sub	a1,a1,a5
   1061c:	4035d593          	srai	a1,a1,0x3
   10620:	00200793          	li	a5,2
   10624:	02f5c5b3          	div	a1,a1,a5
   10628:	00058a63          	beqz	a1,1063c <register_tm_clones+0x34>
   1062c:	00000793          	li	a5,0
   10630:	00078663          	beqz	a5,1063c <register_tm_clones+0x34>
   10634:	7f050513          	addi	a0,a0,2032
   10638:	00078067          	jr	a5
   1063c:	00008067          	ret

0000000000010640 <__do_global_dtors_aux>:
   10640:	d701c703          	lbu	a4,-656(gp) # 84e30 <completed.1>
   10644:	04071463          	bnez	a4,1068c <__do_global_dtors_aux+0x4c>
   10648:	ff010113          	addi	sp,sp,-16
   1064c:	00813023          	sd	s0,0(sp)
   10650:	00113423          	sd	ra,8(sp)
   10654:	00078413          	mv	s0,a5
   10658:	f89ff0ef          	jal	ra,105e0 <deregister_tm_clones>
   1065c:	000617b7          	lui	a5,0x61
   10660:	96c78793          	addi	a5,a5,-1684 # 6096c <__deregister_frame_info>
   10664:	00078863          	beqz	a5,10674 <__do_global_dtors_aux+0x34>
   10668:	0007e537          	lui	a0,0x7e
   1066c:	5c050513          	addi	a0,a0,1472 # 7e5c0 <__EH_FRAME_BEGIN__>
   10670:	2fc500ef          	jal	ra,6096c <__deregister_frame_info>
   10674:	00100793          	li	a5,1
   10678:	00813083          	ld	ra,8(sp)
   1067c:	d6f18823          	sb	a5,-656(gp) # 84e30 <completed.1>
   10680:	00013403          	ld	s0,0(sp)
   10684:	01010113          	addi	sp,sp,16
   10688:	00008067          	ret
   1068c:	00008067          	ret

0000000000010690 <frame_dummy>:
   10690:	000607b7          	lui	a5,0x60
   10694:	72078793          	addi	a5,a5,1824 # 60720 <__register_frame_info>
   10698:	02078263          	beqz	a5,106bc <frame_dummy+0x2c>
   1069c:	0007e537          	lui	a0,0x7e
   106a0:	ff010113          	addi	sp,sp,-16
   106a4:	d7818593          	addi	a1,gp,-648 # 84e38 <object.0>
   106a8:	5c050513          	addi	a0,a0,1472 # 7e5c0 <__EH_FRAME_BEGIN__>
   106ac:	00113423          	sd	ra,8(sp)
   106b0:	070500ef          	jal	ra,60720 <__register_frame_info>
   106b4:	00813083          	ld	ra,8(sp)
   106b8:	01010113          	addi	sp,sp,16
   106bc:	f4dff06f          	j	10608 <register_tm_clones>

00000000000106c0 <main>:
   106c0:	fe010113          	addi	sp,sp,-32
   106c4:	00113c23          	sd	ra,24(sp)
   106c8:	00813823          	sd	s0,16(sp)
   106cc:	02010413          	addi	s0,sp,32
   106d0:	fe042623          	sw	zero,-20(s0)
   106d4:	3e800793          	li	a5,1000
   106d8:	fef42623          	sw	a5,-20(s0)
   106dc:	fec42783          	lw	a5,-20(s0)
   106e0:	0027979b          	slliw	a5,a5,0x2
   106e4:	fef42423          	sw	a5,-24(s0)
   106e8:	fe842703          	lw	a4,-24(s0)
   106ec:	fec42783          	lw	a5,-20(s0)
   106f0:	00f707bb          	addw	a5,a4,a5
   106f4:	0007879b          	sext.w	a5,a5
   106f8:	00078593          	mv	a1,a5
   106fc:	000627b7          	lui	a5,0x62
   10700:	c5078513          	addi	a0,a5,-944 # 61c50 <free_mem+0x104>
   10704:	370060ef          	jal	ra,16a74 <_IO_printf>
   10708:	000627b7          	lui	a5,0x62
   1070c:	c5878513          	addi	a0,a5,-936 # 61c58 <free_mem+0x10c>
   10710:	6780d0ef          	jal	ra,1dd88 <_IO_puts>
   10714:	00000793          	li	a5,0
   10718:	00078513          	mv	a0,a5
   1071c:	01813083          	ld	ra,24(sp)
   10720:	01013403          	ld	s0,16(sp)
   10724:	02010113          	addi	sp,sp,32
   10728:	00008067          	ret

000000000001072c <__libc_start_main>:
   1072c:	f2010113          	addi	sp,sp,-224
   10730:	0c813823          	sd	s0,208(sp)
   10734:	0c913423          	sd	s1,200(sp)
   10738:	0d213023          	sd	s2,192(sp)
   1073c:	00c13823          	sd	a2,16(sp)
   10740:	0c113c23          	sd	ra,216(sp)
   10744:	00000313          	li	t1,0
   10748:	00a13c23          	sd	a0,24(sp)
   1074c:	00b13423          	sd	a1,8(sp)
   10750:	00068413          	mv	s0,a3
   10754:	00070493          	mv	s1,a4
   10758:	00078913          	mv	s2,a5
   1075c:	00000613          	li	a2,0
   10760:	00030663          	beqz	t1,1076c <__libc_start_main+0x40>
   10764:	00002603          	lw	a2,0(zero) # 0 <_nl_current_LC_CTYPE>
   10768:	00163613          	seqz	a2,a2
   1076c:	00813783          	ld	a5,8(sp)
   10770:	00178513          	addi	a0,a5,1
   10774:	01013783          	ld	a5,16(sp)
   10778:	00351513          	slli	a0,a0,0x3
   1077c:	00a78533          	add	a0,a5,a0
   10780:	94c1a823          	sw	a2,-1712(gp) # 84a10 <__libc_multiple_libcs>
   10784:	b0a1bc23          	sd	a0,-1256(gp) # 84bd8 <__environ>
   10788:	000837b7          	lui	a5,0x83
   1078c:	fb07b823          	sd	a6,-80(a5) # 82fb0 <__libc_stack_end>
   10790:	00053603          	ld	a2,0(a0)
   10794:	00850513          	addi	a0,a0,8
   10798:	fe061ce3          	bnez	a2,10790 <__libc_start_main+0x64>
   1079c:	131200ef          	jal	ra,310cc <_dl_aux_init>
   107a0:	b701b703          	ld	a4,-1168(gp) # 84c30 <_dl_phdr>
   107a4:	18070663          	beqz	a4,10930 <__libc_start_main+0x204>
   107a8:	670210ef          	jal	ra,31e18 <__libc_init_secure>
   107ac:	b181b503          	ld	a0,-1256(gp) # 84bd8 <__environ>
   107b0:	354200ef          	jal	ra,30b04 <__tunables_init>
   107b4:	34c000ef          	jal	ra,10b00 <__libc_setup_tls>
   107b8:	000837b7          	lui	a5,0x83
   107bc:	f807b603          	ld	a2,-128(a5) # 82f80 <_dl_random>
   107c0:	9501a883          	lw	a7,-1712(gp) # 84a10 <__libc_multiple_libcs>
   107c4:	00164783          	lbu	a5,1(a2)
   107c8:	00064703          	lbu	a4,0(a2)
   107cc:	00264803          	lbu	a6,2(a2)
   107d0:	00364503          	lbu	a0,3(a2)
   107d4:	00464583          	lbu	a1,4(a2)
   107d8:	00879793          	slli	a5,a5,0x8
   107dc:	00564683          	lbu	a3,5(a2)
   107e0:	00e7e7b3          	or	a5,a5,a4
   107e4:	01081813          	slli	a6,a6,0x10
   107e8:	00664703          	lbu	a4,6(a2)
   107ec:	00f86833          	or	a6,a6,a5
   107f0:	01851513          	slli	a0,a0,0x18
   107f4:	00764783          	lbu	a5,7(a2)
   107f8:	01056533          	or	a0,a0,a6
   107fc:	02059613          	slli	a2,a1,0x20
   10800:	00a66633          	or	a2,a2,a0
   10804:	02869693          	slli	a3,a3,0x28
   10808:	00c6e6b3          	or	a3,a3,a2
   1080c:	03071713          	slli	a4,a4,0x30
   10810:	00d76733          	or	a4,a4,a3
   10814:	03879793          	slli	a5,a5,0x38
   10818:	00e7e7b3          	or	a5,a5,a4
   1081c:	f007f793          	andi	a5,a5,-256
   10820:	00083737          	lui	a4,0x83
   10824:	b0f73823          	sd	a5,-1264(a4) # 82b10 <__stack_chk_guard>
   10828:	14088a63          	beqz	a7,1097c <__libc_start_main+0x250>
   1082c:	00000793          	li	a5,0
   10830:	00078663          	beqz	a5,1083c <__libc_start_main+0x110>
   10834:	00000097          	auipc	ra,0x0
   10838:	000000e7          	jalr	zero # 0 <_nl_current_LC_CTYPE>
   1083c:	000837b7          	lui	a5,0x83
   10840:	f807b783          	ld	a5,-128(a5) # 82f80 <_dl_random>
   10844:	00e7c703          	lbu	a4,14(a5)
   10848:	0087c883          	lbu	a7,8(a5)
   1084c:	0097c803          	lbu	a6,9(a5)
   10850:	00a7c503          	lbu	a0,10(a5)
   10854:	00b7c583          	lbu	a1,11(a5)
   10858:	00c7c603          	lbu	a2,12(a5)
   1085c:	00d7c683          	lbu	a3,13(a5)
   10860:	00f7c783          	lbu	a5,15(a5)
   10864:	03110423          	sb	a7,40(sp)
   10868:	030104a3          	sb	a6,41(sp)
   1086c:	02f107a3          	sb	a5,47(sp)
   10870:	02a10523          	sb	a0,42(sp)
   10874:	02b105a3          	sb	a1,43(sp)
   10878:	02c10623          	sb	a2,44(sp)
   1087c:	02d106a3          	sb	a3,45(sp)
   10880:	02e10723          	sb	a4,46(sp)
   10884:	02813703          	ld	a4,40(sp)
   10888:	000837b7          	lui	a5,0x83
   1088c:	b0e7bc23          	sd	a4,-1256(a5) # 82b18 <__pointer_chk_guard_local>
   10890:	00090a63          	beqz	s2,108a4 <__libc_start_main+0x178>
   10894:	00000613          	li	a2,0
   10898:	00000593          	li	a1,0
   1089c:	00090513          	mv	a0,s2
   108a0:	345050ef          	jal	ra,163e4 <__cxa_atexit>
   108a4:	b181b603          	ld	a2,-1256(gp) # 84bd8 <__environ>
   108a8:	01013583          	ld	a1,16(sp)
   108ac:	00813503          	ld	a0,8(sp)
   108b0:	758210ef          	jal	ra,32008 <__libc_init_first>
   108b4:	00048a63          	beqz	s1,108c8 <__libc_start_main+0x19c>
   108b8:	00000613          	li	a2,0
   108bc:	00000593          	li	a1,0
   108c0:	00048513          	mv	a0,s1
   108c4:	321050ef          	jal	ra,163e4 <__cxa_atexit>
   108c8:	000837b7          	lui	a5,0x83
   108cc:	fb87a783          	lw	a5,-72(a5) # 82fb8 <__libc_enable_secure>
   108d0:	10079c63          	bnez	a5,109e8 <__libc_start_main+0x2bc>
   108d4:	00040a63          	beqz	s0,108e8 <__libc_start_main+0x1bc>
   108d8:	b181b603          	ld	a2,-1256(gp) # 84bd8 <__environ>
   108dc:	01013583          	ld	a1,16(sp)
   108e0:	00813503          	ld	a0,8(sp)
   108e4:	000400e7          	jalr	s0
   108e8:	00000593          	li	a1,0
   108ec:	00000513          	li	a0,0
   108f0:	07c200ef          	jal	ra,3096c <_dl_debug_initialize>
   108f4:	02810513          	addi	a0,sp,40
   108f8:	4ad040ef          	jal	ra,155a4 <_setjmp>
   108fc:	0a051a63          	bnez	a0,109b0 <__libc_start_main+0x284>
   10900:	9f023683          	ld	a3,-1552(tp) # fffffffffffff9f0 <__BSS_END__+0xfffffffffff799e0>
   10904:	9e823703          	ld	a4,-1560(tp) # fffffffffffff9e8 <__BSS_END__+0xfffffffffff799d8>
   10908:	b181b603          	ld	a2,-1256(gp) # 84bd8 <__environ>
   1090c:	01013583          	ld	a1,16(sp)
   10910:	00813503          	ld	a0,8(sp)
   10914:	01813783          	ld	a5,24(sp)
   10918:	0ae13423          	sd	a4,168(sp)
   1091c:	0ad13023          	sd	a3,160(sp)
   10920:	02810713          	addi	a4,sp,40
   10924:	9ee23823          	sd	a4,-1552(tp) # fffffffffffff9f0 <__BSS_END__+0xfffffffffff799e0>
   10928:	000780e7          	jalr	a5
   1092c:	069050ef          	jal	ra,16194 <exit>
   10930:	00000713          	li	a4,0
   10934:	e6070ae3          	beqz	a4,107a8 <__libc_start_main+0x7c>
   10938:	03675683          	lhu	a3,54(a4)
   1093c:	03800613          	li	a2,56
   10940:	02c68263          	beq	a3,a2,10964 <__libc_start_main+0x238>
   10944:	000626b7          	lui	a3,0x62
   10948:	000625b7          	lui	a1,0x62
   1094c:	00062537          	lui	a0,0x62
   10950:	ce868693          	addi	a3,a3,-792 # 61ce8 <__PRETTY_FUNCTION__.0>
   10954:	0b400613          	li	a2,180
   10958:	c6858593          	addi	a1,a1,-920 # 61c68 <free_mem+0x11c>
   1095c:	c7850513          	addi	a0,a0,-904 # 61c78 <free_mem+0x12c>
   10960:	698000ef          	jal	ra,10ff8 <__assert_fail>
   10964:	02073683          	ld	a3,32(a4)
   10968:	03875603          	lhu	a2,56(a4)
   1096c:	00e68733          	add	a4,a3,a4
   10970:	b6e1b823          	sd	a4,-1168(gp) # 84c30 <_dl_phdr>
   10974:	b6c1b423          	sd	a2,-1176(gp) # 84c28 <_dl_phnum>
   10978:	e31ff06f          	j	107a8 <__libc_start_main+0x7c>
   1097c:	54c210ef          	jal	ra,31ec8 <_dl_discover_osversion>
   10980:	00050793          	mv	a5,a0
   10984:	06054a63          	bltz	a0,109f8 <__libc_start_main+0x2cc>
   10988:	b981a683          	lw	a3,-1128(gp) # 84c58 <_dl_osversion>
   1098c:	0005071b          	sext.w	a4,a0
   10990:	06069063          	bnez	a3,109f0 <__libc_start_main+0x2c4>
   10994:	b8e1ac23          	sw	a4,-1128(gp) # 84c58 <_dl_osversion>
   10998:	00050737          	lui	a4,0x50
   1099c:	3ff70713          	addi	a4,a4,1023 # 503ff <elf_machine_matches_host+0x17>
   109a0:	e8f746e3          	blt	a4,a5,1082c <__libc_start_main+0x100>
   109a4:	00062537          	lui	a0,0x62
   109a8:	ca850513          	addi	a0,a0,-856 # 61ca8 <free_mem+0x15c>
   109ac:	64c0f0ef          	jal	ra,1fff8 <__libc_fatal>
   109b0:	00000097          	auipc	ra,0x0
   109b4:	000000e7          	jalr	zero # 0 <_nl_current_LC_CTYPE>
   109b8:	fff00693          	li	a3,-1
   109bc:	00000713          	li	a4,0
   109c0:	04d727af          	amoadd.w.aq	a5,a3,(a4)
   109c4:	0007879b          	sext.w	a5,a5
   109c8:	00100713          	li	a4,1
   109cc:	00e78a63          	beq	a5,a4,109e0 <__libc_start_main+0x2b4>
   109d0:	05d00893          	li	a7,93
   109d4:	00000513          	li	a0,0
   109d8:	00000073          	ecall
   109dc:	ff5ff06f          	j	109d0 <__libc_start_main+0x2a4>
   109e0:	00000513          	li	a0,0
   109e4:	f49ff06f          	j	1092c <__libc_start_main+0x200>
   109e8:	0e0000ef          	jal	ra,10ac8 <__libc_check_standard_fds>
   109ec:	ee9ff06f          	j	108d4 <__libc_start_main+0x1a8>
   109f0:	fad774e3          	bgeu	a4,a3,10998 <__libc_start_main+0x26c>
   109f4:	fa1ff06f          	j	10994 <__libc_start_main+0x268>
   109f8:	00062537          	lui	a0,0x62
   109fc:	cc050513          	addi	a0,a0,-832 # 61cc0 <free_mem+0x174>
   10a00:	5f80f0ef          	jal	ra,1fff8 <__libc_fatal>

0000000000010a04 <check_one_fd>:
   10a04:	f6010113          	addi	sp,sp,-160
   10a08:	08813823          	sd	s0,144(sp)
   10a0c:	00058413          	mv	s0,a1
   10a10:	00100593          	li	a1,1
   10a14:	08913423          	sd	s1,136(sp)
   10a18:	08113c23          	sd	ra,152(sp)
   10a1c:	09213023          	sd	s2,128(sp)
   10a20:	00050493          	mv	s1,a0
   10a24:	4a01e0ef          	jal	ra,2eec4 <__fcntl64_nocancel>
   10a28:	fff00793          	li	a5,-1
   10a2c:	00f50e63          	beq	a0,a5,10a48 <check_one_fd+0x44>
   10a30:	09813083          	ld	ra,152(sp)
   10a34:	09013403          	ld	s0,144(sp)
   10a38:	08813483          	ld	s1,136(sp)
   10a3c:	08013903          	ld	s2,128(sp)
   10a40:	0a010113          	addi	sp,sp,160
   10a44:	00008067          	ret
   10a48:	00074797          	auipc	a5,0x74
   10a4c:	e187b783          	ld	a5,-488(a5) # 84860 <_GLOBAL_OFFSET_TABLE_+0x60>
   10a50:	00900713          	li	a4,9
   10a54:	004787b3          	add	a5,a5,tp
   10a58:	0007a783          	lw	a5,0(a5)
   10a5c:	fce79ae3          	bne	a5,a4,10a30 <check_one_fd+0x2c>
   10a60:	000207b7          	lui	a5,0x20
   10a64:	04f41a63          	bne	s0,a5,10ab8 <check_one_fd+0xb4>
   10a68:	00062537          	lui	a0,0x62
   10a6c:	10300913          	li	s2,259
   10a70:	d1050513          	addi	a0,a0,-752 # 61d10 <__PRETTY_FUNCTION__.0+0x28>
   10a74:	00000613          	li	a2,0
   10a78:	00040593          	mv	a1,s0
   10a7c:	5901e0ef          	jal	ra,2f00c <__open64_nocancel>
   10a80:	02a49a63          	bne	s1,a0,10ab4 <check_one_fd+0xb0>
   10a84:	00010613          	mv	a2,sp
   10a88:	00048593          	mv	a1,s1
   10a8c:	00000513          	li	a0,0
   10a90:	2e51d0ef          	jal	ra,2e574 <__fxstat>
   10a94:	02051063          	bnez	a0,10ab4 <check_one_fd+0xb0>
   10a98:	01012783          	lw	a5,16(sp)
   10a9c:	0000f6b7          	lui	a3,0xf
   10aa0:	00002737          	lui	a4,0x2
   10aa4:	00d7f7b3          	and	a5,a5,a3
   10aa8:	00e79663          	bne	a5,a4,10ab4 <check_one_fd+0xb0>
   10aac:	02013783          	ld	a5,32(sp)
   10ab0:	f92780e3          	beq	a5,s2,10a30 <check_one_fd+0x2c>
   10ab4:	00100073          	ebreak
   10ab8:	00062537          	lui	a0,0x62
   10abc:	10700913          	li	s2,263
   10ac0:	d0050513          	addi	a0,a0,-768 # 61d00 <__PRETTY_FUNCTION__.0+0x18>
   10ac4:	fb1ff06f          	j	10a74 <check_one_fd+0x70>

0000000000010ac8 <__libc_check_standard_fds>:
   10ac8:	000205b7          	lui	a1,0x20
   10acc:	ff010113          	addi	sp,sp,-16
   10ad0:	00158593          	addi	a1,a1,1 # 20001 <__libc_fatal+0x9>
   10ad4:	00000513          	li	a0,0
   10ad8:	00113423          	sd	ra,8(sp)
   10adc:	f29ff0ef          	jal	ra,10a04 <check_one_fd>
   10ae0:	000205b7          	lui	a1,0x20
   10ae4:	00100513          	li	a0,1
   10ae8:	f1dff0ef          	jal	ra,10a04 <check_one_fd>
   10aec:	00813083          	ld	ra,8(sp)
   10af0:	000205b7          	lui	a1,0x20
   10af4:	00200513          	li	a0,2
   10af8:	01010113          	addi	sp,sp,16
   10afc:	f09ff06f          	j	10a04 <check_one_fd>

0000000000010b00 <__libc_setup_tls>:
   10b00:	f8010113          	addi	sp,sp,-128
   10b04:	06813823          	sd	s0,112(sp)
   10b08:	b701b403          	ld	s0,-1168(gp) # 84c30 <_dl_phdr>
   10b0c:	05413823          	sd	s4,80(sp)
   10b10:	000847b7          	lui	a5,0x84
   10b14:	06113c23          	sd	ra,120(sp)
   10b18:	06913423          	sd	s1,104(sp)
   10b1c:	07213023          	sd	s2,96(sp)
   10b20:	05313c23          	sd	s3,88(sp)
   10b24:	05513423          	sd	s5,72(sp)
   10b28:	05613023          	sd	s6,64(sp)
   10b2c:	03713c23          	sd	s7,56(sp)
   10b30:	03813823          	sd	s8,48(sp)
   10b34:	03913423          	sd	s9,40(sp)
   10b38:	03a13023          	sd	s10,32(sp)
   10b3c:	01b13c23          	sd	s11,24(sp)
   10b40:	3307ba03          	ld	s4,816(a5) # 84330 <_dl_ns>
   10b44:	1c040663          	beqz	s0,10d10 <__libc_setup_tls+0x210>
   10b48:	b681b783          	ld	a5,-1176(gp) # 84c28 <_dl_phnum>
   10b4c:	00379713          	slli	a4,a5,0x3
   10b50:	40f70733          	sub	a4,a4,a5
   10b54:	00371713          	slli	a4,a4,0x3
   10b58:	00e40733          	add	a4,s0,a4
   10b5c:	18e47263          	bgeu	s0,a4,10ce0 <__libc_setup_tls+0x1e0>
   10b60:	00700693          	li	a3,7
   10b64:	00c0006f          	j	10b70 <__libc_setup_tls+0x70>
   10b68:	03840413          	addi	s0,s0,56
   10b6c:	16e47a63          	bgeu	s0,a4,10ce0 <__libc_setup_tls+0x1e0>
   10b70:	00042783          	lw	a5,0(s0)
   10b74:	fed79ae3          	bne	a5,a3,10b68 <__libc_setup_tls+0x68>
   10b78:	03043b03          	ld	s6,48(s0)
   10b7c:	000a3783          	ld	a5,0(s4)
   10b80:	01043583          	ld	a1,16(s0)
   10b84:	01000713          	li	a4,16
   10b88:	02843d83          	ld	s11,40(s0)
   10b8c:	02043a83          	ld	s5,32(s0)
   10b90:	000b0c93          	mv	s9,s6
   10b94:	00b78433          	add	s0,a5,a1
   10b98:	12eb6a63          	bltu	s6,a4,10ccc <__libc_setup_tls+0x1cc>
   10b9c:	fffc8713          	addi	a4,s9,-1
   10ba0:	000b0d13          	mv	s10,s6
   10ba4:	120b0063          	beqz	s6,10cc4 <__libc_setup_tls+0x1c4>
   10ba8:	419004b3          	neg	s1,s9
   10bac:	180b0863          	beqz	s6,10d3c <__libc_setup_tls+0x23c>
   10bb0:	fffb0993          	addi	s3,s6,-1
   10bb4:	03a9d7b3          	divu	a5,s3,s10
   10bb8:	013d89b3          	add	s3,s11,s3
   10bbc:	03a78bb3          	mul	s7,a5,s10
   10bc0:	000b8793          	mv	a5,s7
   10bc4:	8581b503          	ld	a0,-1960(gp) # 84918 <_dl_tls_static_size>
   10bc8:	00f13423          	sd	a5,8(sp)
   10bcc:	00e13023          	sd	a4,0(sp)
   10bd0:	71050513          	addi	a0,a0,1808
   10bd4:	01b50533          	add	a0,a0,s11
   10bd8:	01950533          	add	a0,a0,s9
   10bdc:	01750533          	add	a0,a0,s7
   10be0:	60c1e0ef          	jal	ra,2f1ec <__sbrk>
   10be4:	03a9d9b3          	divu	s3,s3,s10
   10be8:	00013703          	ld	a4,0(sp)
   10bec:	00813783          	ld	a5,8(sp)
   10bf0:	71050913          	addi	s2,a0,1808
   10bf4:	00e90933          	add	s2,s2,a4
   10bf8:	00997933          	and	s2,s2,s1
   10bfc:	da818493          	addi	s1,gp,-600 # 84e68 <_dl_static_dtv>
   10c00:	01790533          	add	a0,s2,s7
   10c04:	44fa3023          	sd	a5,1088(s4)
   10c08:	03e00793          	li	a5,62
   10c0c:	000a8613          	mv	a2,s5
   10c10:	00f4b023          	sd	a5,0(s1)
   10c14:	00040593          	mv	a1,s0
   10c18:	02a4b023          	sd	a0,32(s1)
   10c1c:	0204b423          	sd	zero,40(s1)
   10c20:	0741c0ef          	jal	ra,2cc94 <memcpy>
   10c24:	01048793          	addi	a5,s1,16
   10c28:	8581b703          	ld	a4,-1960(gp) # 84918 <_dl_tls_static_size>
   10c2c:	04000693          	li	a3,64
   10c30:	fef93823          	sd	a5,-16(s2)
   10c34:	40d4b023          	sd	a3,1024(s1)
   10c38:	00100793          	li	a5,1
   10c3c:	9ef1b023          	sd	a5,-1568(gp) # 84aa0 <_dl_tls_max_dtv_idx>
   10c40:	40048613          	addi	a2,s1,1024
   10c44:	9cc1b823          	sd	a2,-1584(gp) # 84a90 <_dl_tls_dtv_slotinfo_list>
   10c48:	9b91bc23          	sd	s9,-1608(gp) # 84a78 <_dl_tls_static_align>
   10c4c:	44fa3423          	sd	a5,1096(s4)
   10c50:	9cf1b423          	sd	a5,-1592(gp) # 84a88 <_dl_tls_static_nelem>
   10c54:	00f70713          	addi	a4,a4,15 # 200f <catch_hook+0x1fb7>
   10c58:	408a3c23          	sd	s0,1048(s4)
   10c5c:	07813083          	ld	ra,120(sp)
   10c60:	07013403          	ld	s0,112(sp)
   10c64:	436a3823          	sd	s6,1072(s4)
   10c68:	43ba3423          	sd	s11,1064(s4)
   10c6c:	435a3023          	sd	s5,1056(s4)
   10c70:	4344b423          	sd	s4,1064(s1)
   10c74:	04813a83          	ld	s5,72(sp)
   10c78:	06813483          	ld	s1,104(sp)
   10c7c:	05013a03          	ld	s4,80(sp)
   10c80:	04013b03          	ld	s6,64(sp)
   10c84:	02813c83          	ld	s9,40(sp)
   10c88:	01813d83          	ld	s11,24(sp)
   10c8c:	00090213          	mv	tp,s2
   10c90:	06013903          	ld	s2,96(sp)
   10c94:	03a989b3          	mul	s3,s3,s10
   10c98:	02013d03          	ld	s10,32(sp)
   10c9c:	017987b3          	add	a5,s3,s7
   10ca0:	00f70733          	add	a4,a4,a5
   10ca4:	ff077713          	andi	a4,a4,-16
   10ca8:	84e1bc23          	sd	a4,-1960(gp) # 84918 <_dl_tls_static_size>
   10cac:	9cf1b023          	sd	a5,-1600(gp) # 84a80 <_dl_tls_static_used>
   10cb0:	05813983          	ld	s3,88(sp)
   10cb4:	03813b83          	ld	s7,56(sp)
   10cb8:	03013c03          	ld	s8,48(sp)
   10cbc:	08010113          	addi	sp,sp,128
   10cc0:	00008067          	ret
   10cc4:	00100d13          	li	s10,1
   10cc8:	ee1ff06f          	j	10ba8 <__libc_setup_tls+0xa8>
   10ccc:	01000c93          	li	s9,16
   10cd0:	fffc8713          	addi	a4,s9,-1
   10cd4:	000b0d13          	mv	s10,s6
   10cd8:	ec0b18e3          	bnez	s6,10ba8 <__libc_setup_tls+0xa8>
   10cdc:	fe9ff06f          	j	10cc4 <__libc_setup_tls+0x1c4>
   10ce0:	00100d13          	li	s10,1
   10ce4:	00000b93          	li	s7,0
   10ce8:	00000993          	li	s3,0
   10cec:	00000793          	li	a5,0
   10cf0:	ff000493          	li	s1,-16
   10cf4:	00f00713          	li	a4,15
   10cf8:	01000c93          	li	s9,16
   10cfc:	00000b13          	li	s6,0
   10d00:	00000413          	li	s0,0
   10d04:	00000a93          	li	s5,0
   10d08:	00000d93          	li	s11,0
   10d0c:	eb9ff06f          	j	10bc4 <__libc_setup_tls+0xc4>
   10d10:	00100d13          	li	s10,1
   10d14:	00000b93          	li	s7,0
   10d18:	00000993          	li	s3,0
   10d1c:	00000793          	li	a5,0
   10d20:	ff000493          	li	s1,-16
   10d24:	00f00713          	li	a4,15
   10d28:	01000c93          	li	s9,16
   10d2c:	00000b13          	li	s6,0
   10d30:	00000a93          	li	s5,0
   10d34:	00000d93          	li	s11,0
   10d38:	e8dff06f          	j	10bc4 <__libc_setup_tls+0xc4>
   10d3c:	00000b93          	li	s7,0
   10d40:	000d8993          	mv	s3,s11
   10d44:	00000793          	li	a5,0
   10d48:	e7dff06f          	j	10bc4 <__libc_setup_tls+0xc4>

0000000000010d4c <__tls_get_addr>:
   10d4c:	ff023703          	ld	a4,-16(tp) # fffffffffffffff0 <__BSS_END__+0xfffffffffff79fe0>
   10d50:	00853783          	ld	a5,8(a0)
   10d54:	01073503          	ld	a0,16(a4)
   10d58:	00001737          	lui	a4,0x1
   10d5c:	80070713          	addi	a4,a4,-2048 # 800 <catch_hook+0x7a8>
   10d60:	00e787b3          	add	a5,a5,a4
   10d64:	00f50533          	add	a0,a0,a5
   10d68:	00008067          	ret

0000000000010d6c <__libc_csu_init>:
   10d6c:	fc010113          	addi	sp,sp,-64
   10d70:	02813823          	sd	s0,48(sp)
   10d74:	01513423          	sd	s5,8(sp)
   10d78:	00083437          	lui	s0,0x83
   10d7c:	00083ab7          	lui	s5,0x83
   10d80:	af040793          	addi	a5,s0,-1296 # 82af0 <__preinit_array_start>
   10d84:	af8a8a93          	addi	s5,s5,-1288 # 82af8 <__frame_dummy_init_array_entry>
   10d88:	40fa8ab3          	sub	s5,s5,a5
   10d8c:	03213023          	sd	s2,32(sp)
   10d90:	01313c23          	sd	s3,24(sp)
   10d94:	01413823          	sd	s4,16(sp)
   10d98:	02113c23          	sd	ra,56(sp)
   10d9c:	02913423          	sd	s1,40(sp)
   10da0:	403ada93          	srai	s5,s5,0x3
   10da4:	00050913          	mv	s2,a0
   10da8:	00058993          	mv	s3,a1
   10dac:	00060a13          	mv	s4,a2
   10db0:	020a8663          	beqz	s5,10ddc <__libc_csu_init+0x70>
   10db4:	af040413          	addi	s0,s0,-1296
   10db8:	00000493          	li	s1,0
   10dbc:	00043783          	ld	a5,0(s0)
   10dc0:	000a0613          	mv	a2,s4
   10dc4:	00098593          	mv	a1,s3
   10dc8:	00090513          	mv	a0,s2
   10dcc:	00148493          	addi	s1,s1,1
   10dd0:	000780e7          	jalr	a5
   10dd4:	00840413          	addi	s0,s0,8
   10dd8:	fe9a92e3          	bne	s5,s1,10dbc <__libc_csu_init+0x50>
   10ddc:	00083437          	lui	s0,0x83
   10de0:	00083ab7          	lui	s5,0x83
   10de4:	af840793          	addi	a5,s0,-1288 # 82af8 <__frame_dummy_init_array_entry>
   10de8:	b00a8a93          	addi	s5,s5,-1280 # 82b00 <__do_global_dtors_aux_fini_array_entry>
   10dec:	40fa8ab3          	sub	s5,s5,a5
   10df0:	403ada93          	srai	s5,s5,0x3
   10df4:	020a8663          	beqz	s5,10e20 <__libc_csu_init+0xb4>
   10df8:	af840413          	addi	s0,s0,-1288
   10dfc:	00000493          	li	s1,0
   10e00:	00043783          	ld	a5,0(s0)
   10e04:	000a0613          	mv	a2,s4
   10e08:	00098593          	mv	a1,s3
   10e0c:	00090513          	mv	a0,s2
   10e10:	00148493          	addi	s1,s1,1
   10e14:	000780e7          	jalr	a5
   10e18:	00840413          	addi	s0,s0,8
   10e1c:	fe9a92e3          	bne	s5,s1,10e00 <__libc_csu_init+0x94>
   10e20:	03813083          	ld	ra,56(sp)
   10e24:	03013403          	ld	s0,48(sp)
   10e28:	02813483          	ld	s1,40(sp)
   10e2c:	02013903          	ld	s2,32(sp)
   10e30:	01813983          	ld	s3,24(sp)
   10e34:	01013a03          	ld	s4,16(sp)
   10e38:	00813a83          	ld	s5,8(sp)
   10e3c:	04010113          	addi	sp,sp,64
   10e40:	00008067          	ret

0000000000010e44 <__libc_csu_fini>:
   10e44:	fe010113          	addi	sp,sp,-32
   10e48:	00813823          	sd	s0,16(sp)
   10e4c:	000837b7          	lui	a5,0x83
   10e50:	00083437          	lui	s0,0x83
   10e54:	b0040413          	addi	s0,s0,-1280 # 82b00 <__do_global_dtors_aux_fini_array_entry>
   10e58:	b1078793          	addi	a5,a5,-1264 # 82b10 <__stack_chk_guard>
   10e5c:	408787b3          	sub	a5,a5,s0
   10e60:	00913423          	sd	s1,8(sp)
   10e64:	00113c23          	sd	ra,24(sp)
   10e68:	4037d493          	srai	s1,a5,0x3
   10e6c:	02048063          	beqz	s1,10e8c <__libc_csu_fini+0x48>
   10e70:	ff878793          	addi	a5,a5,-8
   10e74:	00878433          	add	s0,a5,s0
   10e78:	00043783          	ld	a5,0(s0)
   10e7c:	fff48493          	addi	s1,s1,-1
   10e80:	ff840413          	addi	s0,s0,-8
   10e84:	000780e7          	jalr	a5
   10e88:	fe0498e3          	bnez	s1,10e78 <__libc_csu_fini+0x34>
   10e8c:	01813083          	ld	ra,24(sp)
   10e90:	01013403          	ld	s0,16(sp)
   10e94:	00813483          	ld	s1,8(sp)
   10e98:	02010113          	addi	sp,sp,32
   10e9c:	00008067          	ret

0000000000010ea0 <__assert_fail_base>:
   10ea0:	fb010113          	addi	sp,sp,-80
   10ea4:	04813023          	sd	s0,64(sp)
   10ea8:	02913c23          	sd	s1,56(sp)
   10eac:	03213823          	sd	s2,48(sp)
   10eb0:	03313423          	sd	s3,40(sp)
   10eb4:	03413023          	sd	s4,32(sp)
   10eb8:	04113423          	sd	ra,72(sp)
   10ebc:	00000793          	li	a5,0
   10ec0:	00050493          	mv	s1,a0
   10ec4:	00058a13          	mv	s4,a1
   10ec8:	00060913          	mv	s2,a2
   10ecc:	00068993          	mv	s3,a3
   10ed0:	00070413          	mv	s0,a4
   10ed4:	00078a63          	beqz	a5,10ee8 <__assert_fail_base+0x48>
   10ed8:	00000593          	li	a1,0
   10edc:	00100513          	li	a0,1
   10ee0:	00000097          	auipc	ra,0x0
   10ee4:	000000e7          	jalr	zero # 0 <_nl_current_LC_CTYPE>
   10ee8:	8f01b603          	ld	a2,-1808(gp) # 849b0 <__progname>
   10eec:	00064783          	lbu	a5,0(a2)
   10ef0:	0c079a63          	bnez	a5,10fc4 <__assert_fail_base+0x124>
   10ef4:	00077537          	lui	a0,0x77
   10ef8:	23850693          	addi	a3,a0,568 # 77238 <expected2.3+0x8>
   10efc:	0c040a63          	beqz	s0,10fd0 <__assert_fail_base+0x130>
   10f00:	000628b7          	lui	a7,0x62
   10f04:	d2088893          	addi	a7,a7,-736 # 61d20 <__PRETTY_FUNCTION__.0+0x38>
   10f08:	01410793          	addi	a5,sp,20
   10f0c:	00f13423          	sd	a5,8(sp)
   10f10:	01413023          	sd	s4,0(sp)
   10f14:	00040813          	mv	a6,s0
   10f18:	00098793          	mv	a5,s3
   10f1c:	00090713          	mv	a4,s2
   10f20:	00048593          	mv	a1,s1
   10f24:	01810513          	addi	a0,sp,24
   10f28:	39d050ef          	jal	ra,16ac4 <___asprintf>
   10f2c:	0a054a63          	bltz	a0,10fe0 <__assert_fail_base+0x140>
   10f30:	01813603          	ld	a2,24(sp)
   10f34:	0007d5b7          	lui	a1,0x7d
   10f38:	11858593          	addi	a1,a1,280 # 7d118 <_itowa_lower_digits+0xa0>
   10f3c:	00000513          	li	a0,0
   10f40:	5dc0c0ef          	jal	ra,1d51c <__fxprintf>
   10f44:	8981b503          	ld	a0,-1896(gp) # 84958 <stderr>
   10f48:	1ed0c0ef          	jal	ra,1d934 <_IO_fflush>
   10f4c:	9181a703          	lw	a4,-1768(gp) # 849d8 <_dl_pagesize>
   10f50:	01412583          	lw	a1,20(sp)
   10f54:	00000793          	li	a5,0
   10f58:	40e006bb          	negw	a3,a4
   10f5c:	00e585bb          	addw	a1,a1,a4
   10f60:	00d5f5b3          	and	a1,a1,a3
   10f64:	0005859b          	sext.w	a1,a1
   10f68:	fff00713          	li	a4,-1
   10f6c:	02200693          	li	a3,34
   10f70:	00300613          	li	a2,3
   10f74:	00000513          	li	a0,0
   10f78:	00b12a23          	sw	a1,20(sp)
   10f7c:	38c1e0ef          	jal	ra,2f308 <__mmap64>
   10f80:	fff00793          	li	a5,-1
   10f84:	00050413          	mv	s0,a0
   10f88:	02f50863          	beq	a0,a5,10fb8 <__assert_fail_base+0x118>
   10f8c:	01412783          	lw	a5,20(sp)
   10f90:	01813583          	ld	a1,24(sp)
   10f94:	00450513          	addi	a0,a0,4
   10f98:	00f42023          	sw	a5,0(s0)
   10f9c:	79c1a0ef          	jal	ra,2b738 <strcpy>
   10fa0:	00040513          	mv	a0,s0
   10fa4:	a7018793          	addi	a5,gp,-1424 # 84b30 <__abort_msg>
   10fa8:	0ca7b52f          	amoswap.d.aq	a0,a0,(a5)
   10fac:	00050663          	beqz	a0,10fb8 <__assert_fail_base+0x118>
   10fb0:	00056583          	lwu	a1,0(a0)
   10fb4:	3a81e0ef          	jal	ra,2f35c <__munmap>
   10fb8:	01813503          	ld	a0,24(sp)
   10fbc:	0e4190ef          	jal	ra,2a0a0 <__free>
   10fc0:	bb8ff0ef          	jal	ra,10378 <abort>
   10fc4:	00062537          	lui	a0,0x62
   10fc8:	d2050693          	addi	a3,a0,-736 # 61d20 <__PRETTY_FUNCTION__.0+0x38>
   10fcc:	f2041ae3          	bnez	s0,10f00 <__assert_fail_base+0x60>
   10fd0:	000778b7          	lui	a7,0x77
   10fd4:	23888413          	addi	s0,a7,568 # 77238 <expected2.3+0x8>
   10fd8:	23888893          	addi	a7,a7,568
   10fdc:	f2dff06f          	j	10f08 <__assert_fail_base+0x68>
   10fe0:	000625b7          	lui	a1,0x62
   10fe4:	01200613          	li	a2,18
   10fe8:	d5858593          	addi	a1,a1,-680 # 61d58 <errstr.0>
   10fec:	00200513          	li	a0,2
   10ff0:	7dc1d0ef          	jal	ra,2e7cc <__libc_write>
   10ff4:	fcdff06f          	j	10fc0 <__assert_fail_base+0x120>

0000000000010ff8 <__assert_fail>:
   10ff8:	fd010113          	addi	sp,sp,-48
   10ffc:	02813023          	sd	s0,32(sp)
   11000:	00913c23          	sd	s1,24(sp)
   11004:	00050413          	mv	s0,a0
   11008:	00058493          	mv	s1,a1
   1100c:	000625b7          	lui	a1,0x62
   11010:	01213823          	sd	s2,16(sp)
   11014:	d2858593          	addi	a1,a1,-728 # 61d28 <__PRETTY_FUNCTION__.0+0x40>
   11018:	00060913          	mv	s2,a2
   1101c:	98018513          	addi	a0,gp,-1664 # 84a40 <_libc_intl_domainname>
   11020:	00500613          	li	a2,5
   11024:	01313423          	sd	s3,8(sp)
   11028:	02113423          	sd	ra,40(sp)
   1102c:	00068993          	mv	s3,a3
   11030:	018000ef          	jal	ra,11048 <__dcgettext>
   11034:	00098713          	mv	a4,s3
   11038:	00090693          	mv	a3,s2
   1103c:	00048613          	mv	a2,s1
   11040:	00040593          	mv	a1,s0
   11044:	e5dff0ef          	jal	ra,10ea0 <__assert_fail_base>

0000000000011048 <__dcgettext>:
   11048:	00060793          	mv	a5,a2
   1104c:	00000713          	li	a4,0
   11050:	00000693          	li	a3,0
   11054:	00000613          	li	a2,0
   11058:	51d0006f          	j	11d74 <__dcigettext>

000000000001105c <plural_eval>:
   1105c:	fd010113          	addi	sp,sp,-48
   11060:	02813023          	sd	s0,32(sp)
   11064:	00050413          	mv	s0,a0
   11068:	00042783          	lw	a5,0(s0)
   1106c:	00913c23          	sd	s1,24(sp)
   11070:	01213823          	sd	s2,16(sp)
   11074:	01313423          	sd	s3,8(sp)
   11078:	02113423          	sd	ra,40(sp)
   1107c:	00200913          	li	s2,2
   11080:	00058493          	mv	s1,a1
   11084:	00300993          	li	s3,3
   11088:	07278863          	beq	a5,s2,110f8 <plural_eval+0x9c>
   1108c:	04f94063          	blt	s2,a5,110cc <plural_eval+0x70>
   11090:	0c078663          	beqz	a5,1115c <plural_eval+0x100>
   11094:	00100713          	li	a4,1
   11098:	0ce79c63          	bne	a5,a4,11170 <plural_eval+0x114>
   1109c:	00843503          	ld	a0,8(s0)
   110a0:	00048593          	mv	a1,s1
   110a4:	fb9ff0ef          	jal	ra,1105c <plural_eval>
   110a8:	00153913          	seqz	s2,a0
   110ac:	02813083          	ld	ra,40(sp)
   110b0:	02013403          	ld	s0,32(sp)
   110b4:	01813483          	ld	s1,24(sp)
   110b8:	00813983          	ld	s3,8(sp)
   110bc:	00090513          	mv	a0,s2
   110c0:	01013903          	ld	s2,16(sp)
   110c4:	03010113          	addi	sp,sp,48
   110c8:	00008067          	ret
   110cc:	0b379263          	bne	a5,s3,11170 <plural_eval+0x114>
   110d0:	00843503          	ld	a0,8(s0)
   110d4:	00048593          	mv	a1,s1
   110d8:	f85ff0ef          	jal	ra,1105c <plural_eval>
   110dc:	00153513          	seqz	a0,a0
   110e0:	00150513          	addi	a0,a0,1
   110e4:	00351513          	slli	a0,a0,0x3
   110e8:	00a40433          	add	s0,s0,a0
   110ec:	00843403          	ld	s0,8(s0)
   110f0:	00042783          	lw	a5,0(s0)
   110f4:	f9279ce3          	bne	a5,s2,1108c <plural_eval+0x30>
   110f8:	00843503          	ld	a0,8(s0)
   110fc:	00048593          	mv	a1,s1
   11100:	f5dff0ef          	jal	ra,1105c <plural_eval>
   11104:	00442783          	lw	a5,4(s0)
   11108:	00f00713          	li	a4,15
   1110c:	00050913          	mv	s2,a0
   11110:	08e78663          	beq	a5,a4,1119c <plural_eval+0x140>
   11114:	00e00713          	li	a4,14
   11118:	08e78863          	beq	a5,a4,111a8 <plural_eval+0x14c>
   1111c:	01043503          	ld	a0,16(s0)
   11120:	00048593          	mv	a1,s1
   11124:	f39ff0ef          	jal	ra,1105c <plural_eval>
   11128:	00442783          	lw	a5,4(s0)
   1112c:	00a00713          	li	a4,10
   11130:	00050413          	mv	s0,a0
   11134:	ffd7879b          	addiw	a5,a5,-3
   11138:	0007869b          	sext.w	a3,a5
   1113c:	02d76a63          	bltu	a4,a3,11170 <plural_eval+0x114>
   11140:	02079793          	slli	a5,a5,0x20
   11144:	00062737          	lui	a4,0x62
   11148:	01e7d793          	srli	a5,a5,0x1e
   1114c:	d6c70713          	addi	a4,a4,-660 # 61d6c <errstr.0+0x14>
   11150:	00e787b3          	add	a5,a5,a4
   11154:	0007a783          	lw	a5,0(a5)
   11158:	00078067          	jr	a5
   1115c:	00442783          	lw	a5,4(s0)
   11160:	00048913          	mv	s2,s1
   11164:	f40784e3          	beqz	a5,110ac <plural_eval+0x50>
   11168:	00100713          	li	a4,1
   1116c:	02e78463          	beq	a5,a4,11194 <plural_eval+0x138>
   11170:	02813083          	ld	ra,40(sp)
   11174:	02013403          	ld	s0,32(sp)
   11178:	00000913          	li	s2,0
   1117c:	01813483          	ld	s1,24(sp)
   11180:	00813983          	ld	s3,8(sp)
   11184:	00090513          	mv	a0,s2
   11188:	01013903          	ld	s2,16(sp)
   1118c:	03010113          	addi	sp,sp,48
   11190:	00008067          	ret
   11194:	00843903          	ld	s2,8(s0)
   11198:	f15ff06f          	j	110ac <plural_eval+0x50>
   1119c:	00050863          	beqz	a0,111ac <plural_eval+0x150>
   111a0:	00100913          	li	s2,1
   111a4:	f09ff06f          	j	110ac <plural_eval+0x50>
   111a8:	f00502e3          	beqz	a0,110ac <plural_eval+0x50>
   111ac:	01043503          	ld	a0,16(s0)
   111b0:	00048593          	mv	a1,s1
   111b4:	ea9ff0ef          	jal	ra,1105c <plural_eval>
   111b8:	00a03933          	snez	s2,a0
   111bc:	ef1ff06f          	j	110ac <plural_eval+0x50>
   111c0:	40a90933          	sub	s2,s2,a0
   111c4:	01203933          	snez	s2,s2
   111c8:	ee5ff06f          	j	110ac <plural_eval+0x50>
   111cc:	08050263          	beqz	a0,11250 <plural_eval+0x1f4>
   111d0:	02895933          	divu	s2,s2,s0
   111d4:	ed9ff06f          	j	110ac <plural_eval+0x50>
   111d8:	02a90933          	mul	s2,s2,a0
   111dc:	ed1ff06f          	j	110ac <plural_eval+0x50>
   111e0:	40a90933          	sub	s2,s2,a0
   111e4:	00193913          	seqz	s2,s2
   111e8:	ec5ff06f          	j	110ac <plural_eval+0x50>
   111ec:	00a93933          	sltu	s2,s2,a0
   111f0:	00194913          	xori	s2,s2,1
   111f4:	02091913          	slli	s2,s2,0x20
   111f8:	02095913          	srli	s2,s2,0x20
   111fc:	eb1ff06f          	j	110ac <plural_eval+0x50>
   11200:	01253933          	sltu	s2,a0,s2
   11204:	00194913          	xori	s2,s2,1
   11208:	02091913          	slli	s2,s2,0x20
   1120c:	02095913          	srli	s2,s2,0x20
   11210:	e9dff06f          	j	110ac <plural_eval+0x50>
   11214:	01253933          	sltu	s2,a0,s2
   11218:	e95ff06f          	j	110ac <plural_eval+0x50>
   1121c:	00a93933          	sltu	s2,s2,a0
   11220:	e8dff06f          	j	110ac <plural_eval+0x50>
   11224:	40a90933          	sub	s2,s2,a0
   11228:	e85ff06f          	j	110ac <plural_eval+0x50>
   1122c:	00a90933          	add	s2,s2,a0
   11230:	e7dff06f          	j	110ac <plural_eval+0x50>
   11234:	00050663          	beqz	a0,11240 <plural_eval+0x1e4>
   11238:	02897933          	remu	s2,s2,s0
   1123c:	e71ff06f          	j	110ac <plural_eval+0x50>
   11240:	00800513          	li	a0,8
   11244:	400040ef          	jal	ra,15644 <raise>
   11248:	02897933          	remu	s2,s2,s0
   1124c:	e61ff06f          	j	110ac <plural_eval+0x50>
   11250:	00800513          	li	a0,8
   11254:	3f0040ef          	jal	ra,15644 <raise>
   11258:	02895933          	divu	s2,s2,s0
   1125c:	e51ff06f          	j	110ac <plural_eval+0x50>

0000000000011260 <transcmp>:
   11260:	02053783          	ld	a5,32(a0)
   11264:	fe010113          	addi	sp,sp,-32
   11268:	00813823          	sd	s0,16(sp)
   1126c:	00913423          	sd	s1,8(sp)
   11270:	00113c23          	sd	ra,24(sp)
   11274:	00050493          	mv	s1,a0
   11278:	00058413          	mv	s0,a1
   1127c:	03850513          	addi	a0,a0,56
   11280:	06078063          	beqz	a5,112e0 <transcmp+0x80>
   11284:	02043783          	ld	a5,32(s0)
   11288:	03840593          	addi	a1,s0,56
   1128c:	04078663          	beqz	a5,112d8 <transcmp+0x78>
   11290:	4801a0ef          	jal	ra,2b710 <strcmp>
   11294:	02051863          	bnez	a0,112c4 <transcmp+0x64>
   11298:	00043583          	ld	a1,0(s0)
   1129c:	0004b503          	ld	a0,0(s1)
   112a0:	4701a0ef          	jal	ra,2b710 <strcmp>
   112a4:	02051063          	bnez	a0,112c4 <transcmp+0x64>
   112a8:	01043583          	ld	a1,16(s0)
   112ac:	0104b503          	ld	a0,16(s1)
   112b0:	4601a0ef          	jal	ra,2b710 <strcmp>
   112b4:	00051863          	bnez	a0,112c4 <transcmp+0x64>
   112b8:	0084a503          	lw	a0,8(s1)
   112bc:	00842783          	lw	a5,8(s0)
   112c0:	40f5053b          	subw	a0,a0,a5
   112c4:	01813083          	ld	ra,24(sp)
   112c8:	01013403          	ld	s0,16(sp)
   112cc:	00813483          	ld	s1,8(sp)
   112d0:	02010113          	addi	sp,sp,32
   112d4:	00008067          	ret
   112d8:	03843583          	ld	a1,56(s0)
   112dc:	fb5ff06f          	j	11290 <transcmp+0x30>
   112e0:	0384b503          	ld	a0,56(s1)
   112e4:	fa1ff06f          	j	11284 <transcmp+0x24>

00000000000112e8 <_nl_find_msg>:
   112e8:	f3010113          	addi	sp,sp,-208
   112ec:	0c813023          	sd	s0,192(sp)
   112f0:	0a913c23          	sd	s1,184(sp)
   112f4:	0d010413          	addi	s0,sp,208
   112f8:	09713423          	sd	s7,136(sp)
   112fc:	0c113423          	sd	ra,200(sp)
   11300:	0b213823          	sd	s2,176(sp)
   11304:	0b313423          	sd	s3,168(sp)
   11308:	0b413023          	sd	s4,160(sp)
   1130c:	09513c23          	sd	s5,152(sp)
   11310:	09613823          	sd	s6,144(sp)
   11314:	09813023          	sd	s8,128(sp)
   11318:	07913c23          	sd	s9,120(sp)
   1131c:	07a13823          	sd	s10,112(sp)
   11320:	07b13423          	sd	s11,104(sp)
   11324:	00852783          	lw	a5,8(a0)
   11328:	f2b43823          	sd	a1,-208(s0)
   1132c:	f4d43023          	sd	a3,-192(s0)
   11330:	f2e43c23          	sd	a4,-200(s0)
   11334:	00050b93          	mv	s7,a0
   11338:	00060493          	mv	s1,a2
   1133c:	26f05063          	blez	a5,1159c <_nl_find_msg+0x2b4>
   11340:	010bbd03          	ld	s10,16(s7)
   11344:	160d0463          	beqz	s10,114ac <_nl_find_msg+0x1c4>
   11348:	060d3703          	ld	a4,96(s10)
   1134c:	028d2903          	lw	s2,40(s10)
   11350:	0e070863          	beqz	a4,11440 <_nl_find_msg+0x158>
   11354:	00048513          	mv	a0,s1
   11358:	7cc1a0ef          	jal	ra,2bb24 <strlen>
   1135c:	00050a13          	mv	s4,a0
   11360:	00048513          	mv	a0,s1
   11364:	1e0040ef          	jal	ra,15544 <__hash_string>
   11368:	058d2c03          	lw	s8,88(s10)
   1136c:	000a079b          	sext.w	a5,s4
   11370:	068d2b03          	lw	s6,104(s10)
   11374:	ffec099b          	addiw	s3,s8,-2
   11378:	03857dbb          	remuw	s11,a0,s8
   1137c:	060d3a83          	ld	s5,96(s10)
   11380:	f4f43c23          	sd	a5,-168(s0)
   11384:	020a1a13          	slli	s4,s4,0x20
   11388:	020a5a13          	srli	s4,s4,0x20
   1138c:	0335753b          	remuw	a0,a0,s3
   11390:	0015099b          	addiw	s3,a0,1
   11394:	418987bb          	subw	a5,s3,s8
   11398:	413c0cbb          	subw	s9,s8,s3
   1139c:	f4f42823          	sw	a5,-176(s0)
   113a0:	020d9713          	slli	a4,s11,0x20
   113a4:	01e75713          	srli	a4,a4,0x1e
   113a8:	00ea8733          	add	a4,s5,a4
   113ac:	00072503          	lw	a0,0(a4)
   113b0:	000b0663          	beqz	s6,113bc <_nl_find_msg+0xd4>
   113b4:	5904b0ef          	jal	ra,5c944 <__bswapsi2>
   113b8:	0005051b          	sext.w	a0,a0
   113bc:	0e050863          	beqz	a0,114ac <_nl_find_msg+0x1c4>
   113c0:	fff5051b          	addiw	a0,a0,-1
   113c4:	00050c1b          	sext.w	s8,a0
   113c8:	132c7663          	bgeu	s8,s2,114f4 <_nl_find_msg+0x20c>
   113cc:	030d3703          	ld	a4,48(s10)
   113d0:	02051513          	slli	a0,a0,0x20
   113d4:	02055513          	srli	a0,a0,0x20
   113d8:	018d2583          	lw	a1,24(s10)
   113dc:	00351513          	slli	a0,a0,0x3
   113e0:	00a70733          	add	a4,a4,a0
   113e4:	00072503          	lw	a0,0(a4)
   113e8:	1a058063          	beqz	a1,11588 <_nl_find_msg+0x2a0>
   113ec:	f4e43423          	sd	a4,-184(s0)
   113f0:	5544b0ef          	jal	ra,5c944 <__bswapsi2>
   113f4:	f5843783          	ld	a5,-168(s0)
   113f8:	0005051b          	sext.w	a0,a0
   113fc:	f4843703          	ld	a4,-184(s0)
   11400:	02f56863          	bltu	a0,a5,11430 <_nl_find_msg+0x148>
   11404:	000d3583          	ld	a1,0(s10)
   11408:	00472503          	lw	a0,4(a4)
   1140c:	f4b43423          	sd	a1,-184(s0)
   11410:	5344b0ef          	jal	ra,5c944 <__bswapsi2>
   11414:	f4843583          	ld	a1,-184(s0)
   11418:	02051513          	slli	a0,a0,0x20
   1141c:	02055513          	srli	a0,a0,0x20
   11420:	00a585b3          	add	a1,a1,a0
   11424:	00048513          	mv	a0,s1
   11428:	2e81a0ef          	jal	ra,2b710 <strcmp>
   1142c:	0e050a63          	beqz	a0,11520 <_nl_find_msg+0x238>
   11430:	159de863          	bltu	s11,s9,11580 <_nl_find_msg+0x298>
   11434:	f5042783          	lw	a5,-176(s0)
   11438:	01b78dbb          	addw	s11,a5,s11
   1143c:	f65ff06f          	j	113a0 <_nl_find_msg+0xb8>
   11440:	02091b13          	slli	s6,s2,0x20
   11444:	020b5b13          	srli	s6,s6,0x20
   11448:	000b0a93          	mv	s5,s6
   1144c:	00000a13          	li	s4,0
   11450:	014a89b3          	add	s3,s5,s4
   11454:	0019d993          	srli	s3,s3,0x1
   11458:	00399693          	slli	a3,s3,0x3
   1145c:	055a7863          	bgeu	s4,s5,114ac <_nl_find_msg+0x1c4>
   11460:	030d3703          	ld	a4,48(s10)
   11464:	018d2603          	lw	a2,24(s10)
   11468:	000d3c03          	ld	s8,0(s10)
   1146c:	00d70733          	add	a4,a4,a3
   11470:	00472503          	lw	a0,4(a4)
   11474:	0e060663          	beqz	a2,11560 <_nl_find_msg+0x278>
   11478:	4cc4b0ef          	jal	ra,5c944 <__bswapsi2>
   1147c:	02051513          	slli	a0,a0,0x20
   11480:	02055513          	srli	a0,a0,0x20
   11484:	00ac05b3          	add	a1,s8,a0
   11488:	00048513          	mv	a0,s1
   1148c:	2841a0ef          	jal	ra,2b710 <strcmp>
   11490:	0e054463          	bltz	a0,11578 <_nl_find_msg+0x290>
   11494:	08050e63          	beqz	a0,11530 <_nl_find_msg+0x248>
   11498:	00198a13          	addi	s4,s3,1
   1149c:	014a89b3          	add	s3,s5,s4
   114a0:	0019d993          	srli	s3,s3,0x1
   114a4:	00399693          	slli	a3,s3,0x3
   114a8:	fb5a6ce3          	bltu	s4,s5,11460 <_nl_find_msg+0x178>
   114ac:	00000a13          	li	s4,0
   114b0:	f3040113          	addi	sp,s0,-208
   114b4:	0c813083          	ld	ra,200(sp)
   114b8:	000a0513          	mv	a0,s4
   114bc:	0c013403          	ld	s0,192(sp)
   114c0:	0b813483          	ld	s1,184(sp)
   114c4:	0b013903          	ld	s2,176(sp)
   114c8:	0a813983          	ld	s3,168(sp)
   114cc:	0a013a03          	ld	s4,160(sp)
   114d0:	09813a83          	ld	s5,152(sp)
   114d4:	09013b03          	ld	s6,144(sp)
   114d8:	08813b83          	ld	s7,136(sp)
   114dc:	08013c03          	ld	s8,128(sp)
   114e0:	07813c83          	ld	s9,120(sp)
   114e4:	07013d03          	ld	s10,112(sp)
   114e8:	06813d83          	ld	s11,104(sp)
   114ec:	0d010113          	addi	sp,sp,208
   114f0:	00008067          	ret
   114f4:	048d3703          	ld	a4,72(s10)
   114f8:	4125053b          	subw	a0,a0,s2
   114fc:	02051513          	slli	a0,a0,0x20
   11500:	01c55513          	srli	a0,a0,0x1c
   11504:	00a70533          	add	a0,a4,a0
   11508:	00053703          	ld	a4,0(a0)
   1150c:	f2ea72e3          	bgeu	s4,a4,11430 <_nl_find_msg+0x148>
   11510:	00853583          	ld	a1,8(a0)
   11514:	00048513          	mv	a0,s1
   11518:	1f81a0ef          	jal	ra,2b710 <strcmp>
   1151c:	f0051ae3          	bnez	a0,11430 <_nl_find_msg+0x148>
   11520:	020c1993          	slli	s3,s8,0x20
   11524:	02091b13          	slli	s6,s2,0x20
   11528:	0209d993          	srli	s3,s3,0x20
   1152c:	020b5b13          	srli	s6,s6,0x20
   11530:	0769ea63          	bltu	s3,s6,115a4 <_nl_find_msg+0x2bc>
   11534:	050d3703          	ld	a4,80(s10)
   11538:	41698b33          	sub	s6,s3,s6
   1153c:	004b1b13          	slli	s6,s6,0x4
   11540:	01670b33          	add	s6,a4,s6
   11544:	008b3a03          	ld	s4,8(s6)
   11548:	000b3b03          	ld	s6,0(s6)
   1154c:	f4043783          	ld	a5,-192(s0)
   11550:	08079e63          	bnez	a5,115ec <_nl_find_msg+0x304>
   11554:	f3843783          	ld	a5,-200(s0)
   11558:	0167b023          	sd	s6,0(a5)
   1155c:	f55ff06f          	j	114b0 <_nl_find_msg+0x1c8>
   11560:	02051513          	slli	a0,a0,0x20
   11564:	02055513          	srli	a0,a0,0x20
   11568:	00ac05b3          	add	a1,s8,a0
   1156c:	00048513          	mv	a0,s1
   11570:	1a01a0ef          	jal	ra,2b710 <strcmp>
   11574:	f20550e3          	bgez	a0,11494 <_nl_find_msg+0x1ac>
   11578:	00098a93          	mv	s5,s3
   1157c:	ed5ff06f          	j	11450 <_nl_find_msg+0x168>
   11580:	013d8dbb          	addw	s11,s11,s3
   11584:	e1dff06f          	j	113a0 <_nl_find_msg+0xb8>
   11588:	f5843783          	ld	a5,-168(s0)
   1158c:	eaf562e3          	bltu	a0,a5,11430 <_nl_find_msg+0x148>
   11590:	000d3583          	ld	a1,0(s10)
   11594:	00476503          	lwu	a0,4(a4)
   11598:	e89ff06f          	j	11420 <_nl_find_msg+0x138>
   1159c:	194010ef          	jal	ra,12730 <_nl_load_domain>
   115a0:	da1ff06f          	j	11340 <_nl_find_msg+0x58>
   115a4:	038d3703          	ld	a4,56(s10)
   115a8:	018d2683          	lw	a3,24(s10)
   115ac:	00399613          	slli	a2,s3,0x3
   115b0:	00c70733          	add	a4,a4,a2
   115b4:	000d3a03          	ld	s4,0(s10)
   115b8:	00472503          	lw	a0,4(a4)
   115bc:	00072b03          	lw	s6,0(a4)
   115c0:	36068063          	beqz	a3,11920 <_nl_find_msg+0x638>
   115c4:	3804b0ef          	jal	ra,5c944 <__bswapsi2>
   115c8:	02051713          	slli	a4,a0,0x20
   115cc:	02075713          	srli	a4,a4,0x20
   115d0:	000b0513          	mv	a0,s6
   115d4:	00ea0a33          	add	s4,s4,a4
   115d8:	36c4b0ef          	jal	ra,5c944 <__bswapsi2>
   115dc:	00150b1b          	addiw	s6,a0,1
   115e0:	020b1b13          	slli	s6,s6,0x20
   115e4:	020b5b13          	srli	s6,s6,0x20
   115e8:	f65ff06f          	j	1154c <_nl_find_msg+0x264>
   115ec:	f3043783          	ld	a5,-208(s0)
   115f0:	30078263          	beqz	a5,118f4 <_nl_find_msg+0x60c>
   115f4:	0107ba83          	ld	s5,16(a5)
   115f8:	2e0a8e63          	beqz	s5,118f4 <_nl_find_msg+0x60c>
   115fc:	00000713          	li	a4,0
   11600:	00070863          	beqz	a4,11610 <_nl_find_msg+0x328>
   11604:	080d0513          	addi	a0,s10,128
   11608:	00000097          	auipc	ra,0x0
   1160c:	000000e7          	jalr	zero # 0 <_nl_current_LC_CTYPE>
   11610:	078d3c83          	ld	s9,120(s10)
   11614:	001c9c13          	slli	s8,s9,0x1
   11618:	019c0c33          	add	s8,s8,s9
   1161c:	003c1c13          	slli	s8,s8,0x3
   11620:	fe8c0c13          	addi	s8,s8,-24
   11624:	0200006f          	j	11644 <_nl_find_msg+0x35c>
   11628:	070d3483          	ld	s1,112(s10)
   1162c:	fffc8c93          	addi	s9,s9,-1
   11630:	018484b3          	add	s1,s1,s8
   11634:	0004b503          	ld	a0,0(s1)
   11638:	fe8c0c13          	addi	s8,s8,-24
   1163c:	0d41a0ef          	jal	ra,2b710 <strcmp>
   11640:	2e050e63          	beqz	a0,1193c <_nl_find_msg+0x654>
   11644:	000a8593          	mv	a1,s5
   11648:	fe0c90e3          	bnez	s9,11628 <_nl_find_msg+0x340>
   1164c:	00000793          	li	a5,0
   11650:	f4f43c23          	sd	a5,-168(s0)
   11654:	00078863          	beqz	a5,11664 <_nl_find_msg+0x37c>
   11658:	080d0513          	addi	a0,s10,128
   1165c:	00000097          	auipc	ra,0x0
   11660:	000000e7          	jalr	zero # 0 <_nl_current_LC_CTYPE>
   11664:	00000713          	li	a4,0
   11668:	00070863          	beqz	a4,11678 <_nl_find_msg+0x390>
   1166c:	080d0513          	addi	a0,s10,128
   11670:	00000097          	auipc	ra,0x0
   11674:	000000e7          	jalr	zero # 0 <_nl_current_LC_CTYPE>
   11678:	078d3c03          	ld	s8,120(s10)
   1167c:	070d3c83          	ld	s9,112(s10)
   11680:	001c1793          	slli	a5,s8,0x1
   11684:	018787b3          	add	a5,a5,s8
   11688:	00379793          	slli	a5,a5,0x3
   1168c:	fe878d93          	addi	s11,a5,-24
   11690:	f4f43823          	sd	a5,-176(s0)
   11694:	01bc8db3          	add	s11,s9,s11
   11698:	01c0006f          	j	116b4 <_nl_find_msg+0x3cc>
   1169c:	000db503          	ld	a0,0(s11)
   116a0:	000d8493          	mv	s1,s11
   116a4:	fffc0c13          	addi	s8,s8,-1
   116a8:	0681a0ef          	jal	ra,2b710 <strcmp>
   116ac:	fe8d8d93          	addi	s11,s11,-24
   116b0:	1e050c63          	beqz	a0,118a8 <_nl_find_msg+0x5c0>
   116b4:	000a8593          	mv	a1,s5
   116b8:	fe0c12e3          	bnez	s8,1169c <_nl_find_msg+0x3b4>
   116bc:	f5043783          	ld	a5,-176(s0)
   116c0:	01878593          	addi	a1,a5,24
   116c4:	4e0c8263          	beqz	s9,11ba8 <_nl_find_msg+0x8c0>
   116c8:	000c8513          	mv	a0,s9
   116cc:	401180ef          	jal	ra,2a2cc <__libc_realloc>
   116d0:	00050493          	mv	s1,a0
   116d4:	40048a63          	beqz	s1,11ae8 <_nl_find_msg+0x800>
   116d8:	000a8513          	mv	a0,s5
   116dc:	069d3823          	sd	s1,112(s10)
   116e0:	23c1a0ef          	jal	ra,2b91c <__strdup>
   116e4:	00050a93          	mv	s5,a0
   116e8:	40050063          	beqz	a0,11ae8 <_nl_find_msg+0x800>
   116ec:	f5043783          	ld	a5,-176(s0)
   116f0:	f3043583          	ld	a1,-208(s0)
   116f4:	fff00c93          	li	s9,-1
   116f8:	00f484b3          	add	s1,s1,a5
   116fc:	00077637          	lui	a2,0x77
   11700:	00a4b023          	sd	a0,0(s1)
   11704:	f7040713          	addi	a4,s0,-144
   11708:	0194b423          	sd	s9,8(s1)
   1170c:	00000693          	li	a3,0
   11710:	23860613          	addi	a2,a2,568 # 77238 <expected2.3+0x8>
   11714:	000b8513          	mv	a0,s7
   11718:	bd1ff0ef          	jal	ra,112e8 <_nl_find_msg>
   1171c:	00050713          	mv	a4,a0
   11720:	59950a63          	beq	a0,s9,11cb4 <_nl_find_msg+0x9cc>
   11724:	16050a63          	beqz	a0,11898 <_nl_find_msg+0x5b0>
   11728:	000625b7          	lui	a1,0x62
   1172c:	da858593          	addi	a1,a1,-600 # 61da8 <errstr.0+0x50>
   11730:	3211a0ef          	jal	ra,2c250 <strstr>
   11734:	16050263          	beqz	a0,11898 <_nl_find_msg+0x5b0>
   11738:	00850b93          	addi	s7,a0,8
   1173c:	000625b7          	lui	a1,0x62
   11740:	db858593          	addi	a1,a1,-584 # 61db8 <errstr.0+0x60>
   11744:	000b8513          	mv	a0,s7
   11748:	0301a0ef          	jal	ra,2b778 <strcspn>
   1174c:	01050713          	addi	a4,a0,16
   11750:	ff077713          	andi	a4,a4,-16
   11754:	40e10133          	sub	sp,sp,a4
   11758:	00010893          	mv	a7,sp
   1175c:	00050c93          	mv	s9,a0
   11760:	00050613          	mv	a2,a0
   11764:	000b8593          	mv	a1,s7
   11768:	00088513          	mv	a0,a7
   1176c:	5281b0ef          	jal	ra,2cc94 <memcpy>
   11770:	00050893          	mv	a7,a0
   11774:	01950533          	add	a0,a0,s9
   11778:	00050023          	sb	zero,0(a0)
   1177c:	0008c703          	lbu	a4,0(a7)
   11780:	5c070a63          	beqz	a4,11d54 <_nl_find_msg+0xa6c>
   11784:	00088693          	mv	a3,a7
   11788:	00000513          	li	a0,0
   1178c:	00070593          	mv	a1,a4
   11790:	00168693          	addi	a3,a3,1 # f001 <catch_hook+0xefa9>
   11794:	fd158613          	addi	a2,a1,-47
   11798:	0006c583          	lbu	a1,0(a3)
   1179c:	00163613          	seqz	a2,a2
   117a0:	00c50533          	add	a0,a0,a2
   117a4:	fe0596e3          	bnez	a1,11790 <_nl_find_msg+0x4a8>
   117a8:	411686b3          	sub	a3,a3,a7
   117ac:	01268693          	addi	a3,a3,18
   117b0:	ff06f693          	andi	a3,a3,-16
   117b4:	40d10133          	sub	sp,sp,a3
   117b8:	00010e13          	mv	t3,sp
   117bc:	000756b7          	lui	a3,0x75
   117c0:	ae06b583          	ld	a1,-1312(a3) # 74ae0 <_nl_C_locobj+0x78>
   117c4:	000e0693          	mv	a3,t3
   117c8:	00271713          	slli	a4,a4,0x2
   117cc:	00e58733          	add	a4,a1,a4
   117d0:	00072603          	lw	a2,0(a4)
   117d4:	0018c703          	lbu	a4,1(a7)
   117d8:	00068313          	mv	t1,a3
   117dc:	00c68023          	sb	a2,0(a3)
   117e0:	00188893          	addi	a7,a7,1
   117e4:	00168693          	addi	a3,a3,1
   117e8:	fe0710e3          	bnez	a4,117c8 <_nl_find_msg+0x4e0>
   117ec:	00100713          	li	a4,1
   117f0:	4ca77663          	bgeu	a4,a0,11cbc <_nl_find_msg+0x9d4>
   117f4:	000ac703          	lbu	a4,0(s5)
   117f8:	00068023          	sb	zero,0(a3)
   117fc:	f7c43c23          	sd	t3,-136(s0)
   11800:	52070e63          	beqz	a4,11d3c <_nl_find_msg+0xa54>
   11804:	000a8693          	mv	a3,s5
   11808:	00070593          	mv	a1,a4
   1180c:	00168693          	addi	a3,a3,1
   11810:	fd158613          	addi	a2,a1,-47
   11814:	0006c583          	lbu	a1,0(a3)
   11818:	00163613          	seqz	a2,a2
   1181c:	00cc0c33          	add	s8,s8,a2
   11820:	fe0596e3          	bnez	a1,1180c <_nl_find_msg+0x524>
   11824:	415686b3          	sub	a3,a3,s5
   11828:	01268693          	addi	a3,a3,18
   1182c:	ff06f693          	andi	a3,a3,-16
   11830:	40d10133          	sub	sp,sp,a3
   11834:	00010313          	mv	t1,sp
   11838:	000756b7          	lui	a3,0x75
   1183c:	ae06b503          	ld	a0,-1312(a3) # 74ae0 <_nl_C_locobj+0x78>
   11840:	000a8613          	mv	a2,s5
   11844:	00030693          	mv	a3,t1
   11848:	00271713          	slli	a4,a4,0x2
   1184c:	00e50733          	add	a4,a0,a4
   11850:	00072583          	lw	a1,0(a4)
   11854:	00164703          	lbu	a4,1(a2)
   11858:	00068893          	mv	a7,a3
   1185c:	00b68023          	sb	a1,0(a3)
   11860:	00160613          	addi	a2,a2,1
   11864:	00168693          	addi	a3,a3,1
   11868:	fe0710e3          	bnez	a4,11848 <_nl_find_msg+0x560>
   1186c:	00100713          	li	a4,1
   11870:	47877063          	bgeu	a4,s8,11cd0 <_nl_find_msg+0x9e8>
   11874:	00100713          	li	a4,1
   11878:	00068023          	sb	zero,0(a3)
   1187c:	00100613          	li	a2,1
   11880:	00848593          	addi	a1,s1,8
   11884:	f7840513          	addi	a0,s0,-136
   11888:	f8643023          	sd	t1,-128(s0)
   1188c:	f8e41423          	sh	a4,-120(s0)
   11890:	01d200ef          	jal	ra,320ac <__gconv_open>
   11894:	3e051c63          	bnez	a0,11c8c <_nl_find_msg+0x9a4>
   11898:	078d3703          	ld	a4,120(s10)
   1189c:	0004b823          	sd	zero,16(s1)
   118a0:	00170713          	addi	a4,a4,1
   118a4:	06ed3c23          	sd	a4,120(s10)
   118a8:	f5843783          	ld	a5,-168(s0)
   118ac:	00078863          	beqz	a5,118bc <_nl_find_msg+0x5d4>
   118b0:	080d0513          	addi	a0,s10,128
   118b4:	00000097          	auipc	ra,0x0
   118b8:	000000e7          	jalr	zero # 0 <_nl_current_LC_CTYPE>
   118bc:	0084b683          	ld	a3,8(s1)
   118c0:	fff00713          	li	a4,-1
   118c4:	c8e688e3          	beq	a3,a4,11554 <_nl_find_msg+0x26c>
   118c8:	0104b703          	ld	a4,16(s1)
   118cc:	22070c63          	beqz	a4,11b04 <_nl_find_msg+0x81c>
   118d0:	fff00793          	li	a5,-1
   118d4:	22f70463          	beq	a4,a5,11afc <_nl_find_msg+0x814>
   118d8:	00399793          	slli	a5,s3,0x3
   118dc:	00f70733          	add	a4,a4,a5
   118e0:	00073783          	ld	a5,0(a4)
   118e4:	08078a63          	beqz	a5,11978 <_nl_find_msg+0x690>
   118e8:	0007bb03          	ld	s6,0(a5)
   118ec:	00878a13          	addi	s4,a5,8
   118f0:	c65ff06f          	j	11554 <_nl_find_msg+0x26c>
   118f4:	9f01a703          	lw	a4,-1552(gp) # 84ab0 <output_charset_cached.1>
   118f8:	04070863          	beqz	a4,11948 <_nl_find_msg+0x660>
   118fc:	9e81ba83          	ld	s5,-1560(gp) # 84aa8 <output_charset_cache.0>
   11900:	ce0a9ee3          	bnez	s5,115fc <_nl_find_msg+0x314>
   11904:	00073717          	auipc	a4,0x73
   11908:	f5473703          	ld	a4,-172(a4) # 84858 <_GLOBAL_OFFSET_TABLE_+0x58>
   1190c:	00470733          	add	a4,a4,tp
   11910:	00073703          	ld	a4,0(a4)
   11914:	00073703          	ld	a4,0(a4)
   11918:	0b073a83          	ld	s5,176(a4)
   1191c:	ce1ff06f          	j	115fc <_nl_find_msg+0x314>
   11920:	02051513          	slli	a0,a0,0x20
   11924:	001b0b1b          	addiw	s6,s6,1
   11928:	02055513          	srli	a0,a0,0x20
   1192c:	020b1b13          	slli	s6,s6,0x20
   11930:	00aa0a33          	add	s4,s4,a0
   11934:	020b5b13          	srli	s6,s6,0x20
   11938:	c15ff06f          	j	1154c <_nl_find_msg+0x264>
   1193c:	00000713          	li	a4,0
   11940:	f60718e3          	bnez	a4,118b0 <_nl_find_msg+0x5c8>
   11944:	f79ff06f          	j	118bc <_nl_find_msg+0x5d4>
   11948:	00062537          	lui	a0,0x62
   1194c:	d9850513          	addi	a0,a0,-616 # 61d98 <errstr.0+0x40>
   11950:	4b8040ef          	jal	ra,15e08 <getenv>
   11954:	00050c13          	mv	s8,a0
   11958:	00050663          	beqz	a0,11964 <_nl_find_msg+0x67c>
   1195c:	00054703          	lbu	a4,0(a0)
   11960:	20071e63          	bnez	a4,11b7c <_nl_find_msg+0x894>
   11964:	9e81ba83          	ld	s5,-1560(gp) # 84aa8 <output_charset_cache.0>
   11968:	00100713          	li	a4,1
   1196c:	9ee1a823          	sw	a4,-1552(gp) # 84ab0 <output_charset_cached.1>
   11970:	c80a96e3          	bnez	s5,115fc <_nl_find_msg+0x314>
   11974:	f91ff06f          	j	11904 <_nl_find_msg+0x61c>
   11978:	f4f43423          	sd	a5,-184(s0)
   1197c:	00100713          	li	a4,1
   11980:	a0818693          	addi	a3,gp,-1528 # 84ac8 <lock.4>
   11984:	1006a7af          	lr.w	a5,(a3)
   11988:	00079663          	bnez	a5,11994 <_nl_find_msg+0x6ac>
   1198c:	1ce6a62f          	sc.w.aq	a2,a4,(a3)
   11990:	fe061ae3          	bnez	a2,11984 <_nl_find_msg+0x69c>
   11994:	0007879b          	sext.w	a5,a5
   11998:	2a079c63          	bnez	a5,11c50 <_nl_find_msg+0x968>
   1199c:	a001b783          	ld	a5,-1536(gp) # 84ac0 <freemem.3>
   119a0:	00001db7          	lui	s11,0x1
   119a4:	00878793          	addi	a5,a5,8
   119a8:	f6f43823          	sd	a5,-144(s0)
   119ac:	fe8d8793          	addi	a5,s11,-24 # fe8 <catch_hook+0xf90>
   119b0:	9f81b603          	ld	a2,-1544(gp) # 84ab8 <freemem_size.2>
   119b4:	f7443423          	sd	s4,-152(s0)
   119b8:	00000c93          	li	s9,0
   119bc:	00700d13          	li	s10,7
   119c0:	ff0d8b93          	addi	s7,s11,-16
   119c4:	f4f43823          	sd	a5,-176(s0)
   119c8:	0400006f          	j	11a08 <_nl_find_msg+0x720>
   119cc:	a101bd83          	ld	s11,-1520(gp) # 84ad0 <transmem_list>
   119d0:	00078c9b          	sext.w	s9,a5
   119d4:	9ec1bc23          	sd	a2,-1544(gp) # 84ab8 <freemem_size.2>
   119d8:	000d8513          	mv	a0,s11
   119dc:	f4c43c23          	sd	a2,-168(s0)
   119e0:	0ed180ef          	jal	ra,2a2cc <__libc_realloc>
   119e4:	0a050463          	beqz	a0,11a8c <_nl_find_msg+0x7a4>
   119e8:	f5843603          	ld	a2,-168(s0)
   119ec:	a0a1b823          	sd	a0,-1520(gp) # 84ad0 <transmem_list>
   119f0:	ff860613          	addi	a2,a2,-8
   119f4:	00850793          	addi	a5,a0,8
   119f8:	01050513          	addi	a0,a0,16
   119fc:	a0f1b023          	sd	a5,-1536(gp) # 84ac0 <freemem.3>
   11a00:	9ec1bc23          	sd	a2,-1544(gp) # 84ab8 <freemem_size.2>
   11a04:	f6a43823          	sd	a0,-144(s0)
   11a08:	ff860713          	addi	a4,a2,-8
   11a0c:	f7840793          	addi	a5,s0,-136
   11a10:	f7040693          	addi	a3,s0,-144
   11a14:	f6840593          	addi	a1,s0,-152
   11a18:	02cd7a63          	bgeu	s10,a2,11a4c <_nl_find_msg+0x764>
   11a1c:	f7043603          	ld	a2,-144(s0)
   11a20:	0084b503          	ld	a0,8(s1)
   11a24:	00e60733          	add	a4,a2,a4
   11a28:	f6843603          	ld	a2,-152(s0)
   11a2c:	01660633          	add	a2,a2,s6
   11a30:	1b1200ef          	jal	ra,323e0 <__gconv>
   11a34:	ffb57793          	andi	a5,a0,-5
   11a38:	0007889b          	sext.w	a7,a5
   11a3c:	00500713          	li	a4,5
   11a40:	16088c63          	beqz	a7,11bb8 <_nl_find_msg+0x8d0>
   11a44:	1ee51263          	bne	a0,a4,11c28 <_nl_find_msg+0x940>
   11a48:	f7443423          	sd	s4,-152(s0)
   11a4c:	001c879b          	addiw	a5,s9,1
   11a50:	0087961b          	slliw	a2,a5,0x8
   11a54:	40f6063b          	subw	a2,a2,a5
   11a58:	0046161b          	slliw	a2,a2,0x4
   11a5c:	00060593          	mv	a1,a2
   11a60:	000b8513          	mv	a0,s7
   11a64:	f60c94e3          	bnez	s9,119cc <_nl_find_msg+0x6e4>
   11a68:	9f71bc23          	sd	s7,-1544(gp) # 84ab8 <freemem_size.2>
   11a6c:	020180ef          	jal	ra,29a8c <__libc_malloc>
   11a70:	02050663          	beqz	a0,11a9c <_nl_find_msg+0x7b4>
   11a74:	a101b783          	ld	a5,-1520(gp) # 84ad0 <transmem_list>
   11a78:	f5043603          	ld	a2,-176(s0)
   11a7c:	a0a1b823          	sd	a0,-1520(gp) # 84ad0 <transmem_list>
   11a80:	00f53023          	sd	a5,0(a0)
   11a84:	00100c93          	li	s9,1
   11a88:	f6dff06f          	j	119f4 <_nl_find_msg+0x70c>
   11a8c:	000db783          	ld	a5,0(s11)
   11a90:	000d8513          	mv	a0,s11
   11a94:	a0f1b823          	sd	a5,-1520(gp) # 84ad0 <transmem_list>
   11a98:	608180ef          	jal	ra,2a0a0 <__free>
   11a9c:	f4843703          	ld	a4,-184(s0)
   11aa0:	a001b023          	sd	zero,-1536(gp) # 84ac0 <freemem.3>
   11aa4:	9e01bc23          	sd	zero,-1544(gp) # 84ab8 <freemem_size.2>
   11aa8:	00000793          	li	a5,0
   11aac:	a0818713          	addi	a4,gp,-1528 # 84ac8 <lock.4>
   11ab0:	0f50000f          	fence	iorw,ow
   11ab4:	08f727af          	amoswap.w	a5,a5,(a4)
   11ab8:	0007879b          	sext.w	a5,a5
   11abc:	00100713          	li	a4,1
   11ac0:	fff00a13          	li	s4,-1
   11ac4:	9ef756e3          	bge	a4,a5,114b0 <_nl_find_msg+0x1c8>
   11ac8:	f4843783          	ld	a5,-184(s0)
   11acc:	06200893          	li	a7,98
   11ad0:	08100593          	li	a1,129
   11ad4:	a0818513          	addi	a0,gp,-1528 # 84ac8 <lock.4>
   11ad8:	00100613          	li	a2,1
   11adc:	00000693          	li	a3,0
   11ae0:	00000073          	ecall
   11ae4:	9cdff06f          	j	114b0 <_nl_find_msg+0x1c8>
   11ae8:	f5843783          	ld	a5,-168(s0)
   11aec:	00078863          	beqz	a5,11afc <_nl_find_msg+0x814>
   11af0:	080d0513          	addi	a0,s10,128
   11af4:	00000097          	auipc	ra,0x0
   11af8:	000000e7          	jalr	zero # 0 <_nl_current_LC_CTYPE>
   11afc:	fff00a13          	li	s4,-1
   11b00:	9b1ff06f          	j	114b0 <_nl_find_msg+0x1c8>
   11b04:	f4f43423          	sd	a5,-184(s0)
   11b08:	00100693          	li	a3,1
   11b0c:	a0818793          	addi	a5,gp,-1528 # 84ac8 <lock.4>
   11b10:	1007a72f          	lr.w	a4,(a5)
   11b14:	00071663          	bnez	a4,11b20 <_nl_find_msg+0x838>
   11b18:	1cd7a62f          	sc.w.aq	a2,a3,(a5)
   11b1c:	fe061ae3          	bnez	a2,11b10 <_nl_find_msg+0x828>
   11b20:	0007071b          	sext.w	a4,a4
   11b24:	1e071463          	bnez	a4,11d0c <_nl_find_msg+0xa24>
   11b28:	0104b703          	ld	a4,16(s1)
   11b2c:	12070a63          	beqz	a4,11c60 <_nl_find_msg+0x978>
   11b30:	f4843703          	ld	a4,-184(s0)
   11b34:	00000793          	li	a5,0
   11b38:	a0818713          	addi	a4,gp,-1528 # 84ac8 <lock.4>
   11b3c:	0f50000f          	fence	iorw,ow
   11b40:	08f727af          	amoswap.w	a5,a5,(a4)
   11b44:	0007879b          	sext.w	a5,a5
   11b48:	00100713          	li	a4,1
   11b4c:	00f74663          	blt	a4,a5,11b58 <_nl_find_msg+0x870>
   11b50:	0104b703          	ld	a4,16(s1)
   11b54:	d7dff06f          	j	118d0 <_nl_find_msg+0x5e8>
   11b58:	f4843783          	ld	a5,-184(s0)
   11b5c:	06200893          	li	a7,98
   11b60:	08100593          	li	a1,129
   11b64:	a0818513          	addi	a0,gp,-1528 # 84ac8 <lock.4>
   11b68:	00100613          	li	a2,1
   11b6c:	00000693          	li	a3,0
   11b70:	00000073          	ecall
   11b74:	0104b703          	ld	a4,16(s1)
   11b78:	d59ff06f          	j	118d0 <_nl_find_msg+0x5e8>
   11b7c:	7a9190ef          	jal	ra,2bb24 <strlen>
   11b80:	00150c93          	addi	s9,a0,1
   11b84:	000c8513          	mv	a0,s9
   11b88:	705170ef          	jal	ra,29a8c <__libc_malloc>
   11b8c:	00050a93          	mv	s5,a0
   11b90:	00050863          	beqz	a0,11ba0 <_nl_find_msg+0x8b8>
   11b94:	000c8613          	mv	a2,s9
   11b98:	000c0593          	mv	a1,s8
   11b9c:	0f81b0ef          	jal	ra,2cc94 <memcpy>
   11ba0:	9f51b423          	sd	s5,-1560(gp) # 84aa8 <output_charset_cache.0>
   11ba4:	dc5ff06f          	j	11968 <_nl_find_msg+0x680>
   11ba8:	00058513          	mv	a0,a1
   11bac:	6e1170ef          	jal	ra,29a8c <__libc_malloc>
   11bb0:	00050493          	mv	s1,a0
   11bb4:	b21ff06f          	j	116d4 <_nl_find_msg+0x3ec>
   11bb8:	f7043683          	ld	a3,-144(s0)
   11bbc:	a001b503          	ld	a0,-1536(gp) # 84ac0 <freemem.3>
   11bc0:	9f81b703          	ld	a4,-1544(gp) # 84ab8 <freemem_size.2>
   11bc4:	0104b583          	ld	a1,16(s1)
   11bc8:	40a68633          	sub	a2,a3,a0
   11bcc:	f4843783          	ld	a5,-184(s0)
   11bd0:	40c70733          	sub	a4,a4,a2
   11bd4:	00777813          	andi	a6,a4,7
   11bd8:	ff860613          	addi	a2,a2,-8
   11bdc:	00399993          	slli	s3,s3,0x3
   11be0:	00c53023          	sd	a2,0(a0)
   11be4:	010686b3          	add	a3,a3,a6
   11be8:	01358633          	add	a2,a1,s3
   11bec:	ff877713          	andi	a4,a4,-8
   11bf0:	9ee1bc23          	sd	a4,-1544(gp) # 84ab8 <freemem_size.2>
   11bf4:	00a63023          	sd	a0,0(a2)
   11bf8:	a0818713          	addi	a4,gp,-1528 # 84ac8 <lock.4>
   11bfc:	a0d1b023          	sd	a3,-1536(gp) # 84ac0 <freemem.3>
   11c00:	00088793          	mv	a5,a7
   11c04:	0f50000f          	fence	iorw,ow
   11c08:	08f727af          	amoswap.w	a5,a5,(a4)
   11c0c:	0007879b          	sext.w	a5,a5
   11c10:	00100713          	li	a4,1
   11c14:	10f74463          	blt	a4,a5,11d1c <_nl_find_msg+0xa34>
   11c18:	0104b783          	ld	a5,16(s1)
   11c1c:	013787b3          	add	a5,a5,s3
   11c20:	0007b783          	ld	a5,0(a5)
   11c24:	cc5ff06f          	j	118e8 <_nl_find_msg+0x600>
   11c28:	f4843703          	ld	a4,-184(s0)
   11c2c:	00000793          	li	a5,0
   11c30:	a0818713          	addi	a4,gp,-1528 # 84ac8 <lock.4>
   11c34:	0f50000f          	fence	iorw,ow
   11c38:	08f727af          	amoswap.w	a5,a5,(a4)
   11c3c:	0007879b          	sext.w	a5,a5
   11c40:	00100713          	li	a4,1
   11c44:	00000a13          	li	s4,0
   11c48:	86f754e3          	bge	a4,a5,114b0 <_nl_find_msg+0x1c8>
   11c4c:	e7dff06f          	j	11ac8 <_nl_find_msg+0x7e0>
   11c50:	f4843783          	ld	a5,-184(s0)
   11c54:	a0818513          	addi	a0,gp,-1528 # 84ac8 <lock.4>
   11c58:	7e0130ef          	jal	ra,25438 <__lll_lock_wait_private>
   11c5c:	d41ff06f          	j	1199c <_nl_find_msg+0x6b4>
   11c60:	040d2503          	lw	a0,64(s10)
   11c64:	00800593          	li	a1,8
   11c68:	0125053b          	addw	a0,a0,s2
   11c6c:	02051513          	slli	a0,a0,0x20
   11c70:	02055513          	srli	a0,a0,0x20
   11c74:	291180ef          	jal	ra,2a704 <__calloc>
   11c78:	00a4b823          	sd	a0,16(s1)
   11c7c:	d20510e3          	bnez	a0,1199c <_nl_find_msg+0x6b4>
   11c80:	fff00793          	li	a5,-1
   11c84:	00f4b823          	sd	a5,16(s1)
   11c88:	ea9ff06f          	j	11b30 <_nl_find_msg+0x848>
   11c8c:	fff00693          	li	a3,-1
   11c90:	0cd50e63          	beq	a0,a3,11d6c <_nl_find_msg+0xa84>
   11c94:	f5843783          	ld	a5,-168(s0)
   11c98:	00078863          	beqz	a5,11ca8 <_nl_find_msg+0x9c0>
   11c9c:	080d0513          	addi	a0,s10,128
   11ca0:	00000097          	auipc	ra,0x0
   11ca4:	000000e7          	jalr	zero # 0 <_nl_current_LC_CTYPE>
   11ca8:	000a8513          	mv	a0,s5
   11cac:	3f4180ef          	jal	ra,2a0a0 <__free>
   11cb0:	00000713          	li	a4,0
   11cb4:	00070a13          	mv	s4,a4
   11cb8:	ff8ff06f          	j	114b0 <_nl_find_msg+0x1c8>
   11cbc:	02f00713          	li	a4,47
   11cc0:	00e68023          	sb	a4,0(a3)
   11cc4:	02050063          	beqz	a0,11ce4 <_nl_find_msg+0x9fc>
   11cc8:	00230693          	addi	a3,t1,2
   11ccc:	b29ff06f          	j	117f4 <_nl_find_msg+0x50c>
   11cd0:	02f00713          	li	a4,47
   11cd4:	00e68023          	sb	a4,0(a3)
   11cd8:	020c0063          	beqz	s8,11cf8 <_nl_find_msg+0xa10>
   11cdc:	00288693          	addi	a3,a7,2
   11ce0:	b95ff06f          	j	11874 <_nl_find_msg+0x58c>
   11ce4:	00068713          	mv	a4,a3
   11ce8:	02f00613          	li	a2,47
   11cec:	00270693          	addi	a3,a4,2
   11cf0:	00c700a3          	sb	a2,1(a4)
   11cf4:	b01ff06f          	j	117f4 <_nl_find_msg+0x50c>
   11cf8:	00068713          	mv	a4,a3
   11cfc:	02f00613          	li	a2,47
   11d00:	00270693          	addi	a3,a4,2
   11d04:	00c700a3          	sb	a2,1(a4)
   11d08:	b6dff06f          	j	11874 <_nl_find_msg+0x58c>
   11d0c:	f4843783          	ld	a5,-184(s0)
   11d10:	a0818513          	addi	a0,gp,-1528 # 84ac8 <lock.4>
   11d14:	724130ef          	jal	ra,25438 <__lll_lock_wait_private>
   11d18:	e11ff06f          	j	11b28 <_nl_find_msg+0x840>
   11d1c:	f4843783          	ld	a5,-184(s0)
   11d20:	06200893          	li	a7,98
   11d24:	08100593          	li	a1,129
   11d28:	a0818513          	addi	a0,gp,-1528 # 84ac8 <lock.4>
   11d2c:	00100613          	li	a2,1
   11d30:	00000693          	li	a3,0
   11d34:	00000073          	ecall
   11d38:	ee1ff06f          	j	11c18 <_nl_find_msg+0x930>
   11d3c:	ff010113          	addi	sp,sp,-16
   11d40:	00010313          	mv	t1,sp
   11d44:	02f00713          	li	a4,47
   11d48:	00e30023          	sb	a4,0(t1)
   11d4c:	00030713          	mv	a4,t1
   11d50:	fadff06f          	j	11cfc <_nl_find_msg+0xa14>
   11d54:	ff010113          	addi	sp,sp,-16
   11d58:	00010e13          	mv	t3,sp
   11d5c:	02f00713          	li	a4,47
   11d60:	00ee0023          	sb	a4,0(t3)
   11d64:	000e0713          	mv	a4,t3
   11d68:	f81ff06f          	j	11ce8 <_nl_find_msg+0xa00>
   11d6c:	00a4b423          	sd	a0,8(s1)
   11d70:	b29ff06f          	j	11898 <_nl_find_msg+0x5b0>

0000000000011d74 <__dcigettext>:
   11d74:	ee010113          	addi	sp,sp,-288
   11d78:	10813823          	sd	s0,272(sp)
   11d7c:	10113c23          	sd	ra,280(sp)
   11d80:	12010413          	addi	s0,sp,288
   11d84:	10913423          	sd	s1,264(sp)
   11d88:	11213023          	sd	s2,256(sp)
   11d8c:	0f313c23          	sd	s3,248(sp)
   11d90:	0f413823          	sd	s4,240(sp)
   11d94:	0f513423          	sd	s5,232(sp)
   11d98:	0f613023          	sd	s6,224(sp)
   11d9c:	0d713c23          	sd	s7,216(sp)
   11da0:	0d813823          	sd	s8,208(sp)
   11da4:	0d913423          	sd	s9,200(sp)
   11da8:	0da13023          	sd	s10,192(sp)
   11dac:	0bb13c23          	sd	s11,184(sp)
   11db0:	f4043023          	sd	zero,-192(s0)
   11db4:	f0c43823          	sd	a2,-240(s0)
   11db8:	f2d43c23          	sd	a3,-200(s0)
   11dbc:	f0e43c23          	sd	a4,-232(s0)
   11dc0:	4c058663          	beqz	a1,1228c <__dcigettext+0x518>
   11dc4:	00078a93          	mv	s5,a5
   11dc8:	00c00793          	li	a5,12
   11dcc:	00058a13          	mv	s4,a1
   11dd0:	2b57e463          	bltu	a5,s5,12078 <__dcigettext+0x304>
   11dd4:	00600793          	li	a5,6
   11dd8:	2afa8063          	beq	s5,a5,12078 <__dcigettext+0x304>
   11ddc:	00073797          	auipc	a5,0x73
   11de0:	a847b783          	ld	a5,-1404(a5) # 84860 <_GLOBAL_OFFSET_TABLE_+0x60>
   11de4:	00000493          	li	s1,0
   11de8:	eef43c23          	sd	a5,-264(s0)
   11dec:	004787b3          	add	a5,a5,tp
   11df0:	0007a783          	lw	a5,0(a5)
   11df4:	00050993          	mv	s3,a0
   11df8:	f0f43023          	sd	a5,-256(s0)
   11dfc:	02048263          	beqz	s1,11e20 <__dcigettext+0xac>
   11e00:	00086537          	lui	a0,0x86
   11e04:	bb850513          	addi	a0,a0,-1096 # 85bb8 <__libc_setlocale_lock>
   11e08:	00000097          	auipc	ra,0x0
   11e0c:	000000e7          	jalr	zero # 0 <_nl_current_LC_CTYPE>
   11e10:	00048863          	beqz	s1,11e20 <__dcigettext+0xac>
   11e14:	5b818513          	addi	a0,gp,1464 # 85678 <_nl_state_lock>
   11e18:	00000097          	auipc	ra,0x0
   11e1c:	000000e7          	jalr	zero # 0 <_nl_current_LC_CTYPE>
   11e20:	46098263          	beqz	s3,12284 <__dcigettext+0x510>
   11e24:	000a8513          	mv	a0,s5
   11e28:	f6043823          	sd	zero,-144(s0)
   11e2c:	f9443423          	sd	s4,-120(s0)
   11e30:	f5343823          	sd	s3,-176(s0)
   11e34:	f5542c23          	sw	s5,-168(s0)
   11e38:	28d2b0ef          	jal	ra,3d8c4 <__current_locale_name>
   11e3c:	eea43423          	sd	a0,-280(s0)
   11e40:	f6a43023          	sd	a0,-160(s0)
   11e44:	00048863          	beqz	s1,11e54 <__dcigettext+0xe0>
   11e48:	5f018513          	addi	a0,gp,1520 # 856b0 <tree_lock>
   11e4c:	00000097          	auipc	ra,0x0
   11e50:	000000e7          	jalr	zero # 0 <_nl_current_LC_CTYPE>
   11e54:	000117b7          	lui	a5,0x11
   11e58:	26078613          	addi	a2,a5,608 # 11260 <transcmp>
   11e5c:	a2018593          	addi	a1,gp,-1504 # 84ae0 <root>
   11e60:	f5040513          	addi	a0,s0,-176
   11e64:	2711d0ef          	jal	ra,2f8d4 <__tfind>
   11e68:	00000793          	li	a5,0
   11e6c:	f2f43823          	sd	a5,-208(s0)
   11e70:	f0a43423          	sd	a0,-248(s0)
   11e74:	00078863          	beqz	a5,11e84 <__dcigettext+0x110>
   11e78:	5f018513          	addi	a0,gp,1520 # 856b0 <tree_lock>
   11e7c:	00000097          	auipc	ra,0x0
   11e80:	000000e7          	jalr	zero # 0 <_nl_current_LC_CTYPE>
   11e84:	f0843783          	ld	a5,-248(s0)
   11e88:	00078a63          	beqz	a5,11e9c <__dcigettext+0x128>
   11e8c:	0007b703          	ld	a4,0(a5)
   11e90:	a301a783          	lw	a5,-1488(gp) # 84af0 <_nl_msg_cat_cntr>
   11e94:	01872683          	lw	a3,24(a4)
   11e98:	3ef68e63          	beq	a3,a5,12294 <__dcigettext+0x520>
   11e9c:	a181b483          	ld	s1,-1512(gp) # 84ad8 <_nl_domain_bindings>
   11ea0:	00049a63          	bnez	s1,11eb4 <__dcigettext+0x140>
   11ea4:	2340006f          	j	120d8 <__dcigettext+0x364>
   11ea8:	22054663          	bltz	a0,120d4 <__dcigettext+0x360>
   11eac:	0004b483          	ld	s1,0(s1)
   11eb0:	22048463          	beqz	s1,120d8 <__dcigettext+0x364>
   11eb4:	01848593          	addi	a1,s1,24
   11eb8:	00098513          	mv	a0,s3
   11ebc:	055190ef          	jal	ra,2b710 <strcmp>
   11ec0:	fe0514e3          	bnez	a0,11ea8 <__dcigettext+0x134>
   11ec4:	0084bb83          	ld	s7,8(s1)
   11ec8:	02f00793          	li	a5,47
   11ecc:	000bc703          	lbu	a4,0(s7)
   11ed0:	20f71a63          	bne	a4,a5,120e4 <__dcigettext+0x370>
   11ed4:	000667b7          	lui	a5,0x66
   11ed8:	08878793          	addi	a5,a5,136 # 66088 <_nl_category_name_idxs>
   11edc:	015787b3          	add	a5,a5,s5
   11ee0:	0007c783          	lbu	a5,0(a5)
   11ee4:	00066937          	lui	s2,0x66
   11ee8:	000a8513          	mv	a0,s5
   11eec:	09890913          	addi	s2,s2,152 # 66098 <_nl_category_names>
   11ef0:	01278933          	add	s2,a5,s2
   11ef4:	1d12b0ef          	jal	ra,3d8c4 <__current_locale_name>
   11ef8:	00054783          	lbu	a5,0(a0)
   11efc:	00050c13          	mv	s8,a0
   11f00:	fbd7879b          	addiw	a5,a5,-67
   11f04:	22079063          	bnez	a5,12124 <__dcigettext+0x3b0>
   11f08:	00154783          	lbu	a5,1(a0)
   11f0c:	20079c63          	bnez	a5,12124 <__dcigettext+0x3b0>
   11f10:	00098513          	mv	a0,s3
   11f14:	411190ef          	jal	ra,2bb24 <strlen>
   11f18:	00050793          	mv	a5,a0
   11f1c:	00090513          	mv	a0,s2
   11f20:	00078b13          	mv	s6,a5
   11f24:	eef43023          	sd	a5,-288(s0)
   11f28:	3fd190ef          	jal	ra,2bb24 <strlen>
   11f2c:	016507b3          	add	a5,a0,s6
   11f30:	01478793          	addi	a5,a5,20
   11f34:	ff07f793          	andi	a5,a5,-16
   11f38:	40f10133          	sub	sp,sp,a5
   11f3c:	00010c93          	mv	s9,sp
   11f40:	00090593          	mv	a1,s2
   11f44:	000c8513          	mv	a0,s9
   11f48:	4a91a0ef          	jal	ra,2cbf0 <__stpcpy>
   11f4c:	02f00793          	li	a5,47
   11f50:	00f50023          	sb	a5,0(a0)
   11f54:	000b0613          	mv	a2,s6
   11f58:	00098593          	mv	a1,s3
   11f5c:	00150513          	addi	a0,a0,1
   11f60:	5351a0ef          	jal	ra,2cc94 <memcpy>
   11f64:	00062737          	lui	a4,0x62
   11f68:	dd870793          	addi	a5,a4,-552 # 61dd8 <errstr.0+0x80>
   11f6c:	dd874603          	lbu	a2,-552(a4)
   11f70:	0017c683          	lbu	a3,1(a5)
   11f74:	0027c703          	lbu	a4,2(a5)
   11f78:	0037c783          	lbu	a5,3(a5)
   11f7c:	01650533          	add	a0,a0,s6
   11f80:	00c50023          	sb	a2,0(a0)
   11f84:	00f501a3          	sb	a5,3(a0)
   11f88:	00d500a3          	sb	a3,1(a0)
   11f8c:	00e50123          	sb	a4,2(a0)
   11f90:	000c0513          	mv	a0,s8
   11f94:	391190ef          	jal	ra,2bb24 <strlen>
   11f98:	01050793          	addi	a5,a0,16
   11f9c:	ff07f793          	andi	a5,a5,-16
   11fa0:	40f10133          	sub	sp,sp,a5
   11fa4:	00010d93          	mv	s11,sp
   11fa8:	03a00913          	li	s2,58
   11fac:	00062d37          	lui	s10,0x62
   11fb0:	000c4783          	lbu	a5,0(s8)
   11fb4:	19278863          	beq	a5,s2,12144 <__dcigettext+0x3d0>
   11fb8:	18079a63          	bnez	a5,1214c <__dcigettext+0x3d8>
   11fbc:	04300793          	li	a5,67
   11fc0:	00fd9023          	sh	a5,0(s11)
   11fc4:	000dc783          	lbu	a5,0(s11)
   11fc8:	fbd7879b          	addiw	a5,a5,-67
   11fcc:	00079663          	bnez	a5,11fd8 <__dcigettext+0x264>
   11fd0:	001dc783          	lbu	a5,1(s11)
   11fd4:	04078a63          	beqz	a5,12028 <__dcigettext+0x2b4>
   11fd8:	de0d0593          	addi	a1,s10,-544 # 61de0 <errstr.0+0x88>
   11fdc:	000d8513          	mv	a0,s11
   11fe0:	730190ef          	jal	ra,2b710 <strcmp>
   11fe4:	04050263          	beqz	a0,12028 <__dcigettext+0x2b4>
   11fe8:	00048693          	mv	a3,s1
   11fec:	000c8613          	mv	a2,s9
   11ff0:	000d8593          	mv	a1,s11
   11ff4:	000b8513          	mv	a0,s7
   11ff8:	4c0000ef          	jal	ra,124b8 <_nl_find_domain>
   11ffc:	00050b13          	mv	s6,a0
   12000:	fa0508e3          	beqz	a0,11fb0 <__dcigettext+0x23c>
   12004:	f4840713          	addi	a4,s0,-184
   12008:	00100693          	li	a3,1
   1200c:	000a0613          	mv	a2,s4
   12010:	00048593          	mv	a1,s1
   12014:	ad4ff0ef          	jal	ra,112e8 <_nl_find_msg>
   12018:	00050793          	mv	a5,a0
   1201c:	16050863          	beqz	a0,1218c <__dcigettext+0x418>
   12020:	fff00713          	li	a4,-1
   12024:	1ce51c63          	bne	a0,a4,121fc <__dcigettext+0x488>
   12028:	f4043503          	ld	a0,-192(s0)
   1202c:	074180ef          	jal	ra,2a0a0 <__free>
   12030:	f3043483          	ld	s1,-208(s0)
   12034:	02048263          	beqz	s1,12058 <__dcigettext+0x2e4>
   12038:	5b818513          	addi	a0,gp,1464 # 85678 <_nl_state_lock>
   1203c:	00000097          	auipc	ra,0x0
   12040:	000000e7          	jalr	zero # 0 <_nl_current_LC_CTYPE>
   12044:	00048a63          	beqz	s1,12058 <__dcigettext+0x2e4>
   12048:	00086537          	lui	a0,0x86
   1204c:	bb850513          	addi	a0,a0,-1096 # 85bb8 <__libc_setlocale_lock>
   12050:	00000097          	auipc	ra,0x0
   12054:	000000e7          	jalr	zero # 0 <_nl_current_LC_CTYPE>
   12058:	ef843783          	ld	a5,-264(s0)
   1205c:	f0043703          	ld	a4,-256(s0)
   12060:	004787b3          	add	a5,a5,tp
   12064:	00e7a023          	sw	a4,0(a5)
   12068:	f3843783          	ld	a5,-200(s0)
   1206c:	00079a63          	bnez	a5,12080 <__dcigettext+0x30c>
   12070:	000a0793          	mv	a5,s4
   12074:	01c0006f          	j	12090 <__dcigettext+0x31c>
   12078:	f3843783          	ld	a5,-200(s0)
   1207c:	fe078ae3          	beqz	a5,12070 <__dcigettext+0x2fc>
   12080:	f1843683          	ld	a3,-232(s0)
   12084:	00100713          	li	a4,1
   12088:	f1043783          	ld	a5,-240(s0)
   1208c:	fee682e3          	beq	a3,a4,12070 <__dcigettext+0x2fc>
   12090:	ee040113          	addi	sp,s0,-288
   12094:	11813083          	ld	ra,280(sp)
   12098:	11013403          	ld	s0,272(sp)
   1209c:	10813483          	ld	s1,264(sp)
   120a0:	10013903          	ld	s2,256(sp)
   120a4:	0f813983          	ld	s3,248(sp)
   120a8:	0f013a03          	ld	s4,240(sp)
   120ac:	0e813a83          	ld	s5,232(sp)
   120b0:	0e013b03          	ld	s6,224(sp)
   120b4:	0d813b83          	ld	s7,216(sp)
   120b8:	0d013c03          	ld	s8,208(sp)
   120bc:	0c813c83          	ld	s9,200(sp)
   120c0:	0c013d03          	ld	s10,192(sp)
   120c4:	0b813d83          	ld	s11,184(sp)
   120c8:	00078513          	mv	a0,a5
   120cc:	12010113          	addi	sp,sp,288
   120d0:	00008067          	ret
   120d4:	00000493          	li	s1,0
   120d8:	00062bb7          	lui	s7,0x62
   120dc:	de8b8b93          	addi	s7,s7,-536 # 61de8 <_nl_default_dirname>
   120e0:	df5ff06f          	j	11ed4 <__dcigettext+0x160>
   120e4:	00000593          	li	a1,0
   120e8:	7f01c0ef          	jal	ra,2e8d8 <__getcwd>
   120ec:	00050913          	mv	s2,a0
   120f0:	f2050ce3          	beqz	a0,12028 <__dcigettext+0x2b4>
   120f4:	000625b7          	lui	a1,0x62
   120f8:	000b8693          	mv	a3,s7
   120fc:	00050613          	mv	a2,a0
   12100:	dc058593          	addi	a1,a1,-576 # 61dc0 <errstr.0+0x68>
   12104:	f4040513          	addi	a0,s0,-192
   12108:	1bd040ef          	jal	ra,16ac4 <___asprintf>
   1210c:	00050b93          	mv	s7,a0
   12110:	00090513          	mv	a0,s2
   12114:	78d170ef          	jal	ra,2a0a0 <__free>
   12118:	f00bc8e3          	bltz	s7,12028 <__dcigettext+0x2b4>
   1211c:	f4043b83          	ld	s7,-192(s0)
   12120:	db5ff06f          	j	11ed4 <__dcigettext+0x160>
   12124:	00062537          	lui	a0,0x62
   12128:	dc850513          	addi	a0,a0,-568 # 61dc8 <errstr.0+0x70>
   1212c:	4dd030ef          	jal	ra,15e08 <getenv>
   12130:	de0500e3          	beqz	a0,11f10 <__dcigettext+0x19c>
   12134:	00054783          	lbu	a5,0(a0)
   12138:	dc078ce3          	beqz	a5,11f10 <__dcigettext+0x19c>
   1213c:	00050c13          	mv	s8,a0
   12140:	dd1ff06f          	j	11f10 <__dcigettext+0x19c>
   12144:	001c0c13          	addi	s8,s8,1
   12148:	e69ff06f          	j	11fb0 <__dcigettext+0x23c>
   1214c:	000d8713          	mv	a4,s11
   12150:	00f70023          	sb	a5,0(a4)
   12154:	001c4783          	lbu	a5,1(s8)
   12158:	00170713          	addi	a4,a4,1
   1215c:	001c0c13          	addi	s8,s8,1
   12160:	00078463          	beqz	a5,12168 <__dcigettext+0x3f4>
   12164:	ff2796e3          	bne	a5,s2,12150 <__dcigettext+0x3dc>
   12168:	000837b7          	lui	a5,0x83
   1216c:	fb87a783          	lw	a5,-72(a5) # 82fb8 <__libc_enable_secure>
   12170:	00070023          	sb	zero,0(a4)
   12174:	e40788e3          	beqz	a5,11fc4 <__dcigettext+0x250>
   12178:	02f00593          	li	a1,47
   1217c:	000d8513          	mv	a0,s11
   12180:	46c190ef          	jal	ra,2b5ec <strchr>
   12184:	e20516e3          	bnez	a0,11fb0 <__dcigettext+0x23c>
   12188:	e3dff06f          	j	11fc4 <__dcigettext+0x250>
   1218c:	020b3503          	ld	a0,32(s6)
   12190:	e20500e3          	beqz	a0,11fb0 <__dcigettext+0x23c>
   12194:	028b0313          	addi	t1,s6,40
   12198:	f2043423          	sd	zero,-216(s0)
   1219c:	0180006f          	j	121b4 <__dcigettext+0x440>
   121a0:	f2843783          	ld	a5,-216(s0)
   121a4:	ff833503          	ld	a0,-8(t1)
   121a8:	0017879b          	addiw	a5,a5,1
   121ac:	f2f43423          	sd	a5,-216(s0)
   121b0:	e00500e3          	beqz	a0,11fb0 <__dcigettext+0x23c>
   121b4:	00830313          	addi	t1,t1,8
   121b8:	f4840713          	addi	a4,s0,-184
   121bc:	00100693          	li	a3,1
   121c0:	000a0613          	mv	a2,s4
   121c4:	00048593          	mv	a1,s1
   121c8:	f2643023          	sd	t1,-224(s0)
   121cc:	ee643823          	sd	t1,-272(s0)
   121d0:	918ff0ef          	jal	ra,112e8 <_nl_find_msg>
   121d4:	fff00713          	li	a4,-1
   121d8:	00050793          	mv	a5,a0
   121dc:	e4e506e3          	beq	a0,a4,12028 <__dcigettext+0x2b4>
   121e0:	f2043303          	ld	t1,-224(s0)
   121e4:	fa050ee3          	beqz	a0,121a0 <__dcigettext+0x42c>
   121e8:	f2843703          	ld	a4,-216(s0)
   121ec:	00470513          	addi	a0,a4,4
   121f0:	00351513          	slli	a0,a0,0x3
   121f4:	00ab0533          	add	a0,s6,a0
   121f8:	00053b03          	ld	s6,0(a0)
   121fc:	f4043503          	ld	a0,-192(s0)
   12200:	f2f43423          	sd	a5,-216(s0)
   12204:	69d170ef          	jal	ra,2a0a0 <__free>
   12208:	f0843703          	ld	a4,-248(s0)
   1220c:	f2843783          	ld	a5,-216(s0)
   12210:	18070a63          	beqz	a4,123a4 <__dcigettext+0x630>
   12214:	f0843703          	ld	a4,-248(s0)
   12218:	a301a683          	lw	a3,-1488(gp) # 84af0 <_nl_msg_cat_cntr>
   1221c:	00073703          	ld	a4,0(a4)
   12220:	00d72c23          	sw	a3,24(a4)
   12224:	f4843683          	ld	a3,-184(s0)
   12228:	03673023          	sd	s6,32(a4)
   1222c:	02f73423          	sd	a5,40(a4)
   12230:	02d73823          	sd	a3,48(a4)
   12234:	ef843703          	ld	a4,-264(s0)
   12238:	f0043683          	ld	a3,-256(s0)
   1223c:	00470733          	add	a4,a4,tp
   12240:	00d72023          	sw	a3,0(a4)
   12244:	f3843703          	ld	a4,-200(s0)
   12248:	0e071e63          	bnez	a4,12344 <__dcigettext+0x5d0>
   1224c:	f3043483          	ld	s1,-208(s0)
   12250:	e40480e3          	beqz	s1,12090 <__dcigettext+0x31c>
   12254:	5b818513          	addi	a0,gp,1464 # 85678 <_nl_state_lock>
   12258:	f2f43c23          	sd	a5,-200(s0)
   1225c:	00000097          	auipc	ra,0x0
   12260:	000000e7          	jalr	zero # 0 <_nl_current_LC_CTYPE>
   12264:	f3843783          	ld	a5,-200(s0)
   12268:	e20484e3          	beqz	s1,12090 <__dcigettext+0x31c>
   1226c:	00086537          	lui	a0,0x86
   12270:	bb850513          	addi	a0,a0,-1096 # 85bb8 <__libc_setlocale_lock>
   12274:	00000097          	auipc	ra,0x0
   12278:	000000e7          	jalr	zero # 0 <_nl_current_LC_CTYPE>
   1227c:	f3843783          	ld	a5,-200(s0)
   12280:	e11ff06f          	j	12090 <__dcigettext+0x31c>
   12284:	8601b983          	ld	s3,-1952(gp) # 84920 <_nl_current_default_domain>
   12288:	b9dff06f          	j	11e24 <__dcigettext+0xb0>
   1228c:	00000793          	li	a5,0
   12290:	e01ff06f          	j	12090 <__dcigettext+0x31c>
   12294:	f3843683          	ld	a3,-200(s0)
   12298:	02873783          	ld	a5,40(a4)
   1229c:	04069663          	bnez	a3,122e8 <__dcigettext+0x574>
   122a0:	f3043483          	ld	s1,-208(s0)
   122a4:	02048863          	beqz	s1,122d4 <__dcigettext+0x560>
   122a8:	5b818513          	addi	a0,gp,1464 # 85678 <_nl_state_lock>
   122ac:	f2f43c23          	sd	a5,-200(s0)
   122b0:	00000097          	auipc	ra,0x0
   122b4:	000000e7          	jalr	zero # 0 <_nl_current_LC_CTYPE>
   122b8:	f3843783          	ld	a5,-200(s0)
   122bc:	00048c63          	beqz	s1,122d4 <__dcigettext+0x560>
   122c0:	00086537          	lui	a0,0x86
   122c4:	bb850513          	addi	a0,a0,-1096 # 85bb8 <__libc_setlocale_lock>
   122c8:	00000097          	auipc	ra,0x0
   122cc:	000000e7          	jalr	zero # 0 <_nl_current_LC_CTYPE>
   122d0:	f3843783          	ld	a5,-200(s0)
   122d4:	ef843703          	ld	a4,-264(s0)
   122d8:	f0043683          	ld	a3,-256(s0)
   122dc:	00470733          	add	a4,a4,tp
   122e0:	00d72023          	sw	a3,0(a4)
   122e4:	dadff06f          	j	12090 <__dcigettext+0x31c>
   122e8:	02073683          	ld	a3,32(a4)
   122ec:	f1843583          	ld	a1,-232(s0)
   122f0:	03073903          	ld	s2,48(a4)
   122f4:	0106b483          	ld	s1,16(a3)
   122f8:	f2f43c23          	sd	a5,-200(s0)
   122fc:	0b84b503          	ld	a0,184(s1)
   12300:	d5dfe0ef          	jal	ra,1105c <plural_eval>
   12304:	0c04b703          	ld	a4,192(s1)
   12308:	f3843783          	ld	a5,-200(s0)
   1230c:	00050493          	mv	s1,a0
   12310:	f8e578e3          	bgeu	a0,a4,122a0 <__dcigettext+0x52c>
   12314:	00078513          	mv	a0,a5
   12318:	fff00993          	li	s3,-1
   1231c:	01278933          	add	s2,a5,s2
   12320:	fff48493          	addi	s1,s1,-1
   12324:	00000593          	li	a1,0
   12328:	19348463          	beq	s1,s3,124b0 <__dcigettext+0x73c>
   1232c:	f2f43c23          	sd	a5,-200(s0)
   12330:	6fd1a0ef          	jal	ra,2d22c <__rawmemchr>
   12334:	00150513          	addi	a0,a0,1
   12338:	f3843783          	ld	a5,-200(s0)
   1233c:	ff2562e3          	bltu	a0,s2,12320 <__dcigettext+0x5ac>
   12340:	f61ff06f          	j	122a0 <__dcigettext+0x52c>
   12344:	010b3483          	ld	s1,16(s6)
   12348:	f1843583          	ld	a1,-232(s0)
   1234c:	f2f43c23          	sd	a5,-200(s0)
   12350:	0b84b503          	ld	a0,184(s1)
   12354:	f4843903          	ld	s2,-184(s0)
   12358:	d05fe0ef          	jal	ra,1105c <plural_eval>
   1235c:	0c04b703          	ld	a4,192(s1)
   12360:	f3843783          	ld	a5,-200(s0)
   12364:	00050493          	mv	s1,a0
   12368:	eee572e3          	bgeu	a0,a4,1224c <__dcigettext+0x4d8>
   1236c:	00078513          	mv	a0,a5
   12370:	fff00993          	li	s3,-1
   12374:	01278933          	add	s2,a5,s2
   12378:	0180006f          	j	12390 <__dcigettext+0x61c>
   1237c:	f2f43c23          	sd	a5,-200(s0)
   12380:	6ad1a0ef          	jal	ra,2d22c <__rawmemchr>
   12384:	00150513          	addi	a0,a0,1
   12388:	f3843783          	ld	a5,-200(s0)
   1238c:	ed2570e3          	bgeu	a0,s2,1224c <__dcigettext+0x4d8>
   12390:	fff48493          	addi	s1,s1,-1
   12394:	00000593          	li	a1,0
   12398:	ff3492e3          	bne	s1,s3,1237c <__dcigettext+0x608>
   1239c:	00050793          	mv	a5,a0
   123a0:	eadff06f          	j	1224c <__dcigettext+0x4d8>
   123a4:	000a0513          	mv	a0,s4
   123a8:	77c190ef          	jal	ra,2bb24 <strlen>
   123ac:	ee843c03          	ld	s8,-280(s0)
   123b0:	00050493          	mv	s1,a0
   123b4:	00148493          	addi	s1,s1,1
   123b8:	000c0513          	mv	a0,s8
   123bc:	768190ef          	jal	ra,2bb24 <strlen>
   123c0:	ee043b83          	ld	s7,-288(s0)
   123c4:	03ab8713          	addi	a4,s7,58
   123c8:	00a70533          	add	a0,a4,a0
   123cc:	00950533          	add	a0,a0,s1
   123d0:	6bc170ef          	jal	ra,29a8c <__libc_malloc>
   123d4:	f2843783          	ld	a5,-216(s0)
   123d8:	00050913          	mv	s2,a0
   123dc:	e4050ce3          	beqz	a0,12234 <__dcigettext+0x4c0>
   123e0:	00048613          	mv	a2,s1
   123e4:	000a0593          	mv	a1,s4
   123e8:	03850513          	addi	a0,a0,56
   123ec:	0a91a0ef          	jal	ra,2cc94 <memcpy>
   123f0:	00950a33          	add	s4,a0,s1
   123f4:	001b8493          	addi	s1,s7,1
   123f8:	00048613          	mv	a2,s1
   123fc:	00098593          	mv	a1,s3
   12400:	000a0513          	mv	a0,s4
   12404:	0911a0ef          	jal	ra,2cc94 <memcpy>
   12408:	009a04b3          	add	s1,s4,s1
   1240c:	000c0593          	mv	a1,s8
   12410:	00048513          	mv	a0,s1
   12414:	324190ef          	jal	ra,2b738 <strcpy>
   12418:	f4843703          	ld	a4,-184(s0)
   1241c:	a301a683          	lw	a3,-1488(gp) # 84af0 <_nl_msg_cat_cntr>
   12420:	f2843783          	ld	a5,-216(s0)
   12424:	02e93823          	sd	a4,48(s2)
   12428:	01493023          	sd	s4,0(s2)
   1242c:	01592423          	sw	s5,8(s2)
   12430:	00993823          	sd	s1,16(s2)
   12434:	00d92c23          	sw	a3,24(s2)
   12438:	03693023          	sd	s6,32(s2)
   1243c:	02f93423          	sd	a5,40(s2)
   12440:	00000713          	li	a4,0
   12444:	00070a63          	beqz	a4,12458 <__dcigettext+0x6e4>
   12448:	5f018513          	addi	a0,gp,1520 # 856b0 <tree_lock>
   1244c:	00000097          	auipc	ra,0x0
   12450:	000000e7          	jalr	zero # 0 <_nl_current_LC_CTYPE>
   12454:	f2843783          	ld	a5,-216(s0)
   12458:	f2f43423          	sd	a5,-216(s0)
   1245c:	000117b7          	lui	a5,0x11
   12460:	26078613          	addi	a2,a5,608 # 11260 <transcmp>
   12464:	a2018593          	addi	a1,gp,-1504 # 84ae0 <root>
   12468:	00090513          	mv	a0,s2
   1246c:	2b01d0ef          	jal	ra,2f71c <__tsearch>
   12470:	f3043703          	ld	a4,-208(s0)
   12474:	f2843783          	ld	a5,-216(s0)
   12478:	00050493          	mv	s1,a0
   1247c:	00070a63          	beqz	a4,12490 <__dcigettext+0x71c>
   12480:	5f018513          	addi	a0,gp,1520 # 856b0 <tree_lock>
   12484:	00000097          	auipc	ra,0x0
   12488:	000000e7          	jalr	zero # 0 <_nl_current_LC_CTYPE>
   1248c:	f2843783          	ld	a5,-216(s0)
   12490:	00048663          	beqz	s1,1249c <__dcigettext+0x728>
   12494:	0004b703          	ld	a4,0(s1)
   12498:	d9270ee3          	beq	a4,s2,12234 <__dcigettext+0x4c0>
   1249c:	00090513          	mv	a0,s2
   124a0:	f2f43423          	sd	a5,-216(s0)
   124a4:	3fd170ef          	jal	ra,2a0a0 <__free>
   124a8:	f2843783          	ld	a5,-216(s0)
   124ac:	d89ff06f          	j	12234 <__dcigettext+0x4c0>
   124b0:	00050793          	mv	a5,a0
   124b4:	dedff06f          	j	122a0 <__dcigettext+0x52c>

00000000000124b8 <_nl_find_domain>:
   124b8:	f6010113          	addi	sp,sp,-160
   124bc:	09213023          	sd	s2,128(sp)
   124c0:	07313c23          	sd	s3,120(sp)
   124c4:	07413823          	sd	s4,112(sp)
   124c8:	07513423          	sd	s5,104(sp)
   124cc:	08113c23          	sd	ra,152(sp)
   124d0:	08813823          	sd	s0,144(sp)
   124d4:	08913423          	sd	s1,136(sp)
   124d8:	07613023          	sd	s6,96(sp)
   124dc:	05713c23          	sd	s7,88(sp)
   124e0:	05813823          	sd	s8,80(sp)
   124e4:	00000793          	li	a5,0
   124e8:	00050913          	mv	s2,a0
   124ec:	00058993          	mv	s3,a1
   124f0:	00060a93          	mv	s5,a2
   124f4:	00068a13          	mv	s4,a3
   124f8:	00078863          	beqz	a5,12508 <_nl_find_domain+0x50>
   124fc:	62818513          	addi	a0,gp,1576 # 856e8 <lock.0>
   12500:	00000097          	auipc	ra,0x0
   12504:	000000e7          	jalr	zero # 0 <_nl_current_LC_CTYPE>
   12508:	00090513          	mv	a0,s2
   1250c:	618190ef          	jal	ra,2bb24 <strlen>
   12510:	00150613          	addi	a2,a0,1
   12514:	00013823          	sd	zero,16(sp)
   12518:	01513423          	sd	s5,8(sp)
   1251c:	00013023          	sd	zero,0(sp)
   12520:	00000893          	li	a7,0
   12524:	00000813          	li	a6,0
   12528:	00000793          	li	a5,0
   1252c:	00098713          	mv	a4,s3
   12530:	00000693          	li	a3,0
   12534:	00090593          	mv	a1,s2
   12538:	a2818513          	addi	a0,gp,-1496 # 84ae8 <_nl_loaded_domains>
   1253c:	5c1010ef          	jal	ra,142fc <_nl_make_l10nflist>
   12540:	00000413          	li	s0,0
   12544:	00050493          	mv	s1,a0
   12548:	00040863          	beqz	s0,12558 <_nl_find_domain+0xa0>
   1254c:	62818513          	addi	a0,gp,1576 # 856e8 <lock.0>
   12550:	00000097          	auipc	ra,0x0
   12554:	000000e7          	jalr	zero # 0 <_nl_current_LC_CTYPE>
   12558:	08048a63          	beqz	s1,125ec <_nl_find_domain+0x134>
   1255c:	0084a783          	lw	a5,8(s1)
   12560:	06f05e63          	blez	a5,125dc <_nl_find_domain+0x124>
   12564:	0104b783          	ld	a5,16(s1)
   12568:	02078c63          	beqz	a5,125a0 <_nl_find_domain+0xe8>
   1256c:	09813083          	ld	ra,152(sp)
   12570:	09013403          	ld	s0,144(sp)
   12574:	08013903          	ld	s2,128(sp)
   12578:	07813983          	ld	s3,120(sp)
   1257c:	07013a03          	ld	s4,112(sp)
   12580:	06813a83          	ld	s5,104(sp)
   12584:	06013b03          	ld	s6,96(sp)
   12588:	05813b83          	ld	s7,88(sp)
   1258c:	05013c03          	ld	s8,80(sp)
   12590:	00048513          	mv	a0,s1
   12594:	08813483          	ld	s1,136(sp)
   12598:	0a010113          	addi	sp,sp,160
   1259c:	00008067          	ret
   125a0:	0204b503          	ld	a0,32(s1)
   125a4:	fc0504e3          	beqz	a0,1256c <_nl_find_domain+0xb4>
   125a8:	02048413          	addi	s0,s1,32
   125ac:	01c0006f          	j	125c8 <_nl_find_domain+0x110>
   125b0:	00043783          	ld	a5,0(s0)
   125b4:	00840413          	addi	s0,s0,8
   125b8:	0107b783          	ld	a5,16(a5)
   125bc:	fa0798e3          	bnez	a5,1256c <_nl_find_domain+0xb4>
   125c0:	00043503          	ld	a0,0(s0)
   125c4:	fa0504e3          	beqz	a0,1256c <_nl_find_domain+0xb4>
   125c8:	00852783          	lw	a5,8(a0)
   125cc:	fef042e3          	bgtz	a5,125b0 <_nl_find_domain+0xf8>
   125d0:	000a0593          	mv	a1,s4
   125d4:	15c000ef          	jal	ra,12730 <_nl_load_domain>
   125d8:	fd9ff06f          	j	125b0 <_nl_find_domain+0xf8>
   125dc:	000a0593          	mv	a1,s4
   125e0:	00048513          	mv	a0,s1
   125e4:	14c000ef          	jal	ra,12730 <_nl_load_domain>
   125e8:	f7dff06f          	j	12564 <_nl_find_domain+0xac>
   125ec:	00098513          	mv	a0,s3
   125f0:	31d010ef          	jal	ra,1410c <_nl_expand_alias>
   125f4:	00050c13          	mv	s8,a0
   125f8:	02050463          	beqz	a0,12620 <_nl_find_domain+0x168>
   125fc:	528190ef          	jal	ra,2bb24 <strlen>
   12600:	00150b93          	addi	s7,a0,1
   12604:	000b8513          	mv	a0,s7
   12608:	484170ef          	jal	ra,29a8c <__libc_malloc>
   1260c:	00050993          	mv	s3,a0
   12610:	f4050ee3          	beqz	a0,1256c <_nl_find_domain+0xb4>
   12614:	000b8613          	mv	a2,s7
   12618:	000c0593          	mv	a1,s8
   1261c:	6781a0ef          	jal	ra,2cc94 <memcpy>
   12620:	04810793          	addi	a5,sp,72
   12624:	04010713          	addi	a4,sp,64
   12628:	03810693          	addi	a3,sp,56
   1262c:	03010613          	addi	a2,sp,48
   12630:	02810593          	addi	a1,sp,40
   12634:	00098513          	mv	a0,s3
   12638:	338020ef          	jal	ra,14970 <_nl_explode_name>
   1263c:	fff00793          	li	a5,-1
   12640:	00050b93          	mv	s7,a0
   12644:	f2f504e3          	beq	a0,a5,1256c <_nl_find_domain+0xb4>
   12648:	00000793          	li	a5,0
   1264c:	00078863          	beqz	a5,1265c <_nl_find_domain+0x1a4>
   12650:	62818513          	addi	a0,gp,1576 # 856e8 <lock.0>
   12654:	00000097          	auipc	ra,0x0
   12658:	000000e7          	jalr	zero # 0 <_nl_current_LC_CTYPE>
   1265c:	00090513          	mv	a0,s2
   12660:	4c4190ef          	jal	ra,2bb24 <strlen>
   12664:	00100693          	li	a3,1
   12668:	00d13823          	sd	a3,16(sp)
   1266c:	03013683          	ld	a3,48(sp)
   12670:	04813883          	ld	a7,72(sp)
   12674:	04013803          	ld	a6,64(sp)
   12678:	03813783          	ld	a5,56(sp)
   1267c:	02813703          	ld	a4,40(sp)
   12680:	00d13023          	sd	a3,0(sp)
   12684:	00150613          	addi	a2,a0,1
   12688:	01513423          	sd	s5,8(sp)
   1268c:	000b8693          	mv	a3,s7
   12690:	00090593          	mv	a1,s2
   12694:	a2818513          	addi	a0,gp,-1496 # 84ae8 <_nl_loaded_domains>
   12698:	465010ef          	jal	ra,142fc <_nl_make_l10nflist>
   1269c:	00050493          	mv	s1,a0
   126a0:	00040863          	beqz	s0,126b0 <_nl_find_domain+0x1f8>
   126a4:	62818513          	addi	a0,gp,1576 # 856e8 <lock.0>
   126a8:	00000097          	auipc	ra,0x0
   126ac:	000000e7          	jalr	zero # 0 <_nl_current_LC_CTYPE>
   126b0:	02048063          	beqz	s1,126d0 <_nl_find_domain+0x218>
   126b4:	0084a783          	lw	a5,8(s1)
   126b8:	06f05463          	blez	a5,12720 <_nl_find_domain+0x268>
   126bc:	0104b783          	ld	a5,16(s1)
   126c0:	02078263          	beqz	a5,126e4 <_nl_find_domain+0x22c>
   126c4:	000c0663          	beqz	s8,126d0 <_nl_find_domain+0x218>
   126c8:	00098513          	mv	a0,s3
   126cc:	1d5170ef          	jal	ra,2a0a0 <__free>
   126d0:	001bfb93          	andi	s7,s7,1
   126d4:	e80b8ce3          	beqz	s7,1256c <_nl_find_domain+0xb4>
   126d8:	04813503          	ld	a0,72(sp)
   126dc:	1c5170ef          	jal	ra,2a0a0 <__free>
   126e0:	e8dff06f          	j	1256c <_nl_find_domain+0xb4>
   126e4:	0204b503          	ld	a0,32(s1)
   126e8:	fc050ee3          	beqz	a0,126c4 <_nl_find_domain+0x20c>
   126ec:	02048413          	addi	s0,s1,32
   126f0:	01c0006f          	j	1270c <_nl_find_domain+0x254>
   126f4:	00043783          	ld	a5,0(s0)
   126f8:	00840413          	addi	s0,s0,8
   126fc:	0107b783          	ld	a5,16(a5)
   12700:	fc0792e3          	bnez	a5,126c4 <_nl_find_domain+0x20c>
   12704:	00043503          	ld	a0,0(s0)
   12708:	fa050ee3          	beqz	a0,126c4 <_nl_find_domain+0x20c>
   1270c:	00852783          	lw	a5,8(a0)
   12710:	fef042e3          	bgtz	a5,126f4 <_nl_find_domain+0x23c>
   12714:	000a0593          	mv	a1,s4
   12718:	018000ef          	jal	ra,12730 <_nl_load_domain>
   1271c:	fd9ff06f          	j	126f4 <_nl_find_domain+0x23c>
   12720:	000a0593          	mv	a1,s4
   12724:	00048513          	mv	a0,s1
   12728:	008000ef          	jal	ra,12730 <_nl_load_domain>
   1272c:	f91ff06f          	j	126bc <_nl_find_domain+0x204>

0000000000012730 <_nl_load_domain>:
   12730:	e5010113          	addi	sp,sp,-432
   12734:	19313423          	sd	s3,392(sp)
   12738:	17813023          	sd	s8,352(sp)
   1273c:	66018c13          	addi	s8,gp,1632 # 85720 <lock.0>
   12740:	008c3783          	ld	a5,8(s8)
   12744:	1a813023          	sd	s0,416(sp)
   12748:	18913c23          	sd	s1,408(sp)
   1274c:	19213823          	sd	s2,400(sp)
   12750:	1a113423          	sd	ra,424(sp)
   12754:	19413023          	sd	s4,384(sp)
   12758:	17513c23          	sd	s5,376(sp)
   1275c:	17613823          	sd	s6,368(sp)
   12760:	17713423          	sd	s7,360(sp)
   12764:	15913c23          	sd	s9,344(sp)
   12768:	15a13823          	sd	s10,336(sp)
   1276c:	15b13423          	sd	s11,328(sp)
   12770:	8f020493          	addi	s1,tp,-1808 # fffffffffffff8f0 <__BSS_END__+0xfffffffffff798e0>
   12774:	00050413          	mv	s0,a0
   12778:	00058913          	mv	s2,a1
   1277c:	02978263          	beq	a5,s1,127a0 <_nl_load_domain+0x70>
   12780:	00100713          	li	a4,1
   12784:	100c27af          	lr.w	a5,(s8)
   12788:	00079663          	bnez	a5,12794 <_nl_load_domain+0x64>
   1278c:	1cec26af          	sc.w.aq	a3,a4,(s8)
   12790:	fe069ae3          	bnez	a3,12784 <_nl_load_domain+0x54>
   12794:	0007879b          	sext.w	a5,a5
   12798:	48079c63          	bnez	a5,12c30 <_nl_load_domain+0x500>
   1279c:	009c3423          	sd	s1,8(s8)
   127a0:	004c2603          	lw	a2,4(s8)
   127a4:	00842703          	lw	a4,8(s0)
   127a8:	0016069b          	addiw	a3,a2,1
   127ac:	00dc2223          	sw	a3,4(s8)
   127b0:	40071263          	bnez	a4,12bb4 <_nl_load_domain+0x484>
   127b4:	00043503          	ld	a0,0(s0)
   127b8:	fff00b13          	li	s6,-1
   127bc:	01642423          	sw	s6,8(s0)
   127c0:	00043823          	sd	zero,16(s0)
   127c4:	3e050463          	beqz	a0,12bac <_nl_load_domain+0x47c>
   127c8:	00000593          	li	a1,0
   127cc:	0411c0ef          	jal	ra,2f00c <__open64_nocancel>
   127d0:	00050a93          	mv	s5,a0
   127d4:	3d650863          	beq	a0,s6,12ba4 <_nl_load_domain+0x474>
   127d8:	00050593          	mv	a1,a0
   127dc:	0c010613          	addi	a2,sp,192
   127e0:	00000513          	li	a0,0
   127e4:	5911b0ef          	jal	ra,2e574 <__fxstat>
   127e8:	00050b93          	mv	s7,a0
   127ec:	3a051863          	bnez	a0,12b9c <_nl_load_domain+0x46c>
   127f0:	0f013a03          	ld	s4,240(sp)
   127f4:	02f00793          	li	a5,47
   127f8:	3b47f263          	bgeu	a5,s4,12b9c <_nl_load_domain+0x46c>
   127fc:	00000793          	li	a5,0
   12800:	000a8713          	mv	a4,s5
   12804:	00200693          	li	a3,2
   12808:	00100613          	li	a2,1
   1280c:	000a0593          	mv	a1,s4
   12810:	2f91c0ef          	jal	ra,2f308 <__mmap64>
   12814:	00050493          	mv	s1,a0
   12818:	6d650063          	beq	a0,s6,12ed8 <_nl_load_domain+0x7a8>
   1281c:	000a8513          	mv	a0,s5
   12820:	6701c0ef          	jal	ra,2ee90 <__close_nocancel>
   12824:	0004a703          	lw	a4,0(s1)
   12828:	950417b7          	lui	a5,0x95041
   1282c:	2de78793          	addi	a5,a5,734 # ffffffff950412de <__BSS_END__+0xffffffff94fbb2ce>
   12830:	4cf71463          	bne	a4,a5,12cf8 <_nl_load_domain+0x5c8>
   12834:	00100793          	li	a5,1
   12838:	00f13423          	sd	a5,8(sp)
   1283c:	0c800513          	li	a0,200
   12840:	24c170ef          	jal	ra,29a8c <__libc_malloc>
   12844:	00050b13          	mv	s6,a0
   12848:	34050e63          	beqz	a0,12ba4 <_nl_load_domain+0x474>
   1284c:	0044ac83          	lw	s9,4(s1)
   12850:	00813783          	ld	a5,8(sp)
   12854:	01643823          	sd	s6,16(s0)
   12858:	009b3023          	sd	s1,0(s6)
   1285c:	00fb2423          	sw	a5,8(s6)
   12860:	014b3823          	sd	s4,16(s6)
   12864:	000b2c23          	sw	zero,24(s6)
   12868:	020b3023          	sd	zero,32(s6)
   1286c:	410cd693          	srai	a3,s9,0x10
   12870:	00100713          	li	a4,1
   12874:	42d76e63          	bltu	a4,a3,12cb0 <_nl_load_domain+0x580>
   12878:	00c4e683          	lwu	a3,12(s1)
   1287c:	0104e703          	lwu	a4,16(s1)
   12880:	0144a783          	lw	a5,20(s1)
   12884:	0084a603          	lw	a2,8(s1)
   12888:	00e48733          	add	a4,s1,a4
   1288c:	00d486b3          	add	a3,s1,a3
   12890:	02eb3c23          	sd	a4,56(s6)
   12894:	030c9c93          	slli	s9,s9,0x30
   12898:	02f13423          	sd	a5,40(sp)
   1289c:	02cb2423          	sw	a2,40(s6)
   128a0:	02db3823          	sd	a3,48(s6)
   128a4:	04fb2c23          	sw	a5,88(s6)
   128a8:	00200713          	li	a4,2
   128ac:	030cdc93          	srli	s9,s9,0x30
   128b0:	38f77663          	bgeu	a4,a5,12c3c <_nl_load_domain+0x50c>
   128b4:	0184e703          	lwu	a4,24(s1)
   128b8:	060b2423          	sw	zero,104(s6)
   128bc:	00e487b3          	add	a5,s1,a4
   128c0:	04f13823          	sd	a5,80(sp)
   128c4:	06fb3023          	sd	a5,96(s6)
   128c8:	380c8063          	beqz	s9,12c48 <_nl_load_domain+0x518>
   128cc:	0244a783          	lw	a5,36(s1)
   128d0:	04f13023          	sd	a5,64(sp)
   128d4:	36078a63          	beqz	a5,12c48 <_nl_load_domain+0x518>
   128d8:	01c4ac83          	lw	s9,28(s1)
   128dc:	0204ed03          	lwu	s10,32(s1)
   128e0:	95041ab7          	lui	s5,0x95041
   128e4:	2dea8a93          	addi	s5,s5,734 # ffffffff950412de <__BSS_END__+0xffffffff94fbb2ce>
   128e8:	020c9513          	slli	a0,s9,0x20
   128ec:	00800593          	li	a1,8
   128f0:	02055513          	srli	a0,a0,0x20
   128f4:	611170ef          	jal	ra,2a704 <__calloc>
   128f8:	01a48d33          	add	s10,s1,s10
   128fc:	00050b93          	mv	s7,a0
   12900:	3e050863          	beqz	a0,12cf0 <_nl_load_domain+0x5c0>
   12904:	140c8263          	beqz	s9,12a48 <_nl_load_domain+0x318>
   12908:	00085737          	lui	a4,0x85
   1290c:	8c073783          	ld	a5,-1856(a4) # 848c0 <__SDATA_BEGIN__>
   12910:	fffc889b          	addiw	a7,s9,-1
   12914:	02089893          	slli	a7,a7,0x20
   12918:	08f13823          	sd	a5,144(sp)
   1291c:	000627b7          	lui	a5,0x62
   12920:	e6078793          	addi	a5,a5,-416 # 61e60 <_nl_default_default_domain+0x60>
   12924:	0208d893          	srli	a7,a7,0x20
   12928:	008d0713          	addi	a4,s10,8
   1292c:	00389893          	slli	a7,a7,0x3
   12930:	02f13823          	sd	a5,48(sp)
   12934:	000627b7          	lui	a5,0x62
   12938:	e2878793          	addi	a5,a5,-472 # 61e28 <_nl_default_default_domain+0x28>
   1293c:	00e88633          	add	a2,a7,a4
   12940:	00062737          	lui	a4,0x62
   12944:	02f13c23          	sd	a5,56(sp)
   12948:	e4070793          	addi	a5,a4,-448 # 61e40 <_nl_default_default_domain+0x40>
   1294c:	00062737          	lui	a4,0x62
   12950:	04f13423          	sd	a5,72(sp)
   12954:	e3870793          	addi	a5,a4,-456 # 61e38 <_nl_default_default_domain+0x38>
   12958:	00062737          	lui	a4,0x62
   1295c:	04f13c23          	sd	a5,88(sp)
   12960:	e2070793          	addi	a5,a4,-480 # 61e20 <_nl_default_default_domain+0x20>
   12964:	00062737          	lui	a4,0x62
   12968:	06f13023          	sd	a5,96(sp)
   1296c:	e5070793          	addi	a5,a4,-432 # 61e50 <_nl_default_default_domain+0x50>
   12970:	00062737          	lui	a4,0x62
   12974:	06f13423          	sd	a5,104(sp)
   12978:	e4870793          	addi	a5,a4,-440 # 61e48 <_nl_default_default_domain+0x48>
   1297c:	0007d737          	lui	a4,0x7d
   12980:	06f13823          	sd	a5,112(sp)
   12984:	72870793          	addi	a5,a4,1832 # 7d728 <__PRETTY_FUNCTION__.5+0x1a0>
   12988:	00062737          	lui	a4,0x62
   1298c:	06f13c23          	sd	a5,120(sp)
   12990:	e1870793          	addi	a5,a4,-488 # 61e18 <_nl_default_default_domain+0x18>
   12994:	00062737          	lui	a4,0x62
   12998:	95041337          	lui	t1,0x95041
   1299c:	08f13023          	sd	a5,128(sp)
   129a0:	e1070793          	addi	a5,a4,-496 # 61e10 <_nl_default_default_domain+0x10>
   129a4:	00050593          	mv	a1,a0
   129a8:	2de30d93          	addi	s11,t1,734 # ffffffff950412de <__BSS_END__+0xffffffff94fbb2ce>
   129ac:	08f13423          	sd	a5,136(sp)
   129b0:	004d2503          	lw	a0,4(s10)
   129b4:	000d2703          	lw	a4,0(s10)
   129b8:	47ba8063          	beq	s5,s11,12e18 <_nl_load_domain+0x6e8>
   129bc:	02b13023          	sd	a1,32(sp)
   129c0:	00c13c23          	sd	a2,24(sp)
   129c4:	00e13823          	sd	a4,16(sp)
   129c8:	77d490ef          	jal	ra,5c944 <__bswapsi2>
   129cc:	01013703          	ld	a4,16(sp)
   129d0:	02051693          	slli	a3,a0,0x20
   129d4:	0206d693          	srli	a3,a3,0x20
   129d8:	00d486b3          	add	a3,s1,a3
   129dc:	00070513          	mv	a0,a4
   129e0:	00d13823          	sd	a3,16(sp)
   129e4:	761490ef          	jal	ra,5c944 <__bswapsi2>
   129e8:	01013683          	ld	a3,16(sp)
   129ec:	01813603          	ld	a2,24(sp)
   129f0:	02013583          	ld	a1,32(sp)
   129f4:	0005071b          	sext.w	a4,a0
   129f8:	58070863          	beqz	a4,12f88 <_nl_load_domain+0x858>
   129fc:	fff7071b          	addiw	a4,a4,-1
   12a00:	02071713          	slli	a4,a4,0x20
   12a04:	02075713          	srli	a4,a4,0x20
   12a08:	00e68733          	add	a4,a3,a4
   12a0c:	00074703          	lbu	a4,0(a4)
   12a10:	56071c63          	bnez	a4,12f88 <_nl_load_domain+0x858>
   12a14:	0006c703          	lbu	a4,0(a3)
   12a18:	05000513          	li	a0,80
   12a1c:	40a70663          	beq	a4,a0,12e28 <_nl_load_domain+0x6f8>
   12a20:	04900513          	li	a0,73
   12a24:	56a71a63          	bne	a4,a0,12f98 <_nl_load_domain+0x868>
   12a28:	0016c683          	lbu	a3,1(a3)
   12a2c:	00000713          	li	a4,0
   12a30:	00069463          	bnez	a3,12a38 <_nl_load_domain+0x308>
   12a34:	03013703          	ld	a4,48(sp)
   12a38:	00e5b023          	sd	a4,0(a1)
   12a3c:	008d0d13          	addi	s10,s10,8
   12a40:	00858593          	addi	a1,a1,8
   12a44:	f7a616e3          	bne	a2,s10,129b0 <_nl_load_domain+0x280>
   12a48:	95041737          	lui	a4,0x95041
   12a4c:	2de70713          	addi	a4,a4,734 # ffffffff950412de <__BSS_END__+0xffffffff94fbb2ce>
   12a50:	0284a503          	lw	a0,40(s1)
   12a54:	02c4ad83          	lw	s11,44(s1)
   12a58:	5eea8c63          	beq	s5,a4,13050 <_nl_load_domain+0x920>
   12a5c:	6e9490ef          	jal	ra,5c944 <__bswapsi2>
   12a60:	02051d13          	slli	s10,a0,0x20
   12a64:	000d8513          	mv	a0,s11
   12a68:	6dd490ef          	jal	ra,5c944 <__bswapsi2>
   12a6c:	020d5d13          	srli	s10,s10,0x20
   12a70:	02051d93          	slli	s11,a0,0x20
   12a74:	01a48d33          	add	s10,s1,s10
   12a78:	020ddd93          	srli	s11,s11,0x20
   12a7c:	02816703          	lwu	a4,40(sp)
   12a80:	07a13823          	sd	s10,112(sp)
   12a84:	03a13c23          	sd	s10,56(sp)
   12a88:	00271793          	slli	a5,a4,0x2
   12a8c:	95041d37          	lui	s10,0x95041
   12a90:	01b48733          	add	a4,s1,s11
   12a94:	06f13c23          	sd	a5,120(sp)
   12a98:	06f13023          	sd	a5,96(sp)
   12a9c:	2ded0793          	addi	a5,s10,734 # ffffffff950412de <__BSS_END__+0xffffffff94fbb2ce>
   12aa0:	06e13423          	sd	a4,104(sp)
   12aa4:	02e13823          	sd	a4,48(sp)
   12aa8:	04013423          	sd	zero,72(sp)
   12aac:	04013c23          	sd	zero,88(sp)
   12ab0:	00f13823          	sd	a5,16(sp)
   12ab4:	00013c23          	sd	zero,24(sp)
   12ab8:	01013783          	ld	a5,16(sp)
   12abc:	48fa8e63          	beq	s5,a5,12f58 <_nl_load_domain+0x828>
   12ac0:	01813783          	ld	a5,24(sp)
   12ac4:	56078263          	beqz	a5,13028 <_nl_load_domain+0x8f8>
   12ac8:	03013783          	ld	a5,48(sp)
   12acc:	0007a503          	lw	a0,0(a5)
   12ad0:	675490ef          	jal	ra,5c944 <__bswapsi2>
   12ad4:	02051613          	slli	a2,a0,0x20
   12ad8:	02065613          	srli	a2,a2,0x20
   12adc:	00c48d33          	add	s10,s1,a2
   12ae0:	008d2503          	lw	a0,8(s10)
   12ae4:	661490ef          	jal	ra,5c944 <__bswapsi2>
   12ae8:	0005071b          	sext.w	a4,a0
   12aec:	00170713          	addi	a4,a4,1
   12af0:	00e03733          	snez	a4,a4
   12af4:	4a071663          	bnez	a4,12fa0 <_nl_load_domain+0x870>
   12af8:	00000d13          	li	s10,0
   12afc:	01813783          	ld	a5,24(sp)
   12b00:	0b010693          	addi	a3,sp,176
   12b04:	00379713          	slli	a4,a5,0x3
   12b08:	00e68733          	add	a4,a3,a4
   12b0c:	01a73023          	sd	s10,0(a4)
   12b10:	00100713          	li	a4,1
   12b14:	46e79463          	bne	a5,a4,12f7c <_nl_load_domain+0x84c>
   12b18:	05813783          	ld	a5,88(sp)
   12b1c:	0b013703          	ld	a4,176(sp)
   12b20:	0b813683          	ld	a3,184(sp)
   12b24:	0017879b          	addiw	a5,a5,1
   12b28:	04f13c23          	sd	a5,88(sp)
   12b2c:	06013783          	ld	a5,96(sp)
   12b30:	00d70733          	add	a4,a4,a3
   12b34:	00e787b3          	add	a5,a5,a4
   12b38:	06f13023          	sd	a5,96(sp)
   12b3c:	03813703          	ld	a4,56(sp)
   12b40:	04813783          	ld	a5,72(sp)
   12b44:	00470713          	addi	a4,a4,4
   12b48:	02e13c23          	sd	a4,56(sp)
   12b4c:	03013703          	ld	a4,48(sp)
   12b50:	0017879b          	addiw	a5,a5,1
   12b54:	04f13423          	sd	a5,72(sp)
   12b58:	00470713          	addi	a4,a4,4
   12b5c:	02e13823          	sd	a4,48(sp)
   12b60:	04013703          	ld	a4,64(sp)
   12b64:	f4e7e8e3          	bltu	a5,a4,12ab4 <_nl_load_domain+0x384>
   12b68:	05813783          	ld	a5,88(sp)
   12b6c:	7e079863          	bnez	a5,1335c <_nl_load_domain+0xc2c>
   12b70:	040b2023          	sw	zero,64(s6)
   12b74:	040b3423          	sd	zero,72(s6)
   12b78:	040b3823          	sd	zero,80(s6)
   12b7c:	000b8513          	mv	a0,s7
   12b80:	520170ef          	jal	ra,2a0a0 <__free>
   12b84:	0d00006f          	j	12c54 <_nl_load_domain+0x524>
   12b88:	01651a63          	bne	a0,s6,12b9c <_nl_load_domain+0x46c>
   12b8c:	004c87b3          	add	a5,s9,tp
   12b90:	0007a783          	lw	a5,0(a5)
   12b94:	00400713          	li	a4,4
   12b98:	36e78263          	beq	a5,a4,12efc <_nl_load_domain+0x7cc>
   12b9c:	000a8513          	mv	a0,s5
   12ba0:	2f01c0ef          	jal	ra,2ee90 <__close_nocancel>
   12ba4:	004c2783          	lw	a5,4(s8)
   12ba8:	fff7861b          	addiw	a2,a5,-1
   12bac:	00100713          	li	a4,1
   12bb0:	00e42423          	sw	a4,8(s0)
   12bb4:	00cc2223          	sw	a2,4(s8)
   12bb8:	04060063          	beqz	a2,12bf8 <_nl_load_domain+0x4c8>
   12bbc:	1a813083          	ld	ra,424(sp)
   12bc0:	1a013403          	ld	s0,416(sp)
   12bc4:	19813483          	ld	s1,408(sp)
   12bc8:	19013903          	ld	s2,400(sp)
   12bcc:	18813983          	ld	s3,392(sp)
   12bd0:	18013a03          	ld	s4,384(sp)
   12bd4:	17813a83          	ld	s5,376(sp)
   12bd8:	17013b03          	ld	s6,368(sp)
   12bdc:	16813b83          	ld	s7,360(sp)
   12be0:	16013c03          	ld	s8,352(sp)
   12be4:	15813c83          	ld	s9,344(sp)
   12be8:	15013d03          	ld	s10,336(sp)
   12bec:	14813d83          	ld	s11,328(sp)
   12bf0:	1b010113          	addi	sp,sp,432
   12bf4:	00008067          	ret
   12bf8:	000c3423          	sd	zero,8(s8)
   12bfc:	00060793          	mv	a5,a2
   12c00:	0f50000f          	fence	iorw,ow
   12c04:	08fc27af          	amoswap.w	a5,a5,(s8)
   12c08:	0007879b          	sext.w	a5,a5
   12c0c:	00100713          	li	a4,1
   12c10:	faf756e3          	bge	a4,a5,12bbc <_nl_load_domain+0x48c>
   12c14:	06200893          	li	a7,98
   12c18:	66018513          	addi	a0,gp,1632 # 85720 <lock.0>
   12c1c:	08100593          	li	a1,129
   12c20:	00100613          	li	a2,1
   12c24:	00000693          	li	a3,0
   12c28:	00000073          	ecall
   12c2c:	f91ff06f          	j	12bbc <_nl_load_domain+0x48c>
   12c30:	66018513          	addi	a0,gp,1632 # 85720 <lock.0>
   12c34:	005120ef          	jal	ra,25438 <__lll_lock_wait_private>
   12c38:	b65ff06f          	j	1279c <_nl_load_domain+0x6c>
   12c3c:	060b3023          	sd	zero,96(s6)
   12c40:	077b2423          	sw	s7,104(s6)
   12c44:	0a0c9663          	bnez	s9,12cf0 <_nl_load_domain+0x5c0>
   12c48:	040b2023          	sw	zero,64(s6)
   12c4c:	040b3423          	sd	zero,72(s6)
   12c50:	040b3823          	sd	zero,80(s6)
   12c54:	060b3823          	sd	zero,112(s6)
   12c58:	060b3c23          	sd	zero,120(s6)
   12c5c:	00000713          	li	a4,0
   12c60:	00070a63          	beqz	a4,12c74 <_nl_load_domain+0x544>
   12c64:	00000593          	li	a1,0
   12c68:	080b0513          	addi	a0,s6,128
   12c6c:	00000097          	auipc	ra,0x0
   12c70:	000000e7          	jalr	zero # 0 <_nl_current_LC_CTYPE>
   12c74:	00077637          	lui	a2,0x77
   12c78:	0b010713          	addi	a4,sp,176
   12c7c:	00000693          	li	a3,0
   12c80:	23860613          	addi	a2,a2,568 # 77238 <expected2.3+0x8>
   12c84:	00090593          	mv	a1,s2
   12c88:	00040513          	mv	a0,s0
   12c8c:	e5cfe0ef          	jal	ra,112e8 <_nl_find_msg>
   12c90:	fff00713          	li	a4,-1
   12c94:	3ae50063          	beq	a0,a4,13034 <_nl_load_domain+0x904>
   12c98:	0c0b0613          	addi	a2,s6,192
   12c9c:	0b8b0593          	addi	a1,s6,184
   12ca0:	77c020ef          	jal	ra,1541c <__gettext_extract_plural>
   12ca4:	004c2783          	lw	a5,4(s8)
   12ca8:	fff7861b          	addiw	a2,a5,-1
   12cac:	f01ff06f          	j	12bac <_nl_load_domain+0x47c>
   12cb0:	00000513          	li	a0,0
   12cb4:	3ec170ef          	jal	ra,2a0a0 <__free>
   12cb8:	00813783          	ld	a5,8(sp)
   12cbc:	02078463          	beqz	a5,12ce4 <_nl_load_domain+0x5b4>
   12cc0:	000a0593          	mv	a1,s4
   12cc4:	00048513          	mv	a0,s1
   12cc8:	6941c0ef          	jal	ra,2f35c <__munmap>
   12ccc:	000b0513          	mv	a0,s6
   12cd0:	3d0170ef          	jal	ra,2a0a0 <__free>
   12cd4:	004c2783          	lw	a5,4(s8)
   12cd8:	00043823          	sd	zero,16(s0)
   12cdc:	fff7861b          	addiw	a2,a5,-1
   12ce0:	ecdff06f          	j	12bac <_nl_load_domain+0x47c>
   12ce4:	00048513          	mv	a0,s1
   12ce8:	3b8170ef          	jal	ra,2a0a0 <__free>
   12cec:	fe1ff06f          	j	12ccc <_nl_load_domain+0x59c>
   12cf0:	020b3503          	ld	a0,32(s6)
   12cf4:	fc1ff06f          	j	12cb4 <_nl_load_domain+0x584>
   12cf8:	de1207b7          	lui	a5,0xde120
   12cfc:	00100693          	li	a3,1
   12d00:	49578793          	addi	a5,a5,1173 # ffffffffde120495 <__BSS_END__+0xffffffffde09a485>
   12d04:	00d13423          	sd	a3,8(sp)
   12d08:	2ef71ae3          	bne	a4,a5,137fc <_nl_load_domain+0x10cc>
   12d0c:	0c800513          	li	a0,200
   12d10:	57d160ef          	jal	ra,29a8c <__libc_malloc>
   12d14:	00050b13          	mv	s6,a0
   12d18:	e80506e3          	beqz	a0,12ba4 <_nl_load_domain+0x474>
   12d1c:	00813783          	ld	a5,8(sp)
   12d20:	0044a503          	lw	a0,4(s1)
   12d24:	00100a93          	li	s5,1
   12d28:	01643823          	sd	s6,16(s0)
   12d2c:	009b3023          	sd	s1,0(s6)
   12d30:	00fb2423          	sw	a5,8(s6)
   12d34:	014b3823          	sd	s4,16(s6)
   12d38:	015b2c23          	sw	s5,24(s6)
   12d3c:	020b3023          	sd	zero,32(s6)
   12d40:	405490ef          	jal	ra,5c944 <__bswapsi2>
   12d44:	4105571b          	sraiw	a4,a0,0x10
   12d48:	00050c9b          	sext.w	s9,a0
   12d4c:	f6eae2e3          	bltu	s5,a4,12cb0 <_nl_load_domain+0x580>
   12d50:	0084a503          	lw	a0,8(s1)
   12d54:	030c9c93          	slli	s9,s9,0x30
   12d58:	030cdc93          	srli	s9,s9,0x30
   12d5c:	3e9490ef          	jal	ra,5c944 <__bswapsi2>
   12d60:	00050713          	mv	a4,a0
   12d64:	00c4a503          	lw	a0,12(s1)
   12d68:	02eb2423          	sw	a4,40(s6)
   12d6c:	00100b93          	li	s7,1
   12d70:	3d5490ef          	jal	ra,5c944 <__bswapsi2>
   12d74:	02051713          	slli	a4,a0,0x20
   12d78:	02075713          	srli	a4,a4,0x20
   12d7c:	0104a503          	lw	a0,16(s1)
   12d80:	00e48733          	add	a4,s1,a4
   12d84:	02eb3823          	sd	a4,48(s6)
   12d88:	3bd490ef          	jal	ra,5c944 <__bswapsi2>
   12d8c:	02051713          	slli	a4,a0,0x20
   12d90:	02075713          	srli	a4,a4,0x20
   12d94:	0144a503          	lw	a0,20(s1)
   12d98:	00e48733          	add	a4,s1,a4
   12d9c:	02eb3c23          	sd	a4,56(s6)
   12da0:	3a5490ef          	jal	ra,5c944 <__bswapsi2>
   12da4:	0005079b          	sext.w	a5,a0
   12da8:	02f13423          	sd	a5,40(sp)
   12dac:	04ab2c23          	sw	a0,88(s6)
   12db0:	00200713          	li	a4,2
   12db4:	e8f774e3          	bgeu	a4,a5,12c3c <_nl_load_domain+0x50c>
   12db8:	0184a503          	lw	a0,24(s1)
   12dbc:	389490ef          	jal	ra,5c944 <__bswapsi2>
   12dc0:	02051513          	slli	a0,a0,0x20
   12dc4:	02055513          	srli	a0,a0,0x20
   12dc8:	00a487b3          	add	a5,s1,a0
   12dcc:	04f13823          	sd	a5,80(sp)
   12dd0:	06fb3023          	sd	a5,96(s6)
   12dd4:	075b2423          	sw	s5,104(s6)
   12dd8:	e60c88e3          	beqz	s9,12c48 <_nl_load_domain+0x518>
   12ddc:	0244a503          	lw	a0,36(s1)
   12de0:	365490ef          	jal	ra,5c944 <__bswapsi2>
   12de4:	0005079b          	sext.w	a5,a0
   12de8:	04f13023          	sd	a5,64(sp)
   12dec:	e4078ee3          	beqz	a5,12c48 <_nl_load_domain+0x518>
   12df0:	01c4a503          	lw	a0,28(s1)
   12df4:	de120ab7          	lui	s5,0xde120
   12df8:	495a8a93          	addi	s5,s5,1173 # ffffffffde120495 <__BSS_END__+0xffffffffde09a485>
   12dfc:	349490ef          	jal	ra,5c944 <__bswapsi2>
   12e00:	00050c9b          	sext.w	s9,a0
   12e04:	0204a503          	lw	a0,32(s1)
   12e08:	33d490ef          	jal	ra,5c944 <__bswapsi2>
   12e0c:	02051d13          	slli	s10,a0,0x20
   12e10:	020d5d13          	srli	s10,s10,0x20
   12e14:	ad5ff06f          	j	128e8 <_nl_load_domain+0x1b8>
   12e18:	02051513          	slli	a0,a0,0x20
   12e1c:	02055513          	srli	a0,a0,0x20
   12e20:	00a486b3          	add	a3,s1,a0
   12e24:	bd5ff06f          	j	129f8 <_nl_load_domain+0x2c8>
   12e28:	0016ce03          	lbu	t3,1(a3)
   12e2c:	05200513          	li	a0,82
   12e30:	00000713          	li	a4,0
   12e34:	c0ae12e3          	bne	t3,a0,12a38 <_nl_load_domain+0x308>
   12e38:	0026ce03          	lbu	t3,2(a3)
   12e3c:	04900513          	li	a0,73
   12e40:	beae1ce3          	bne	t3,a0,12a38 <_nl_load_domain+0x308>
   12e44:	0036c503          	lbu	a0,3(a3)
   12e48:	02000e93          	li	t4,32
   12e4c:	fa850e1b          	addiw	t3,a0,-88
   12e50:	0ffe7e13          	andi	t3,t3,255
   12e54:	bfcee2e3          	bltu	t4,t3,12a38 <_nl_load_domain+0x308>
   12e58:	09013783          	ld	a5,144(sp)
   12e5c:	01c7de33          	srl	t3,a5,t3
   12e60:	001e7e13          	andi	t3,t3,1
   12e64:	bc0e0ae3          	beqz	t3,12a38 <_nl_load_domain+0x308>
   12e68:	0046ce03          	lbu	t3,4(a3)
   12e6c:	03800e93          	li	t4,56
   12e70:	3fde0a63          	beq	t3,t4,13264 <_nl_load_domain+0xb34>
   12e74:	03100e93          	li	t4,49
   12e78:	43de0863          	beq	t3,t4,132a8 <_nl_load_domain+0xb78>
   12e7c:	03300713          	li	a4,51
   12e80:	1eee1463          	bne	t3,a4,13068 <_nl_load_domain+0x938>
   12e84:	0056ce83          	lbu	t4,5(a3)
   12e88:	03200e13          	li	t3,50
   12e8c:	00000713          	li	a4,0
   12e90:	bbce94e3          	bne	t4,t3,12a38 <_nl_load_domain+0x308>
   12e94:	0066c683          	lbu	a3,6(a3)
   12e98:	ba0690e3          	bnez	a3,12a38 <_nl_load_domain+0x308>
   12e9c:	06400713          	li	a4,100
   12ea0:	1ee508e3          	beq	a0,a4,13890 <_nl_load_domain+0x1160>
   12ea4:	06900713          	li	a4,105
   12ea8:	1ce50ce3          	beq	a0,a4,13880 <_nl_load_domain+0x1150>
   12eac:	06f00713          	li	a4,111
   12eb0:	1ce504e3          	beq	a0,a4,13878 <_nl_load_domain+0x1148>
   12eb4:	07500713          	li	a4,117
   12eb8:	24e50ee3          	beq	a0,a4,13914 <_nl_load_domain+0x11e4>
   12ebc:	07800713          	li	a4,120
   12ec0:	1ae506e3          	beq	a0,a4,1386c <_nl_load_domain+0x113c>
   12ec4:	05800713          	li	a4,88
   12ec8:	5ee512e3          	bne	a0,a4,13cac <_nl_load_domain+0x157c>
   12ecc:	00062737          	lui	a4,0x62
   12ed0:	48070713          	addi	a4,a4,1152 # 62480 <__PRETTY_FUNCTION__.1+0xe8>
   12ed4:	b65ff06f          	j	12a38 <_nl_load_domain+0x308>
   12ed8:	000a0513          	mv	a0,s4
   12edc:	3b1160ef          	jal	ra,29a8c <__libc_malloc>
   12ee0:	00050493          	mv	s1,a0
   12ee4:	ca050ce3          	beqz	a0,12b9c <_nl_load_domain+0x46c>
   12ee8:	00072c97          	auipc	s9,0x72
   12eec:	978cbc83          	ld	s9,-1672(s9) # 84860 <_GLOBAL_OFFSET_TABLE_+0x60>
   12ef0:	00050d93          	mv	s11,a0
   12ef4:	000a0d13          	mv	s10,s4
   12ef8:	fff00b13          	li	s6,-1
   12efc:	000d0613          	mv	a2,s10
   12f00:	000d8593          	mv	a1,s11
   12f04:	000a8513          	mv	a0,s5
   12f08:	2381c0ef          	jal	ra,2f140 <__read_nocancel>
   12f0c:	c6a05ee3          	blez	a0,12b88 <_nl_load_domain+0x458>
   12f10:	40ad0d33          	sub	s10,s10,a0
   12f14:	00ad8db3          	add	s11,s11,a0
   12f18:	fe0d12e3          	bnez	s10,12efc <_nl_load_domain+0x7cc>
   12f1c:	000a8513          	mv	a0,s5
   12f20:	7711b0ef          	jal	ra,2ee90 <__close_nocancel>
   12f24:	0004a703          	lw	a4,0(s1)
   12f28:	950417b7          	lui	a5,0x95041
   12f2c:	2de78793          	addi	a5,a5,734 # ffffffff950412de <__BSS_END__+0xffffffff94fbb2ce>
   12f30:	00013423          	sd	zero,8(sp)
   12f34:	90f704e3          	beq	a4,a5,1283c <_nl_load_domain+0x10c>
   12f38:	de1207b7          	lui	a5,0xde120
   12f3c:	49578793          	addi	a5,a5,1173 # ffffffffde120495 <__BSS_END__+0xffffffffde09a485>
   12f40:	dcf706e3          	beq	a4,a5,12d0c <_nl_load_domain+0x5dc>
   12f44:	00048513          	mv	a0,s1
   12f48:	158170ef          	jal	ra,2a0a0 <__free>
   12f4c:	004c2783          	lw	a5,4(s8)
   12f50:	fff7861b          	addiw	a2,a5,-1
   12f54:	c59ff06f          	j	12bac <_nl_load_domain+0x47c>
   12f58:	01813783          	ld	a5,24(sp)
   12f5c:	0c078063          	beqz	a5,1301c <_nl_load_domain+0x8ec>
   12f60:	03013783          	ld	a5,48(sp)
   12f64:	0007e603          	lwu	a2,0(a5)
   12f68:	00c48d33          	add	s10,s1,a2
   12f6c:	008d2703          	lw	a4,8(s10)
   12f70:	00170713          	addi	a4,a4,1
   12f74:	00e03733          	snez	a4,a4
   12f78:	b7dff06f          	j	12af4 <_nl_load_domain+0x3c4>
   12f7c:	00100793          	li	a5,1
   12f80:	00f13c23          	sd	a5,24(sp)
   12f84:	b35ff06f          	j	12ab8 <_nl_load_domain+0x388>
   12f88:	000b8513          	mv	a0,s7
   12f8c:	114170ef          	jal	ra,2a0a0 <__free>
   12f90:	020b3503          	ld	a0,32(s6)
   12f94:	d21ff06f          	j	12cb4 <_nl_load_domain+0x584>
   12f98:	00000713          	li	a4,0
   12f9c:	a9dff06f          	j	12a38 <_nl_load_domain+0x308>
   12fa0:	004d0d93          	addi	s11,s10,4
   12fa4:	00000d13          	li	s10,0
   12fa8:	0540006f          	j	12ffc <_nl_load_domain+0x8cc>
   12fac:	02e13023          	sd	a4,32(sp)
   12fb0:	195490ef          	jal	ra,5c944 <__bswapsi2>
   12fb4:	02013703          	ld	a4,32(sp)
   12fb8:	02051593          	slli	a1,a0,0x20
   12fbc:	0205d593          	srli	a1,a1,0x20
   12fc0:	00070513          	mv	a0,a4
   12fc4:	01a58d33          	add	s10,a1,s10
   12fc8:	17d490ef          	jal	ra,5c944 <__bswapsi2>
   12fcc:	0005071b          	sext.w	a4,a0
   12fd0:	fff00793          	li	a5,-1
   12fd4:	b2f704e3          	beq	a4,a5,12afc <_nl_load_domain+0x3cc>
   12fd8:	fb9778e3          	bgeu	a4,s9,12f88 <_nl_load_domain+0x858>
   12fdc:	02071713          	slli	a4,a4,0x20
   12fe0:	01d75713          	srli	a4,a4,0x1d
   12fe4:	00eb8733          	add	a4,s7,a4
   12fe8:	00073503          	ld	a0,0(a4)
   12fec:	b40508e3          	beqz	a0,12b3c <_nl_load_domain+0x40c>
   12ff0:	335180ef          	jal	ra,2bb24 <strlen>
   12ff4:	01a50d33          	add	s10,a0,s10
   12ff8:	008d8d93          	addi	s11,s11,8
   12ffc:	01013783          	ld	a5,16(sp)
   13000:	000da503          	lw	a0,0(s11)
   13004:	004da703          	lw	a4,4(s11)
   13008:	fafa92e3          	bne	s5,a5,12fac <_nl_load_domain+0x87c>
   1300c:	02051513          	slli	a0,a0,0x20
   13010:	02055513          	srli	a0,a0,0x20
   13014:	01a50d33          	add	s10,a0,s10
   13018:	fb9ff06f          	j	12fd0 <_nl_load_domain+0x8a0>
   1301c:	03813783          	ld	a5,56(sp)
   13020:	0007e603          	lwu	a2,0(a5)
   13024:	f45ff06f          	j	12f68 <_nl_load_domain+0x838>
   13028:	03813783          	ld	a5,56(sp)
   1302c:	0007a503          	lw	a0,0(a5)
   13030:	aa1ff06f          	j	12ad0 <_nl_load_domain+0x3a0>
   13034:	00000713          	li	a4,0
   13038:	ca070ce3          	beqz	a4,12cf0 <_nl_load_domain+0x5c0>
   1303c:	080b0513          	addi	a0,s6,128
   13040:	00000097          	auipc	ra,0x0
   13044:	000000e7          	jalr	zero # 0 <_nl_current_LC_CTYPE>
   13048:	020b3503          	ld	a0,32(s6)
   1304c:	c69ff06f          	j	12cb4 <_nl_load_domain+0x584>
   13050:	02051513          	slli	a0,a0,0x20
   13054:	02055513          	srli	a0,a0,0x20
   13058:	020d9d93          	slli	s11,s11,0x20
   1305c:	00a48d33          	add	s10,s1,a0
   13060:	020ddd93          	srli	s11,s11,0x20
   13064:	a19ff06f          	j	12a7c <_nl_load_domain+0x34c>
   13068:	03600e93          	li	t4,54
   1306c:	05de1a63          	bne	t3,t4,130c0 <_nl_load_domain+0x990>
   13070:	0056ce83          	lbu	t4,5(a3)
   13074:	03400e13          	li	t3,52
   13078:	00000713          	li	a4,0
   1307c:	9bce9ee3          	bne	t4,t3,12a38 <_nl_load_domain+0x308>
   13080:	0066c683          	lbu	a3,6(a3)
   13084:	9a069ae3          	bnez	a3,12a38 <_nl_load_domain+0x308>
   13088:	06400713          	li	a4,100
   1308c:	00e50ee3          	beq	a0,a4,138a8 <_nl_load_domain+0x1178>
   13090:	06900713          	li	a4,105
   13094:	00e506e3          	beq	a0,a4,138a0 <_nl_load_domain+0x1170>
   13098:	06f00713          	li	a4,111
   1309c:	7ee50e63          	beq	a0,a4,13898 <_nl_load_domain+0x1168>
   130a0:	07500713          	li	a4,117
   130a4:	02e50ee3          	beq	a0,a4,138e0 <_nl_load_domain+0x11b0>
   130a8:	07800713          	li	a4,120
   130ac:	7ce50e63          	beq	a0,a4,13888 <_nl_load_domain+0x1158>
   130b0:	05800713          	li	a4,88
   130b4:	3ee51ce3          	bne	a0,a4,13cac <_nl_load_domain+0x157c>
   130b8:	07013703          	ld	a4,112(sp)
   130bc:	97dff06f          	j	12a38 <_nl_load_domain+0x308>
   130c0:	04c00713          	li	a4,76
   130c4:	0aee1263          	bne	t3,a4,13168 <_nl_load_domain+0xa38>
   130c8:	0056cf03          	lbu	t5,5(a3)
   130cc:	04500e13          	li	t3,69
   130d0:	00000713          	li	a4,0
   130d4:	97cf12e3          	bne	t5,t3,12a38 <_nl_load_domain+0x308>
   130d8:	0066cf03          	lbu	t5,6(a3)
   130dc:	04100e13          	li	t3,65
   130e0:	95cf1ce3          	bne	t5,t3,12a38 <_nl_load_domain+0x308>
   130e4:	0076cf03          	lbu	t5,7(a3)
   130e8:	05300e13          	li	t3,83
   130ec:	95cf16e3          	bne	t5,t3,12a38 <_nl_load_domain+0x308>
   130f0:	0086cf03          	lbu	t5,8(a3)
   130f4:	05400e13          	li	t3,84
   130f8:	95cf10e3          	bne	t5,t3,12a38 <_nl_load_domain+0x308>
   130fc:	0096ce03          	lbu	t3,9(a3)
   13100:	03800f13          	li	t5,56
   13104:	2dee08e3          	beq	t3,t5,13bd4 <_nl_load_domain+0x14a4>
   13108:	03100f13          	li	t5,49
   1310c:	27ee0ce3          	beq	t3,t5,13b84 <_nl_load_domain+0x1454>
   13110:	03300f13          	li	t5,51
   13114:	21ee18e3          	bne	t3,t5,13b24 <_nl_load_domain+0x13f4>
   13118:	00a6ce83          	lbu	t4,10(a3)
   1311c:	03200e13          	li	t3,50
   13120:	91ce9ce3          	bne	t4,t3,12a38 <_nl_load_domain+0x308>
   13124:	00b6c703          	lbu	a4,11(a3)
   13128:	1e071ae3          	bnez	a4,13b1c <_nl_load_domain+0x13ec>
   1312c:	06400713          	li	a4,100
   13130:	1ee502e3          	beq	a0,a4,13b14 <_nl_load_domain+0x13e4>
   13134:	06900713          	li	a4,105
   13138:	1ce50ae3          	beq	a0,a4,13b0c <_nl_load_domain+0x13dc>
   1313c:	06f00713          	li	a4,111
   13140:	1ce502e3          	beq	a0,a4,13b04 <_nl_load_domain+0x13d4>
   13144:	07500713          	li	a4,117
   13148:	1ae508e3          	beq	a0,a4,13af8 <_nl_load_domain+0x13c8>
   1314c:	07800713          	li	a4,120
   13150:	7ae50463          	beq	a0,a4,138f8 <_nl_load_domain+0x11c8>
   13154:	05800713          	li	a4,88
   13158:	34e51ae3          	bne	a0,a4,13cac <_nl_load_domain+0x157c>
   1315c:	00062737          	lui	a4,0x62
   13160:	48070713          	addi	a4,a4,1152 # 62480 <__PRETTY_FUNCTION__.1+0xe8>
   13164:	8d5ff06f          	j	12a38 <_nl_load_domain+0x308>
   13168:	04600713          	li	a4,70
   1316c:	08ee1a63          	bne	t3,a4,13200 <_nl_load_domain+0xad0>
   13170:	0056cf03          	lbu	t5,5(a3)
   13174:	04100e13          	li	t3,65
   13178:	00000713          	li	a4,0
   1317c:	8bcf1ee3          	bne	t5,t3,12a38 <_nl_load_domain+0x308>
   13180:	0066cf03          	lbu	t5,6(a3)
   13184:	05300e13          	li	t3,83
   13188:	8bcf18e3          	bne	t5,t3,12a38 <_nl_load_domain+0x308>
   1318c:	0076cf03          	lbu	t5,7(a3)
   13190:	05400e13          	li	t3,84
   13194:	8bcf12e3          	bne	t5,t3,12a38 <_nl_load_domain+0x308>
   13198:	0086ce03          	lbu	t3,8(a3)
   1319c:	03800f13          	li	t5,56
   131a0:	05ee04e3          	beq	t3,t5,139e8 <_nl_load_domain+0x12b8>
   131a4:	03100f13          	li	t5,49
   131a8:	7fee0a63          	beq	t3,t5,1399c <_nl_load_domain+0x126c>
   131ac:	03300f13          	li	t5,51
   131b0:	79ee1c63          	bne	t3,t5,13948 <_nl_load_domain+0x1218>
   131b4:	0096ce83          	lbu	t4,9(a3)
   131b8:	03200e13          	li	t3,50
   131bc:	87ce9ee3          	bne	t4,t3,12a38 <_nl_load_domain+0x308>
   131c0:	00a6c703          	lbu	a4,10(a3)
   131c4:	76071e63          	bnez	a4,13940 <_nl_load_domain+0x1210>
   131c8:	06400713          	li	a4,100
   131cc:	76e50663          	beq	a0,a4,13938 <_nl_load_domain+0x1208>
   131d0:	06900713          	li	a4,105
   131d4:	74e50e63          	beq	a0,a4,13930 <_nl_load_domain+0x1200>
   131d8:	06f00713          	li	a4,111
   131dc:	74e50663          	beq	a0,a4,13928 <_nl_load_domain+0x11f8>
   131e0:	07500713          	li	a4,117
   131e4:	72e50e63          	beq	a0,a4,13920 <_nl_load_domain+0x11f0>
   131e8:	07800713          	li	a4,120
   131ec:	72e50063          	beq	a0,a4,1390c <_nl_load_domain+0x11dc>
   131f0:	05800713          	li	a4,88
   131f4:	2ae51ce3          	bne	a0,a4,13cac <_nl_load_domain+0x157c>
   131f8:	07013703          	ld	a4,112(sp)
   131fc:	83dff06f          	j	12a38 <_nl_load_domain+0x308>
   13200:	04d00713          	li	a4,77
   13204:	0eee1a63          	bne	t3,a4,132f8 <_nl_load_domain+0xbc8>
   13208:	0056ce83          	lbu	t4,5(a3)
   1320c:	04100e13          	li	t3,65
   13210:	00000713          	li	a4,0
   13214:	83ce92e3          	bne	t4,t3,12a38 <_nl_load_domain+0x308>
   13218:	0066ce83          	lbu	t4,6(a3)
   1321c:	05800e13          	li	t3,88
   13220:	81ce9ce3          	bne	t4,t3,12a38 <_nl_load_domain+0x308>
   13224:	0076c683          	lbu	a3,7(a3)
   13228:	800698e3          	bnez	a3,12a38 <_nl_load_domain+0x308>
   1322c:	06400713          	li	a4,100
   13230:	6ce50a63          	beq	a0,a4,13904 <_nl_load_domain+0x11d4>
   13234:	06900713          	li	a4,105
   13238:	6ae50c63          	beq	a0,a4,138f0 <_nl_load_domain+0x11c0>
   1323c:	06f00713          	li	a4,111
   13240:	6ae50463          	beq	a0,a4,138e8 <_nl_load_domain+0x11b8>
   13244:	07500713          	li	a4,117
   13248:	06e50ce3          	beq	a0,a4,13ac0 <_nl_load_domain+0x1390>
   1324c:	07800713          	li	a4,120
   13250:	06e504e3          	beq	a0,a4,13ab8 <_nl_load_domain+0x1388>
   13254:	05800713          	li	a4,88
   13258:	24e51ae3          	bne	a0,a4,13cac <_nl_load_domain+0x157c>
   1325c:	07013703          	ld	a4,112(sp)
   13260:	fd8ff06f          	j	12a38 <_nl_load_domain+0x308>
   13264:	0056c683          	lbu	a3,5(a3)
   13268:	fc069863          	bnez	a3,12a38 <_nl_load_domain+0x308>
   1326c:	06400713          	li	a4,100
   13270:	5ce50a63          	beq	a0,a4,13844 <_nl_load_domain+0x1114>
   13274:	06900713          	li	a4,105
   13278:	5ce50263          	beq	a0,a4,1383c <_nl_load_domain+0x110c>
   1327c:	06f00713          	li	a4,111
   13280:	5ce50c63          	beq	a0,a4,13858 <_nl_load_domain+0x1128>
   13284:	07500713          	li	a4,117
   13288:	5ce50263          	beq	a0,a4,1384c <_nl_load_domain+0x111c>
   1328c:	07800713          	li	a4,120
   13290:	5ce50863          	beq	a0,a4,13860 <_nl_load_domain+0x1130>
   13294:	05800713          	li	a4,88
   13298:	20e51ae3          	bne	a0,a4,13cac <_nl_load_domain+0x157c>
   1329c:	00062737          	lui	a4,0x62
   132a0:	48070713          	addi	a4,a4,1152 # 62480 <__PRETTY_FUNCTION__.1+0xe8>
   132a4:	f94ff06f          	j	12a38 <_nl_load_domain+0x308>
   132a8:	0056ce83          	lbu	t4,5(a3)
   132ac:	03600e13          	li	t3,54
   132b0:	f9ce9463          	bne	t4,t3,12a38 <_nl_load_domain+0x308>
   132b4:	0066c703          	lbu	a4,6(a3)
   132b8:	56071e63          	bnez	a4,13834 <_nl_load_domain+0x1104>
   132bc:	06400713          	li	a4,100
   132c0:	5ee50863          	beq	a0,a4,138b0 <_nl_load_domain+0x1180>
   132c4:	06900713          	li	a4,105
   132c8:	5ee50c63          	beq	a0,a4,138c0 <_nl_load_domain+0x1190>
   132cc:	06f00713          	li	a4,111
   132d0:	5ee50463          	beq	a0,a4,138b8 <_nl_load_domain+0x1188>
   132d4:	07500713          	li	a4,117
   132d8:	5ee50e63          	beq	a0,a4,138d4 <_nl_load_domain+0x11a4>
   132dc:	07800713          	li	a4,120
   132e0:	5ee50463          	beq	a0,a4,138c8 <_nl_load_domain+0x1198>
   132e4:	05800713          	li	a4,88
   132e8:	1ce512e3          	bne	a0,a4,13cac <_nl_load_domain+0x157c>
   132ec:	00062737          	lui	a4,0x62
   132f0:	48070713          	addi	a4,a4,1152 # 62480 <__PRETTY_FUNCTION__.1+0xe8>
   132f4:	f44ff06f          	j	12a38 <_nl_load_domain+0x308>
   132f8:	05000713          	li	a4,80
   132fc:	7eee1a63          	bne	t3,a4,13af0 <_nl_load_domain+0x13c0>
   13300:	0056ce83          	lbu	t4,5(a3)
   13304:	05400e13          	li	t3,84
   13308:	00000713          	li	a4,0
   1330c:	f3ce9663          	bne	t4,t3,12a38 <_nl_load_domain+0x308>
   13310:	0066ce83          	lbu	t4,6(a3)
   13314:	05200e13          	li	t3,82
   13318:	f3ce9063          	bne	t4,t3,12a38 <_nl_load_domain+0x308>
   1331c:	0076c683          	lbu	a3,7(a3)
   13320:	f0069c63          	bnez	a3,12a38 <_nl_load_domain+0x308>
   13324:	06400713          	li	a4,100
   13328:	7ce50063          	beq	a0,a4,13ae8 <_nl_load_domain+0x13b8>
   1332c:	06900713          	li	a4,105
   13330:	7ae50863          	beq	a0,a4,13ae0 <_nl_load_domain+0x13b0>
   13334:	06f00713          	li	a4,111
   13338:	7ae50063          	beq	a0,a4,13ad8 <_nl_load_domain+0x13a8>
   1333c:	07500713          	li	a4,117
   13340:	78e50863          	beq	a0,a4,13ad0 <_nl_load_domain+0x13a0>
   13344:	07800713          	li	a4,120
   13348:	78e50063          	beq	a0,a4,13ac8 <_nl_load_domain+0x1398>
   1334c:	05800713          	li	a4,88
   13350:	14e51ee3          	bne	a0,a4,13cac <_nl_load_domain+0x157c>
   13354:	07013703          	ld	a4,112(sp)
   13358:	ee0ff06f          	j	12a38 <_nl_load_domain+0x308>
   1335c:	0017951b          	slliw	a0,a5,0x1
   13360:	06013783          	ld	a5,96(sp)
   13364:	02051513          	slli	a0,a0,0x20
   13368:	01c55513          	srli	a0,a0,0x1c
   1336c:	00f50533          	add	a0,a0,a5
   13370:	71c160ef          	jal	ra,29a8c <__libc_malloc>
   13374:	08a13423          	sd	a0,136(sp)
   13378:	96050ce3          	beqz	a0,12cf0 <_nl_load_domain+0x5c0>
   1337c:	05816c83          	lwu	s9,88(sp)
   13380:	08813703          	ld	a4,136(sp)
   13384:	95041d37          	lui	s10,0x95041
   13388:	004c9c93          	slli	s9,s9,0x4
   1338c:	019707b3          	add	a5,a4,s9
   13390:	01978cb3          	add	s9,a5,s9
   13394:	08f13c23          	sd	a5,152(sp)
   13398:	07813783          	ld	a5,120(sp)
   1339c:	02eb3023          	sd	a4,32(s6)
   133a0:	08013023          	sd	zero,128(sp)
   133a4:	00fc87b3          	add	a5,s9,a5
   133a8:	00f13823          	sd	a5,16(sp)
   133ac:	06013c23          	sd	zero,120(sp)
   133b0:	2ded0d13          	addi	s10,s10,734 # ffffffff950412de <__BSS_END__+0xffffffff94fbb2ce>
   133b4:	fff00d93          	li	s11,-1
   133b8:	00013c23          	sd	zero,24(sp)
   133bc:	01813783          	ld	a5,24(sp)
   133c0:	23aa8863          	beq	s5,s10,135f0 <_nl_load_domain+0xec0>
   133c4:	3c078063          	beqz	a5,13784 <_nl_load_domain+0x1054>
   133c8:	06813783          	ld	a5,104(sp)
   133cc:	0007a503          	lw	a0,0(a5)
   133d0:	574490ef          	jal	ra,5c944 <__bswapsi2>
   133d4:	02051693          	slli	a3,a0,0x20
   133d8:	0206d693          	srli	a3,a3,0x20
   133dc:	00d486b3          	add	a3,s1,a3
   133e0:	0086a703          	lw	a4,8(a3)
   133e4:	02d13823          	sd	a3,48(sp)
   133e8:	00070513          	mv	a0,a4
   133ec:	02e13023          	sd	a4,32(sp)
   133f0:	554490ef          	jal	ra,5c944 <__bswapsi2>
   133f4:	0005061b          	sext.w	a2,a0
   133f8:	02013703          	ld	a4,32(sp)
   133fc:	03013683          	ld	a3,48(sp)
   13400:	21b61463          	bne	a2,s11,13608 <_nl_load_domain+0xed8>
   13404:	01813783          	ld	a5,24(sp)
   13408:	00100713          	li	a4,1
   1340c:	3ae79a63          	bne	a5,a4,137c0 <_nl_load_domain+0x1090>
   13410:	08016703          	lwu	a4,128(sp)
   13414:	09813783          	ld	a5,152(sp)
   13418:	04013423          	sd	zero,72(sp)
   1341c:	00471713          	slli	a4,a4,0x4
   13420:	00e787b3          	add	a5,a5,a4
   13424:	08f13823          	sd	a5,144(sp)
   13428:	08813783          	ld	a5,136(sp)
   1342c:	00e787b3          	add	a5,a5,a4
   13430:	0af13023          	sd	a5,160(sp)
   13434:	04813783          	ld	a5,72(sp)
   13438:	09aa8e63          	beq	s5,s10,134d4 <_nl_load_domain+0xda4>
   1343c:	3c078c63          	beqz	a5,13814 <_nl_load_domain+0x10e4>
   13440:	06813783          	ld	a5,104(sp)
   13444:	0007a503          	lw	a0,0(a5)
   13448:	09013783          	ld	a5,144(sp)
   1344c:	0af13423          	sd	a5,168(sp)
   13450:	4f4490ef          	jal	ra,5c944 <__bswapsi2>
   13454:	02051693          	slli	a3,a0,0x20
   13458:	0206d693          	srli	a3,a3,0x20
   1345c:	00d486b3          	add	a3,s1,a3
   13460:	0006a503          	lw	a0,0(a3)
   13464:	02d13023          	sd	a3,32(sp)
   13468:	4dc490ef          	jal	ra,5c944 <__bswapsi2>
   1346c:	02013683          	ld	a3,32(sp)
   13470:	02051713          	slli	a4,a0,0x20
   13474:	02075713          	srli	a4,a4,0x20
   13478:	0086a503          	lw	a0,8(a3)
   1347c:	00e487b3          	add	a5,s1,a4
   13480:	02d13023          	sd	a3,32(sp)
   13484:	06f13023          	sd	a5,96(sp)
   13488:	4bc490ef          	jal	ra,5c944 <__bswapsi2>
   1348c:	02013683          	ld	a3,32(sp)
   13490:	0005071b          	sext.w	a4,a0
   13494:	0046a503          	lw	a0,4(a3)
   13498:	07b71663          	bne	a4,s11,13504 <_nl_load_domain+0xdd4>
   1349c:	4a8490ef          	jal	ra,5c944 <__bswapsi2>
   134a0:	02051713          	slli	a4,a0,0x20
   134a4:	02075713          	srli	a4,a4,0x20
   134a8:	0a813783          	ld	a5,168(sp)
   134ac:	00e7b023          	sd	a4,0(a5)
   134b0:	06013703          	ld	a4,96(sp)
   134b4:	00e7b423          	sd	a4,8(a5)
   134b8:	04813783          	ld	a5,72(sp)
   134bc:	00100713          	li	a4,1
   134c0:	18e78463          	beq	a5,a4,13648 <_nl_load_domain+0xf18>
   134c4:	01813783          	ld	a5,24(sp)
   134c8:	04f13423          	sd	a5,72(sp)
   134cc:	04813783          	ld	a5,72(sp)
   134d0:	f7aa96e3          	bne	s5,s10,1343c <_nl_load_domain+0xd0c>
   134d4:	34078863          	beqz	a5,13824 <_nl_load_domain+0x10f4>
   134d8:	06813783          	ld	a5,104(sp)
   134dc:	0007e683          	lwu	a3,0(a5)
   134e0:	09013783          	ld	a5,144(sp)
   134e4:	00d486b3          	add	a3,s1,a3
   134e8:	0006e703          	lwu	a4,0(a3)
   134ec:	0086a603          	lw	a2,8(a3)
   134f0:	0af13423          	sd	a5,168(sp)
   134f4:	00e487b3          	add	a5,s1,a4
   134f8:	06f13023          	sd	a5,96(sp)
   134fc:	0046e703          	lwu	a4,4(a3)
   13500:	fbb604e3          	beq	a2,s11,134a8 <_nl_load_domain+0xd78>
   13504:	0a813783          	ld	a5,168(sp)
   13508:	01013703          	ld	a4,16(sp)
   1350c:	00468693          	addi	a3,a3,4
   13510:	00e7b423          	sd	a4,8(a5)
   13514:	0006a603          	lw	a2,0(a3)
   13518:	0046a703          	lw	a4,4(a3)
   1351c:	03aa8a63          	beq	s5,s10,13550 <_nl_load_domain+0xe20>
   13520:	00060513          	mv	a0,a2
   13524:	02d13823          	sd	a3,48(sp)
   13528:	02e13023          	sd	a4,32(sp)
   1352c:	418490ef          	jal	ra,5c944 <__bswapsi2>
   13530:	02013703          	ld	a4,32(sp)
   13534:	0005061b          	sext.w	a2,a0
   13538:	02c13023          	sd	a2,32(sp)
   1353c:	00070513          	mv	a0,a4
   13540:	404490ef          	jal	ra,5c944 <__bswapsi2>
   13544:	03013683          	ld	a3,48(sp)
   13548:	02013603          	ld	a2,32(sp)
   1354c:	0005071b          	sext.w	a4,a0
   13550:	04061c63          	bnez	a2,135a8 <_nl_load_domain+0xe78>
   13554:	29b70863          	beq	a4,s11,137e4 <_nl_load_domain+0x10b4>
   13558:	02071713          	slli	a4,a4,0x20
   1355c:	01d75713          	srli	a4,a4,0x1d
   13560:	00eb8733          	add	a4,s7,a4
   13564:	00073583          	ld	a1,0(a4)
   13568:	00868693          	addi	a3,a3,8
   1356c:	02d13c23          	sd	a3,56(sp)
   13570:	00058513          	mv	a0,a1
   13574:	02b13823          	sd	a1,48(sp)
   13578:	5ac180ef          	jal	ra,2bb24 <strlen>
   1357c:	00050613          	mv	a2,a0
   13580:	03013583          	ld	a1,48(sp)
   13584:	01013503          	ld	a0,16(sp)
   13588:	02c13023          	sd	a2,32(sp)
   1358c:	708190ef          	jal	ra,2cc94 <memcpy>
   13590:	01013783          	ld	a5,16(sp)
   13594:	02013603          	ld	a2,32(sp)
   13598:	03813683          	ld	a3,56(sp)
   1359c:	00c787b3          	add	a5,a5,a2
   135a0:	00f13823          	sd	a5,16(sp)
   135a4:	f71ff06f          	j	13514 <_nl_load_domain+0xde4>
   135a8:	06013583          	ld	a1,96(sp)
   135ac:	01013503          	ld	a0,16(sp)
   135b0:	02061613          	slli	a2,a2,0x20
   135b4:	02065613          	srli	a2,a2,0x20
   135b8:	02e13c23          	sd	a4,56(sp)
   135bc:	02d13823          	sd	a3,48(sp)
   135c0:	02c13023          	sd	a2,32(sp)
   135c4:	6d0190ef          	jal	ra,2cc94 <memcpy>
   135c8:	01013783          	ld	a5,16(sp)
   135cc:	02013603          	ld	a2,32(sp)
   135d0:	03013683          	ld	a3,48(sp)
   135d4:	00c78733          	add	a4,a5,a2
   135d8:	06013783          	ld	a5,96(sp)
   135dc:	00e13823          	sd	a4,16(sp)
   135e0:	03813703          	ld	a4,56(sp)
   135e4:	00c787b3          	add	a5,a5,a2
   135e8:	06f13023          	sd	a5,96(sp)
   135ec:	f69ff06f          	j	13554 <_nl_load_domain+0xe24>
   135f0:	1c078e63          	beqz	a5,137cc <_nl_load_domain+0x109c>
   135f4:	06813783          	ld	a5,104(sp)
   135f8:	0007e683          	lwu	a3,0(a5)
   135fc:	00d486b3          	add	a3,s1,a3
   13600:	0086a703          	lw	a4,8(a3)
   13604:	e1b700e3          	beq	a4,s11,13404 <_nl_load_domain+0xcd4>
   13608:	00468693          	addi	a3,a3,4
   1360c:	01aa8c63          	beq	s5,s10,13624 <_nl_load_domain+0xef4>
   13610:	00070513          	mv	a0,a4
   13614:	02d13023          	sd	a3,32(sp)
   13618:	32c490ef          	jal	ra,5c944 <__bswapsi2>
   1361c:	02013683          	ld	a3,32(sp)
   13620:	0005071b          	sext.w	a4,a0
   13624:	dfb700e3          	beq	a4,s11,13404 <_nl_load_domain+0xcd4>
   13628:	02071713          	slli	a4,a4,0x20
   1362c:	01d75713          	srli	a4,a4,0x1d
   13630:	00eb8733          	add	a4,s7,a4
   13634:	00073703          	ld	a4,0(a4)
   13638:	00070e63          	beqz	a4,13654 <_nl_load_domain+0xf24>
   1363c:	00868693          	addi	a3,a3,8
   13640:	0046a703          	lw	a4,4(a3)
   13644:	fc9ff06f          	j	1360c <_nl_load_domain+0xedc>
   13648:	08013783          	ld	a5,128(sp)
   1364c:	0017879b          	addiw	a5,a5,1
   13650:	08f13023          	sd	a5,128(sp)
   13654:	07013703          	ld	a4,112(sp)
   13658:	07813783          	ld	a5,120(sp)
   1365c:	00470713          	addi	a4,a4,4
   13660:	06e13823          	sd	a4,112(sp)
   13664:	06813703          	ld	a4,104(sp)
   13668:	0017879b          	addiw	a5,a5,1
   1366c:	06f13c23          	sd	a5,120(sp)
   13670:	00470713          	addi	a4,a4,4
   13674:	06e13423          	sd	a4,104(sp)
   13678:	04013703          	ld	a4,64(sp)
   1367c:	d2e7eee3          	bltu	a5,a4,133b8 <_nl_load_domain+0xc88>
   13680:	05813783          	ld	a5,88(sp)
   13684:	08013703          	ld	a4,128(sp)
   13688:	62e79263          	bne	a5,a4,13cac <_nl_load_domain+0x157c>
   1368c:	05013d03          	ld	s10,80(sp)
   13690:	950416b7          	lui	a3,0x95041
   13694:	000c8713          	mv	a4,s9
   13698:	00000d93          	li	s11,0
   1369c:	2de68693          	addi	a3,a3,734 # ffffffff950412de <__BSS_END__+0xffffffff94fbb2ce>
   136a0:	000d2503          	lw	a0,0(s10)
   136a4:	00da8e63          	beq	s5,a3,136c0 <_nl_load_domain+0xf90>
   136a8:	00e13823          	sd	a4,16(sp)
   136ac:	298490ef          	jal	ra,5c944 <__bswapsi2>
   136b0:	01013703          	ld	a4,16(sp)
   136b4:	950417b7          	lui	a5,0x95041
   136b8:	0005051b          	sext.w	a0,a0
   136bc:	2de78693          	addi	a3,a5,734 # ffffffff950412de <__BSS_END__+0xffffffff94fbb2ce>
   136c0:	02813783          	ld	a5,40(sp)
   136c4:	00a72023          	sw	a0,0(a4)
   136c8:	001d8d9b          	addiw	s11,s11,1
   136cc:	004d0d13          	addi	s10,s10,4
   136d0:	00470713          	addi	a4,a4,4
   136d4:	fcfde6e3          	bltu	s11,a5,136a0 <_nl_load_domain+0xf70>
   136d8:	08813783          	ld	a5,136(sp)
   136dc:	00000a93          	li	s5,0
   136e0:	00878d13          	addi	s10,a5,8
   136e4:	000d3503          	ld	a0,0(s10)
   136e8:	65d010ef          	jal	ra,15544 <__hash_string>
   136ec:	058b2603          	lw	a2,88(s6)
   136f0:	02c576bb          	remuw	a3,a0,a2
   136f4:	ffe6059b          	addiw	a1,a2,-2
   136f8:	02b575bb          	remuw	a1,a0,a1
   136fc:	02069713          	slli	a4,a3,0x20
   13700:	01e75713          	srli	a4,a4,0x1e
   13704:	00ec8733          	add	a4,s9,a4
   13708:	00072503          	lw	a0,0(a4)
   1370c:	0015889b          	addiw	a7,a1,1
   13710:	02050463          	beqz	a0,13738 <_nl_load_domain+0x1008>
   13714:	411605bb          	subw	a1,a2,a7
   13718:	40c8853b          	subw	a0,a7,a2
   1371c:	06b6e063          	bltu	a3,a1,1377c <_nl_load_domain+0x104c>
   13720:	00d506bb          	addw	a3,a0,a3
   13724:	02069713          	slli	a4,a3,0x20
   13728:	01e75713          	srli	a4,a4,0x1e
   1372c:	00ec8733          	add	a4,s9,a4
   13730:	00072603          	lw	a2,0(a4)
   13734:	fe0614e3          	bnez	a2,1371c <_nl_load_domain+0xfec>
   13738:	028b2683          	lw	a3,40(s6)
   1373c:	05813783          	ld	a5,88(sp)
   13740:	010d0d13          	addi	s10,s10,16
   13744:	0016869b          	addiw	a3,a3,1
   13748:	015686bb          	addw	a3,a3,s5
   1374c:	00d72023          	sw	a3,0(a4)
   13750:	001a8a9b          	addiw	s5,s5,1
   13754:	f95798e3          	bne	a5,s5,136e4 <_nl_load_domain+0xfb4>
   13758:	05813783          	ld	a5,88(sp)
   1375c:	079b3023          	sd	s9,96(s6)
   13760:	060b2423          	sw	zero,104(s6)
   13764:	04fb2023          	sw	a5,64(s6)
   13768:	08813783          	ld	a5,136(sp)
   1376c:	04fb3423          	sd	a5,72(s6)
   13770:	09813783          	ld	a5,152(sp)
   13774:	04fb3823          	sd	a5,80(s6)
   13778:	c04ff06f          	j	12b7c <_nl_load_domain+0x44c>
   1377c:	011686bb          	addw	a3,a3,a7
   13780:	fa5ff06f          	j	13724 <_nl_load_domain+0xff4>
   13784:	07013783          	ld	a5,112(sp)
   13788:	0007a503          	lw	a0,0(a5)
   1378c:	1b8490ef          	jal	ra,5c944 <__bswapsi2>
   13790:	02051693          	slli	a3,a0,0x20
   13794:	0206d693          	srli	a3,a3,0x20
   13798:	00d486b3          	add	a3,s1,a3
   1379c:	0086a703          	lw	a4,8(a3)
   137a0:	02d13823          	sd	a3,48(sp)
   137a4:	00070513          	mv	a0,a4
   137a8:	02e13023          	sd	a4,32(sp)
   137ac:	198490ef          	jal	ra,5c944 <__bswapsi2>
   137b0:	0005061b          	sext.w	a2,a0
   137b4:	02013703          	ld	a4,32(sp)
   137b8:	03013683          	ld	a3,48(sp)
   137bc:	e5b616e3          	bne	a2,s11,13608 <_nl_load_domain+0xed8>
   137c0:	00100793          	li	a5,1
   137c4:	00f13c23          	sd	a5,24(sp)
   137c8:	bf5ff06f          	j	133bc <_nl_load_domain+0xc8c>
   137cc:	07013783          	ld	a5,112(sp)
   137d0:	0007e683          	lwu	a3,0(a5)
   137d4:	00d486b3          	add	a3,s1,a3
   137d8:	0086a703          	lw	a4,8(a3)
   137dc:	ffb702e3          	beq	a4,s11,137c0 <_nl_load_domain+0x1090>
   137e0:	e29ff06f          	j	13608 <_nl_load_domain+0xed8>
   137e4:	0a813783          	ld	a5,168(sp)
   137e8:	01013683          	ld	a3,16(sp)
   137ec:	0087b703          	ld	a4,8(a5)
   137f0:	40e68733          	sub	a4,a3,a4
   137f4:	00e7b023          	sd	a4,0(a5)
   137f8:	cc1ff06f          	j	134b8 <_nl_load_domain+0xd88>
   137fc:	000a0593          	mv	a1,s4
   13800:	00048513          	mv	a0,s1
   13804:	3591b0ef          	jal	ra,2f35c <__munmap>
   13808:	004c2783          	lw	a5,4(s8)
   1380c:	fff7861b          	addiw	a2,a5,-1
   13810:	b9cff06f          	j	12bac <_nl_load_domain+0x47c>
   13814:	07013783          	ld	a5,112(sp)
   13818:	0007a503          	lw	a0,0(a5)
   1381c:	0a013783          	ld	a5,160(sp)
   13820:	c2dff06f          	j	1344c <_nl_load_domain+0xd1c>
   13824:	07013783          	ld	a5,112(sp)
   13828:	0007e683          	lwu	a3,0(a5)
   1382c:	0a013783          	ld	a5,160(sp)
   13830:	cb5ff06f          	j	134e4 <_nl_load_domain+0xdb4>
   13834:	00000713          	li	a4,0
   13838:	a00ff06f          	j	12a38 <_nl_load_domain+0x308>
   1383c:	08013703          	ld	a4,128(sp)
   13840:	9f8ff06f          	j	12a38 <_nl_load_domain+0x308>
   13844:	07813703          	ld	a4,120(sp)
   13848:	9f0ff06f          	j	12a38 <_nl_load_domain+0x308>
   1384c:	00062737          	lui	a4,0x62
   13850:	e3070713          	addi	a4,a4,-464 # 61e30 <_nl_default_default_domain+0x30>
   13854:	9e4ff06f          	j	12a38 <_nl_load_domain+0x308>
   13858:	08813703          	ld	a4,136(sp)
   1385c:	9dcff06f          	j	12a38 <_nl_load_domain+0x308>
   13860:	00062737          	lui	a4,0x62
   13864:	e5870713          	addi	a4,a4,-424 # 61e58 <_nl_default_default_domain+0x58>
   13868:	9d0ff06f          	j	12a38 <_nl_load_domain+0x308>
   1386c:	00062737          	lui	a4,0x62
   13870:	e5870713          	addi	a4,a4,-424 # 61e58 <_nl_default_default_domain+0x58>
   13874:	9c4ff06f          	j	12a38 <_nl_load_domain+0x308>
   13878:	08813703          	ld	a4,136(sp)
   1387c:	9bcff06f          	j	12a38 <_nl_load_domain+0x308>
   13880:	08013703          	ld	a4,128(sp)
   13884:	9b4ff06f          	j	12a38 <_nl_load_domain+0x308>
   13888:	06813703          	ld	a4,104(sp)
   1388c:	9acff06f          	j	12a38 <_nl_load_domain+0x308>
   13890:	07813703          	ld	a4,120(sp)
   13894:	9a4ff06f          	j	12a38 <_nl_load_domain+0x308>
   13898:	05813703          	ld	a4,88(sp)
   1389c:	99cff06f          	j	12a38 <_nl_load_domain+0x308>
   138a0:	04813703          	ld	a4,72(sp)
   138a4:	994ff06f          	j	12a38 <_nl_load_domain+0x308>
   138a8:	03813703          	ld	a4,56(sp)
   138ac:	98cff06f          	j	12a38 <_nl_load_domain+0x308>
   138b0:	07813703          	ld	a4,120(sp)
   138b4:	984ff06f          	j	12a38 <_nl_load_domain+0x308>
   138b8:	08813703          	ld	a4,136(sp)
   138bc:	97cff06f          	j	12a38 <_nl_load_domain+0x308>
   138c0:	08013703          	ld	a4,128(sp)
   138c4:	974ff06f          	j	12a38 <_nl_load_domain+0x308>
   138c8:	00062737          	lui	a4,0x62
   138cc:	e5870713          	addi	a4,a4,-424 # 61e58 <_nl_default_default_domain+0x58>
   138d0:	968ff06f          	j	12a38 <_nl_load_domain+0x308>
   138d4:	00062737          	lui	a4,0x62
   138d8:	e3070713          	addi	a4,a4,-464 # 61e30 <_nl_default_default_domain+0x30>
   138dc:	95cff06f          	j	12a38 <_nl_load_domain+0x308>
   138e0:	06013703          	ld	a4,96(sp)
   138e4:	954ff06f          	j	12a38 <_nl_load_domain+0x308>
   138e8:	05813703          	ld	a4,88(sp)
   138ec:	94cff06f          	j	12a38 <_nl_load_domain+0x308>
   138f0:	04813703          	ld	a4,72(sp)
   138f4:	944ff06f          	j	12a38 <_nl_load_domain+0x308>
   138f8:	00062737          	lui	a4,0x62
   138fc:	e5870713          	addi	a4,a4,-424 # 61e58 <_nl_default_default_domain+0x58>
   13900:	938ff06f          	j	12a38 <_nl_load_domain+0x308>
   13904:	03813703          	ld	a4,56(sp)
   13908:	930ff06f          	j	12a38 <_nl_load_domain+0x308>
   1390c:	06813703          	ld	a4,104(sp)
   13910:	928ff06f          	j	12a38 <_nl_load_domain+0x308>
   13914:	00062737          	lui	a4,0x62
   13918:	e3070713          	addi	a4,a4,-464 # 61e30 <_nl_default_default_domain+0x30>
   1391c:	91cff06f          	j	12a38 <_nl_load_domain+0x308>
   13920:	06013703          	ld	a4,96(sp)
   13924:	914ff06f          	j	12a38 <_nl_load_domain+0x308>
   13928:	05813703          	ld	a4,88(sp)
   1392c:	90cff06f          	j	12a38 <_nl_load_domain+0x308>
   13930:	04813703          	ld	a4,72(sp)
   13934:	904ff06f          	j	12a38 <_nl_load_domain+0x308>
   13938:	03813703          	ld	a4,56(sp)
   1393c:	8fcff06f          	j	12a38 <_nl_load_domain+0x308>
   13940:	00000713          	li	a4,0
   13944:	8f4ff06f          	j	12a38 <_nl_load_domain+0x308>
   13948:	8fde1863          	bne	t3,t4,12a38 <_nl_load_domain+0x308>
   1394c:	0096ce83          	lbu	t4,9(a3)
   13950:	03400e13          	li	t3,52
   13954:	00000713          	li	a4,0
   13958:	8fce9063          	bne	t4,t3,12a38 <_nl_load_domain+0x308>
   1395c:	00a6c683          	lbu	a3,10(a3)
   13960:	8c069c63          	bnez	a3,12a38 <_nl_load_domain+0x308>
   13964:	06400713          	li	a4,100
   13968:	14e50463          	beq	a0,a4,13ab0 <_nl_load_domain+0x1380>
   1396c:	06900713          	li	a4,105
   13970:	12e50c63          	beq	a0,a4,13aa8 <_nl_load_domain+0x1378>
   13974:	06f00713          	li	a4,111
   13978:	12e50463          	beq	a0,a4,13aa0 <_nl_load_domain+0x1370>
   1397c:	07500713          	li	a4,117
   13980:	10e50c63          	beq	a0,a4,13a98 <_nl_load_domain+0x1368>
   13984:	07800713          	li	a4,120
   13988:	0ae50463          	beq	a0,a4,13a30 <_nl_load_domain+0x1300>
   1398c:	05800713          	li	a4,88
   13990:	30e51e63          	bne	a0,a4,13cac <_nl_load_domain+0x157c>
   13994:	07013703          	ld	a4,112(sp)
   13998:	8a0ff06f          	j	12a38 <_nl_load_domain+0x308>
   1399c:	0096ce03          	lbu	t3,9(a3)
   139a0:	01de0463          	beq	t3,t4,139a8 <_nl_load_domain+0x1278>
   139a4:	894ff06f          	j	12a38 <_nl_load_domain+0x308>
   139a8:	00a6c703          	lbu	a4,10(a3)
   139ac:	0e071263          	bnez	a4,13a90 <_nl_load_domain+0x1360>
   139b0:	06400713          	li	a4,100
   139b4:	0ce50a63          	beq	a0,a4,13a88 <_nl_load_domain+0x1358>
   139b8:	06900713          	li	a4,105
   139bc:	0ce50263          	beq	a0,a4,13a80 <_nl_load_domain+0x1350>
   139c0:	06f00713          	li	a4,111
   139c4:	0ae50a63          	beq	a0,a4,13a78 <_nl_load_domain+0x1348>
   139c8:	07500713          	li	a4,117
   139cc:	06e50a63          	beq	a0,a4,13a40 <_nl_load_domain+0x1310>
   139d0:	07800713          	li	a4,120
   139d4:	06e50263          	beq	a0,a4,13a38 <_nl_load_domain+0x1308>
   139d8:	05800713          	li	a4,88
   139dc:	2ce51863          	bne	a0,a4,13cac <_nl_load_domain+0x157c>
   139e0:	07013703          	ld	a4,112(sp)
   139e4:	854ff06f          	j	12a38 <_nl_load_domain+0x308>
   139e8:	0096c683          	lbu	a3,9(a3)
   139ec:	00068463          	beqz	a3,139f4 <_nl_load_domain+0x12c4>
   139f0:	848ff06f          	j	12a38 <_nl_load_domain+0x308>
   139f4:	06400713          	li	a4,100
   139f8:	06e50c63          	beq	a0,a4,13a70 <_nl_load_domain+0x1340>
   139fc:	06900713          	li	a4,105
   13a00:	06e50463          	beq	a0,a4,13a68 <_nl_load_domain+0x1338>
   13a04:	06f00713          	li	a4,111
   13a08:	04e50c63          	beq	a0,a4,13a60 <_nl_load_domain+0x1330>
   13a0c:	07500713          	li	a4,117
   13a10:	04e50263          	beq	a0,a4,13a54 <_nl_load_domain+0x1324>
   13a14:	07800713          	li	a4,120
   13a18:	02e50863          	beq	a0,a4,13a48 <_nl_load_domain+0x1318>
   13a1c:	05800713          	li	a4,88
   13a20:	28e51663          	bne	a0,a4,13cac <_nl_load_domain+0x157c>
   13a24:	00062737          	lui	a4,0x62
   13a28:	48070713          	addi	a4,a4,1152 # 62480 <__PRETTY_FUNCTION__.1+0xe8>
   13a2c:	80cff06f          	j	12a38 <_nl_load_domain+0x308>
   13a30:	06813703          	ld	a4,104(sp)
   13a34:	804ff06f          	j	12a38 <_nl_load_domain+0x308>
   13a38:	06813703          	ld	a4,104(sp)
   13a3c:	ffdfe06f          	j	12a38 <_nl_load_domain+0x308>
   13a40:	06013703          	ld	a4,96(sp)
   13a44:	ff5fe06f          	j	12a38 <_nl_load_domain+0x308>
   13a48:	00062737          	lui	a4,0x62
   13a4c:	e5870713          	addi	a4,a4,-424 # 61e58 <_nl_default_default_domain+0x58>
   13a50:	fe9fe06f          	j	12a38 <_nl_load_domain+0x308>
   13a54:	00062737          	lui	a4,0x62
   13a58:	e3070713          	addi	a4,a4,-464 # 61e30 <_nl_default_default_domain+0x30>
   13a5c:	fddfe06f          	j	12a38 <_nl_load_domain+0x308>
   13a60:	08813703          	ld	a4,136(sp)
   13a64:	fd5fe06f          	j	12a38 <_nl_load_domain+0x308>
   13a68:	08013703          	ld	a4,128(sp)
   13a6c:	fcdfe06f          	j	12a38 <_nl_load_domain+0x308>
   13a70:	07813703          	ld	a4,120(sp)
   13a74:	fc5fe06f          	j	12a38 <_nl_load_domain+0x308>
   13a78:	05813703          	ld	a4,88(sp)
   13a7c:	fbdfe06f          	j	12a38 <_nl_load_domain+0x308>
   13a80:	04813703          	ld	a4,72(sp)
   13a84:	fb5fe06f          	j	12a38 <_nl_load_domain+0x308>
   13a88:	03813703          	ld	a4,56(sp)
   13a8c:	fadfe06f          	j	12a38 <_nl_load_domain+0x308>
   13a90:	00000713          	li	a4,0
   13a94:	fa5fe06f          	j	12a38 <_nl_load_domain+0x308>
   13a98:	06013703          	ld	a4,96(sp)
   13a9c:	f9dfe06f          	j	12a38 <_nl_load_domain+0x308>
   13aa0:	05813703          	ld	a4,88(sp)
   13aa4:	f95fe06f          	j	12a38 <_nl_load_domain+0x308>
   13aa8:	04813703          	ld	a4,72(sp)
   13aac:	f8dfe06f          	j	12a38 <_nl_load_domain+0x308>
   13ab0:	03813703          	ld	a4,56(sp)
   13ab4:	f85fe06f          	j	12a38 <_nl_load_domain+0x308>
   13ab8:	06813703          	ld	a4,104(sp)
   13abc:	f7dfe06f          	j	12a38 <_nl_load_domain+0x308>
   13ac0:	06013703          	ld	a4,96(sp)
   13ac4:	f75fe06f          	j	12a38 <_nl_load_domain+0x308>
   13ac8:	06813703          	ld	a4,104(sp)
   13acc:	f6dfe06f          	j	12a38 <_nl_load_domain+0x308>
   13ad0:	06013703          	ld	a4,96(sp)
   13ad4:	f65fe06f          	j	12a38 <_nl_load_domain+0x308>
   13ad8:	05813703          	ld	a4,88(sp)
   13adc:	f5dfe06f          	j	12a38 <_nl_load_domain+0x308>
   13ae0:	04813703          	ld	a4,72(sp)
   13ae4:	f55fe06f          	j	12a38 <_nl_load_domain+0x308>
   13ae8:	03813703          	ld	a4,56(sp)
   13aec:	f4dfe06f          	j	12a38 <_nl_load_domain+0x308>
   13af0:	00000713          	li	a4,0
   13af4:	f45fe06f          	j	12a38 <_nl_load_domain+0x308>
   13af8:	00062737          	lui	a4,0x62
   13afc:	e3070713          	addi	a4,a4,-464 # 61e30 <_nl_default_default_domain+0x30>
   13b00:	f39fe06f          	j	12a38 <_nl_load_domain+0x308>
   13b04:	08813703          	ld	a4,136(sp)
   13b08:	f31fe06f          	j	12a38 <_nl_load_domain+0x308>
   13b0c:	08013703          	ld	a4,128(sp)
   13b10:	f29fe06f          	j	12a38 <_nl_load_domain+0x308>
   13b14:	07813703          	ld	a4,120(sp)
   13b18:	f21fe06f          	j	12a38 <_nl_load_domain+0x308>
   13b1c:	00000713          	li	a4,0
   13b20:	f19fe06f          	j	12a38 <_nl_load_domain+0x308>
   13b24:	01de0463          	beq	t3,t4,13b2c <_nl_load_domain+0x13fc>
   13b28:	f11fe06f          	j	12a38 <_nl_load_domain+0x308>
   13b2c:	00a6ce83          	lbu	t4,10(a3)
   13b30:	03400e13          	li	t3,52
   13b34:	00000713          	li	a4,0
   13b38:	01ce8463          	beq	t4,t3,13b40 <_nl_load_domain+0x1410>
   13b3c:	efdfe06f          	j	12a38 <_nl_load_domain+0x308>
   13b40:	00b6c683          	lbu	a3,11(a3)
   13b44:	00068463          	beqz	a3,13b4c <_nl_load_domain+0x141c>
   13b48:	ef1fe06f          	j	12a38 <_nl_load_domain+0x308>
   13b4c:	06400713          	li	a4,100
   13b50:	14e50a63          	beq	a0,a4,13ca4 <_nl_load_domain+0x1574>
   13b54:	06900713          	li	a4,105
   13b58:	14e50263          	beq	a0,a4,13c9c <_nl_load_domain+0x156c>
   13b5c:	06f00713          	li	a4,111
   13b60:	12e50a63          	beq	a0,a4,13c94 <_nl_load_domain+0x1564>
   13b64:	07500713          	li	a4,117
   13b68:	12e50263          	beq	a0,a4,13c8c <_nl_load_domain+0x155c>
   13b6c:	07800713          	li	a4,120
   13b70:	0ae50663          	beq	a0,a4,13c1c <_nl_load_domain+0x14ec>
   13b74:	05800713          	li	a4,88
   13b78:	12e51a63          	bne	a0,a4,13cac <_nl_load_domain+0x157c>
   13b7c:	07013703          	ld	a4,112(sp)
   13b80:	eb9fe06f          	j	12a38 <_nl_load_domain+0x308>
   13b84:	00a6ce03          	lbu	t3,10(a3)
   13b88:	01de0463          	beq	t3,t4,13b90 <_nl_load_domain+0x1460>
   13b8c:	eadfe06f          	j	12a38 <_nl_load_domain+0x308>
   13b90:	00b6c703          	lbu	a4,11(a3)
   13b94:	0e071863          	bnez	a4,13c84 <_nl_load_domain+0x1554>
   13b98:	06400713          	li	a4,100
   13b9c:	0ee50063          	beq	a0,a4,13c7c <_nl_load_domain+0x154c>
   13ba0:	06900713          	li	a4,105
   13ba4:	0ce50863          	beq	a0,a4,13c74 <_nl_load_domain+0x1544>
   13ba8:	06f00713          	li	a4,111
   13bac:	0ce50063          	beq	a0,a4,13c6c <_nl_load_domain+0x153c>
   13bb0:	07500713          	li	a4,117
   13bb4:	06e50e63          	beq	a0,a4,13c30 <_nl_load_domain+0x1500>
   13bb8:	07800713          	li	a4,120
   13bbc:	06e50463          	beq	a0,a4,13c24 <_nl_load_domain+0x14f4>
   13bc0:	05800713          	li	a4,88
   13bc4:	0ee51463          	bne	a0,a4,13cac <_nl_load_domain+0x157c>
   13bc8:	00062737          	lui	a4,0x62
   13bcc:	48070713          	addi	a4,a4,1152 # 62480 <__PRETTY_FUNCTION__.1+0xe8>
   13bd0:	e69fe06f          	j	12a38 <_nl_load_domain+0x308>
   13bd4:	00a6c683          	lbu	a3,10(a3)
   13bd8:	00068463          	beqz	a3,13be0 <_nl_load_domain+0x14b0>
   13bdc:	e5dfe06f          	j	12a38 <_nl_load_domain+0x308>
   13be0:	06400713          	li	a4,100
   13be4:	08e50063          	beq	a0,a4,13c64 <_nl_load_domain+0x1534>
   13be8:	06900713          	li	a4,105
   13bec:	06e50863          	beq	a0,a4,13c5c <_nl_load_domain+0x152c>
   13bf0:	06f00713          	li	a4,111
   13bf4:	06e50063          	beq	a0,a4,13c54 <_nl_load_domain+0x1524>
   13bf8:	07500713          	li	a4,117
   13bfc:	04e50663          	beq	a0,a4,13c48 <_nl_load_domain+0x1518>
   13c00:	07800713          	li	a4,120
   13c04:	02e50c63          	beq	a0,a4,13c3c <_nl_load_domain+0x150c>
   13c08:	05800713          	li	a4,88
   13c0c:	0ae51063          	bne	a0,a4,13cac <_nl_load_domain+0x157c>
   13c10:	00062737          	lui	a4,0x62
   13c14:	48070713          	addi	a4,a4,1152 # 62480 <__PRETTY_FUNCTION__.1+0xe8>
   13c18:	e21fe06f          	j	12a38 <_nl_load_domain+0x308>
   13c1c:	06813703          	ld	a4,104(sp)
   13c20:	e19fe06f          	j	12a38 <_nl_load_domain+0x308>
   13c24:	00062737          	lui	a4,0x62
   13c28:	e5870713          	addi	a4,a4,-424 # 61e58 <_nl_default_default_domain+0x58>
   13c2c:	e0dfe06f          	j	12a38 <_nl_load_domain+0x308>
   13c30:	00062737          	lui	a4,0x62
   13c34:	e3070713          	addi	a4,a4,-464 # 61e30 <_nl_default_default_domain+0x30>
   13c38:	e01fe06f          	j	12a38 <_nl_load_domain+0x308>
   13c3c:	00062737          	lui	a4,0x62
   13c40:	e5870713          	addi	a4,a4,-424 # 61e58 <_nl_default_default_domain+0x58>
   13c44:	df5fe06f          	j	12a38 <_nl_load_domain+0x308>
   13c48:	00062737          	lui	a4,0x62
   13c4c:	e3070713          	addi	a4,a4,-464 # 61e30 <_nl_default_default_domain+0x30>
   13c50:	de9fe06f          	j	12a38 <_nl_load_domain+0x308>
   13c54:	08813703          	ld	a4,136(sp)
   13c58:	de1fe06f          	j	12a38 <_nl_load_domain+0x308>
   13c5c:	08013703          	ld	a4,128(sp)
   13c60:	dd9fe06f          	j	12a38 <_nl_load_domain+0x308>
   13c64:	07813703          	ld	a4,120(sp)
   13c68:	dd1fe06f          	j	12a38 <_nl_load_domain+0x308>
   13c6c:	08813703          	ld	a4,136(sp)
   13c70:	dc9fe06f          	j	12a38 <_nl_load_domain+0x308>
   13c74:	08013703          	ld	a4,128(sp)
   13c78:	dc1fe06f          	j	12a38 <_nl_load_domain+0x308>
   13c7c:	07813703          	ld	a4,120(sp)
   13c80:	db9fe06f          	j	12a38 <_nl_load_domain+0x308>
   13c84:	00000713          	li	a4,0
   13c88:	db1fe06f          	j	12a38 <_nl_load_domain+0x308>
   13c8c:	06013703          	ld	a4,96(sp)
   13c90:	da9fe06f          	j	12a38 <_nl_load_domain+0x308>
   13c94:	05813703          	ld	a4,88(sp)
   13c98:	da1fe06f          	j	12a38 <_nl_load_domain+0x308>
   13c9c:	04813703          	ld	a4,72(sp)
   13ca0:	d99fe06f          	j	12a38 <_nl_load_domain+0x308>
   13ca4:	03813703          	ld	a4,56(sp)
   13ca8:	d91fe06f          	j	12a38 <_nl_load_domain+0x308>
   13cac:	eccfc0ef          	jal	ra,10378 <abort>

0000000000013cb0 <alias_compare>:
   13cb0:	0005b583          	ld	a1,0(a1)
   13cb4:	00053503          	ld	a0,0(a0)
   13cb8:	00075637          	lui	a2,0x75
   13cbc:	a6860613          	addi	a2,a2,-1432 # 74a68 <_nl_C_locobj>
   13cc0:	7851806f          	j	2cc44 <__strcasecmp_l>

0000000000013cc4 <read_alias_file>:
   13cc4:	dc010113          	addi	sp,sp,-576
   13cc8:	01d58793          	addi	a5,a1,29
   13ccc:	22113c23          	sd	ra,568(sp)
   13cd0:	22813823          	sd	s0,560(sp)
   13cd4:	22913423          	sd	s1,552(sp)
   13cd8:	23213023          	sd	s2,544(sp)
   13cdc:	24010413          	addi	s0,sp,576
   13ce0:	21313c23          	sd	s3,536(sp)
   13ce4:	21413823          	sd	s4,528(sp)
   13ce8:	21513423          	sd	s5,520(sp)
   13cec:	21613023          	sd	s6,512(sp)
   13cf0:	1f713c23          	sd	s7,504(sp)
   13cf4:	1f813823          	sd	s8,496(sp)
   13cf8:	1f913423          	sd	s9,488(sp)
   13cfc:	1fa13023          	sd	s10,480(sp)
   13d00:	1db13c23          	sd	s11,472(sp)
   13d04:	ff07f793          	andi	a5,a5,-16
   13d08:	40f10133          	sub	sp,sp,a5
   13d0c:	00058493          	mv	s1,a1
   13d10:	00010913          	mv	s2,sp
   13d14:	00050593          	mv	a1,a0
   13d18:	00048613          	mv	a2,s1
   13d1c:	00090513          	mv	a0,s2
   13d20:	775180ef          	jal	ra,2cc94 <memcpy>
   13d24:	000625b7          	lui	a1,0x62
   13d28:	e7058593          	addi	a1,a1,-400 # 61e70 <_nl_default_default_domain+0x70>
   13d2c:	00e00613          	li	a2,14
   13d30:	00950533          	add	a0,a0,s1
   13d34:	761180ef          	jal	ra,2cc94 <memcpy>
   13d38:	000625b7          	lui	a1,0x62
   13d3c:	e6858593          	addi	a1,a1,-408 # 61e68 <_nl_default_default_domain+0x68>
   13d40:	00090513          	mv	a0,s2
   13d44:	6ed090ef          	jal	ra,1dc30 <_IO_new_fopen>
   13d48:	36050c63          	beqz	a0,140c0 <read_alias_file+0x3fc>
   13d4c:	00052703          	lw	a4,0(a0)
   13d50:	ffff87b7          	lui	a5,0xffff8
   13d54:	fff78793          	addi	a5,a5,-1 # ffffffffffff7fff <__BSS_END__+0xfffffffffff71fef>
   13d58:	00f777b3          	and	a5,a4,a5
   13d5c:	000086b7          	lui	a3,0x8
   13d60:	00d7e7b3          	or	a5,a5,a3
   13d64:	00f52023          	sw	a5,0(a0)
   13d68:	01077713          	andi	a4,a4,16
   13d6c:	00050913          	mv	s2,a0
   13d70:	00000b13          	li	s6,0
   13d74:	38071863          	bnez	a4,14104 <read_alias_file+0x440>
   13d78:	00071997          	auipc	s3,0x71
   13d7c:	b089b983          	ld	s3,-1272(s3) # 84880 <_GLOBAL_OFFSET_TABLE_+0x80>
   13d80:	00002d37          	lui	s10,0x2
   13d84:	02300a13          	li	s4,35
   13d88:	00090613          	mv	a2,s2
   13d8c:	19000593          	li	a1,400
   13d90:	e0040513          	addi	a0,s0,-512
   13d94:	2b40c0ef          	jal	ra,20048 <__fgets_unlocked>
   13d98:	06050663          	beqz	a0,13e04 <read_alias_file+0x140>
   13d9c:	00a00593          	li	a1,10
   13da0:	e0040513          	addi	a0,s0,-512
   13da4:	049170ef          	jal	ra,2b5ec <strchr>
   13da8:	00498733          	add	a4,s3,tp
   13dac:	e0044603          	lbu	a2,-512(s0)
   13db0:	00073583          	ld	a1,0(a4)
   13db4:	00050d93          	mv	s11,a0
   13db8:	00161713          	slli	a4,a2,0x1
   13dbc:	00e58733          	add	a4,a1,a4
   13dc0:	00075703          	lhu	a4,0(a4)
   13dc4:	e0040493          	addi	s1,s0,-512
   13dc8:	01a77733          	and	a4,a4,s10
   13dcc:	02070063          	beqz	a4,13dec <read_alias_file+0x128>
   13dd0:	0014c603          	lbu	a2,1(s1)
   13dd4:	00148493          	addi	s1,s1,1
   13dd8:	00161713          	slli	a4,a2,0x1
   13ddc:	00e58733          	add	a4,a1,a4
   13de0:	00075703          	lhu	a4,0(a4)
   13de4:	01a77733          	and	a4,a4,s10
   13de8:	fe0714e3          	bnez	a4,13dd0 <read_alias_file+0x10c>
   13dec:	00060463          	beqz	a2,13df4 <read_alias_file+0x130>
   13df0:	0b461663          	bne	a2,s4,13e9c <read_alias_file+0x1d8>
   13df4:	080d8263          	beqz	s11,13e78 <read_alias_file+0x1b4>
   13df8:	00092703          	lw	a4,0(s2)
   13dfc:	01077713          	andi	a4,a4,16
   13e00:	f80704e3          	beqz	a4,13d88 <read_alias_file+0xc4>
   13e04:	00090513          	mv	a0,s2
   13e08:	089090ef          	jal	ra,1d690 <_IO_new_fclose>
   13e0c:	020b0063          	beqz	s6,13e2c <read_alias_file+0x168>
   13e10:	a481b583          	ld	a1,-1464(gp) # 84b08 <nmap>
   13e14:	000867b7          	lui	a5,0x86
   13e18:	fe87b503          	ld	a0,-24(a5) # 85fe8 <map>
   13e1c:	000146b7          	lui	a3,0x14
   13e20:	cb068693          	addi	a3,a3,-848 # 13cb0 <alias_compare>
   13e24:	01000613          	li	a2,16
   13e28:	7d9010ef          	jal	ra,15e00 <qsort>
   13e2c:	dc040113          	addi	sp,s0,-576
   13e30:	23813083          	ld	ra,568(sp)
   13e34:	000b0513          	mv	a0,s6
   13e38:	23013403          	ld	s0,560(sp)
   13e3c:	22813483          	ld	s1,552(sp)
   13e40:	22013903          	ld	s2,544(sp)
   13e44:	21813983          	ld	s3,536(sp)
   13e48:	21013a03          	ld	s4,528(sp)
   13e4c:	20813a83          	ld	s5,520(sp)
   13e50:	20013b03          	ld	s6,512(sp)
   13e54:	1f813b83          	ld	s7,504(sp)
   13e58:	1f013c03          	ld	s8,496(sp)
   13e5c:	1e813c83          	ld	s9,488(sp)
   13e60:	1e013d03          	ld	s10,480(sp)
   13e64:	1d813d83          	ld	s11,472(sp)
   13e68:	24010113          	addi	sp,sp,576
   13e6c:	00008067          	ret
   13e70:	77c170ef          	jal	ra,2b5ec <strchr>
   13e74:	f80512e3          	bnez	a0,13df8 <read_alias_file+0x134>
   13e78:	19000593          	li	a1,400
   13e7c:	00090613          	mv	a2,s2
   13e80:	e0040513          	addi	a0,s0,-512
   13e84:	1c40c0ef          	jal	ra,20048 <__fgets_unlocked>
   13e88:	00050713          	mv	a4,a0
   13e8c:	00a00593          	li	a1,10
   13e90:	e0040513          	addi	a0,s0,-512
   13e94:	fc071ee3          	bnez	a4,13e70 <read_alias_file+0x1ac>
   13e98:	f61ff06f          	j	13df8 <read_alias_file+0x134>
   13e9c:	0014c603          	lbu	a2,1(s1)
   13ea0:	00148c93          	addi	s9,s1,1
   13ea4:	00061663          	bnez	a2,13eb0 <read_alias_file+0x1ec>
   13ea8:	0480006f          	j	13ef0 <read_alias_file+0x22c>
   13eac:	04060263          	beqz	a2,13ef0 <read_alias_file+0x22c>
   13eb0:	00161613          	slli	a2,a2,0x1
   13eb4:	00c58633          	add	a2,a1,a2
   13eb8:	00065503          	lhu	a0,0(a2)
   13ebc:	000c8813          	mv	a6,s9
   13ec0:	001cc603          	lbu	a2,1(s9)
   13ec4:	01a57533          	and	a0,a0,s10
   13ec8:	001c8c93          	addi	s9,s9,1
   13ecc:	fe0500e3          	beqz	a0,13eac <read_alias_file+0x1e8>
   13ed0:	00161513          	slli	a0,a2,0x1
   13ed4:	00080023          	sb	zero,0(a6)
   13ed8:	00a58533          	add	a0,a1,a0
   13edc:	00055503          	lhu	a0,0(a0)
   13ee0:	01a57533          	and	a0,a0,s10
   13ee4:	02050063          	beqz	a0,13f04 <read_alias_file+0x240>
   13ee8:	001cc603          	lbu	a2,1(s9)
   13eec:	001c8c93          	addi	s9,s9,1
   13ef0:	00161513          	slli	a0,a2,0x1
   13ef4:	00a58533          	add	a0,a1,a0
   13ef8:	00055503          	lhu	a0,0(a0)
   13efc:	01a57533          	and	a0,a0,s10
   13f00:	fe0514e3          	bnez	a0,13ee8 <read_alias_file+0x224>
   13f04:	ee0608e3          	beqz	a2,13df4 <read_alias_file+0x130>
   13f08:	001cc503          	lbu	a0,1(s9)
   13f0c:	001c8813          	addi	a6,s9,1
   13f10:	00051a63          	bnez	a0,13f24 <read_alias_file+0x260>
   13f14:	0340006f          	j	13f48 <read_alias_file+0x284>
   13f18:	00184503          	lbu	a0,1(a6)
   13f1c:	00180813          	addi	a6,a6,1
   13f20:	02050463          	beqz	a0,13f48 <read_alias_file+0x284>
   13f24:	00151613          	slli	a2,a0,0x1
   13f28:	00c58633          	add	a2,a1,a2
   13f2c:	00065603          	lhu	a2,0(a2)
   13f30:	01a67633          	and	a2,a2,s10
   13f34:	fe0602e3          	beqz	a2,13f18 <read_alias_file+0x254>
   13f38:	00a00613          	li	a2,10
   13f3c:	16c51463          	bne	a0,a2,140a4 <read_alias_file+0x3e0>
   13f40:	00080023          	sb	zero,0(a6)
   13f44:	00a800a3          	sb	a0,1(a6)
   13f48:	a401b603          	ld	a2,-1472(gp) # 84b00 <maxmap>
   13f4c:	a481ba83          	ld	s5,-1464(gp) # 84b08 <nmap>
   13f50:	000867b7          	lui	a5,0x86
   13f54:	fe878b93          	addi	s7,a5,-24 # 85fe8 <map>
   13f58:	10cafc63          	bgeu	s5,a2,14070 <read_alias_file+0x3ac>
   13f5c:	00048513          	mv	a0,s1
   13f60:	3c5170ef          	jal	ra,2bb24 <strlen>
   13f64:	00050613          	mv	a2,a0
   13f68:	00160613          	addi	a2,a2,1
   13f6c:	000c8513          	mv	a0,s9
   13f70:	dec43c23          	sd	a2,-520(s0)
   13f74:	3b1170ef          	jal	ra,2bb24 <strlen>
   13f78:	a581bf83          	ld	t6,-1448(gp) # 84b18 <string_space_act>
   13f7c:	df843603          	ld	a2,-520(s0)
   13f80:	a501b583          	ld	a1,-1456(gp) # 84b10 <string_space_max>
   13f84:	00150893          	addi	a7,a0,1
   13f88:	00cf8f33          	add	t5,t6,a2
   13f8c:	011f0eb3          	add	t4,t5,a7
   13f90:	008bbe03          	ld	t3,8(s7)
   13f94:	07d5e663          	bltu	a1,t4,14000 <read_alias_file+0x33c>
   13f98:	000bb383          	ld	t2,0(s7)
   13f9c:	000e0813          	mv	a6,t3
   13fa0:	004a9293          	slli	t0,s5,0x4
   13fa4:	00048593          	mv	a1,s1
   13fa8:	01f80533          	add	a0,a6,t6
   13fac:	005384b3          	add	s1,t2,t0
   13fb0:	dfd43423          	sd	t4,-536(s0)
   13fb4:	df143023          	sd	a7,-544(s0)
   13fb8:	dfe43823          	sd	t5,-528(s0)
   13fbc:	df043c23          	sd	a6,-520(s0)
   13fc0:	4d5180ef          	jal	ra,2cc94 <memcpy>
   13fc4:	de043883          	ld	a7,-544(s0)
   13fc8:	df843803          	ld	a6,-520(s0)
   13fcc:	df043f03          	ld	t5,-528(s0)
   13fd0:	00a4b023          	sd	a0,0(s1)
   13fd4:	00088613          	mv	a2,a7
   13fd8:	000c8593          	mv	a1,s9
   13fdc:	01e80533          	add	a0,a6,t5
   13fe0:	4b5180ef          	jal	ra,2cc94 <memcpy>
   13fe4:	de843e83          	ld	t4,-536(s0)
   13fe8:	001a8a93          	addi	s5,s5,1
   13fec:	00a4b423          	sd	a0,8(s1)
   13ff0:	a5d1bc23          	sd	t4,-1448(gp) # 84b18 <string_space_act>
   13ff4:	a551b423          	sd	s5,-1464(gp) # 84b08 <nmap>
   13ff8:	001b0b13          	addi	s6,s6,1
   13ffc:	df9ff06f          	j	13df4 <read_alias_file+0x130>
   14000:	01160533          	add	a0,a2,a7
   14004:	40000813          	li	a6,1024
   14008:	0b056263          	bltu	a0,a6,140ac <read_alias_file+0x3e8>
   1400c:	00b505b3          	add	a1,a0,a1
   14010:	000e0513          	mv	a0,t3
   14014:	dd143423          	sd	a7,-568(s0)
   14018:	dcc43823          	sd	a2,-560(s0)
   1401c:	ddd43c23          	sd	t4,-552(s0)
   14020:	dfe43023          	sd	t5,-544(s0)
   14024:	dff43423          	sd	t6,-536(s0)
   14028:	deb43823          	sd	a1,-528(s0)
   1402c:	dfc43c23          	sd	t3,-520(s0)
   14030:	29c160ef          	jal	ra,2a2cc <__libc_realloc>
   14034:	00050813          	mv	a6,a0
   14038:	dc0506e3          	beqz	a0,13e04 <read_alias_file+0x140>
   1403c:	df843e03          	ld	t3,-520(s0)
   14040:	000bb383          	ld	t2,0(s7)
   14044:	df043583          	ld	a1,-528(s0)
   14048:	de843f83          	ld	t6,-536(s0)
   1404c:	de043f03          	ld	t5,-544(s0)
   14050:	dd843e83          	ld	t4,-552(s0)
   14054:	dd043603          	ld	a2,-560(s0)
   14058:	dc843883          	ld	a7,-568(s0)
   1405c:	07c51663          	bne	a0,t3,140c8 <read_alias_file+0x404>
   14060:	004a9293          	slli	t0,s5,0x4
   14064:	010bb423          	sd	a6,8(s7)
   14068:	a4b1b823          	sd	a1,-1456(gp) # 84b10 <string_space_max>
   1406c:	f39ff06f          	j	13fa4 <read_alias_file+0x2e0>
   14070:	04061263          	bnez	a2,140b4 <read_alias_file+0x3f0>
   14074:	64000593          	li	a1,1600
   14078:	06400813          	li	a6,100
   1407c:	000867b7          	lui	a5,0x86
   14080:	fe878b93          	addi	s7,a5,-24 # 85fe8 <map>
   14084:	000bb503          	ld	a0,0(s7)
   14088:	df043c23          	sd	a6,-520(s0)
   1408c:	240160ef          	jal	ra,2a2cc <__libc_realloc>
   14090:	d6050ae3          	beqz	a0,13e04 <read_alias_file+0x140>
   14094:	df843803          	ld	a6,-520(s0)
   14098:	00abb023          	sd	a0,0(s7)
   1409c:	a501b023          	sd	a6,-1472(gp) # 84b00 <maxmap>
   140a0:	ebdff06f          	j	13f5c <read_alias_file+0x298>
   140a4:	00080023          	sb	zero,0(a6)
   140a8:	ea1ff06f          	j	13f48 <read_alias_file+0x284>
   140ac:	40000513          	li	a0,1024
   140b0:	f5dff06f          	j	1400c <read_alias_file+0x348>
   140b4:	00161813          	slli	a6,a2,0x1
   140b8:	00561593          	slli	a1,a2,0x5
   140bc:	fc1ff06f          	j	1407c <read_alias_file+0x3b8>
   140c0:	00000b13          	li	s6,0
   140c4:	d69ff06f          	j	13e2c <read_alias_file+0x168>
   140c8:	00000293          	li	t0,0
   140cc:	f80a8ce3          	beqz	s5,14064 <read_alias_file+0x3a0>
   140d0:	004a9293          	slli	t0,s5,0x4
   140d4:	41c50e33          	sub	t3,a0,t3
   140d8:	005387b3          	add	a5,t2,t0
   140dc:	00038513          	mv	a0,t2
   140e0:	00053083          	ld	ra,0(a0)
   140e4:	00853683          	ld	a3,8(a0)
   140e8:	01050513          	addi	a0,a0,16
   140ec:	01c08733          	add	a4,ra,t3
   140f0:	01c680b3          	add	ra,a3,t3
   140f4:	fee53823          	sd	a4,-16(a0)
   140f8:	fe153c23          	sd	ra,-8(a0)
   140fc:	fea792e3          	bne	a5,a0,140e0 <read_alias_file+0x41c>
   14100:	f65ff06f          	j	14064 <read_alias_file+0x3a0>
   14104:	58c090ef          	jal	ra,1d690 <_IO_new_fclose>
   14108:	d25ff06f          	j	13e2c <read_alias_file+0x168>

000000000001410c <_nl_expand_alias>:
   1410c:	f9010113          	addi	sp,sp,-112
   14110:	03513c23          	sd	s5,56(sp)
   14114:	04913c23          	sd	s1,88(sp)
   14118:	06113423          	sd	ra,104(sp)
   1411c:	06813023          	sd	s0,96(sp)
   14120:	05213823          	sd	s2,80(sp)
   14124:	05313423          	sd	s3,72(sp)
   14128:	05413023          	sd	s4,64(sp)
   1412c:	03613823          	sd	s6,48(sp)
   14130:	03713423          	sd	s7,40(sp)
   14134:	03813023          	sd	s8,32(sp)
   14138:	01913c23          	sd	s9,24(sp)
   1413c:	01a13823          	sd	s10,16(sp)
   14140:	01b13423          	sd	s11,8(sp)
   14144:	00050493          	mv	s1,a0
   14148:	00100713          	li	a4,1
   1414c:	a6018693          	addi	a3,gp,-1440 # 84b20 <lock>
   14150:	1006a7af          	lr.w	a5,(a3)
   14154:	00079663          	bnez	a5,14160 <_nl_expand_alias+0x54>
   14158:	1ce6a62f          	sc.w.aq	a2,a4,(a3)
   1415c:	fe061ae3          	bnez	a2,14150 <_nl_expand_alias+0x44>
   14160:	0007879b          	sext.w	a5,a5
   14164:	18079663          	bnez	a5,142f0 <_nl_expand_alias+0x1e4>
   14168:	a381b783          	ld	a5,-1480(gp) # 84af8 <locale_alias_path.1>
   1416c:	12078c63          	beqz	a5,142a4 <_nl_expand_alias+0x198>
   14170:	a481bd03          	ld	s10,-1464(gp) # 84b08 <nmap>
   14174:	00086b37          	lui	s6,0x86
   14178:	00075937          	lui	s2,0x75
   1417c:	03a00413          	li	s0,58
   14180:	060d1a63          	bnez	s10,141f4 <_nl_expand_alias+0xe8>
   14184:	a381b583          	ld	a1,-1480(gp) # 84af8 <locale_alias_path.1>
   14188:	00000693          	li	a3,0
   1418c:	0005c783          	lbu	a5,0(a1)
   14190:	0a078063          	beqz	a5,14230 <_nl_expand_alias+0x124>
   14194:	00158713          	addi	a4,a1,1
   14198:	00058513          	mv	a0,a1
   1419c:	02879063          	bne	a5,s0,141bc <_nl_expand_alias+0xb0>
   141a0:	00074783          	lbu	a5,0(a4)
   141a4:	00070513          	mv	a0,a4
   141a8:	00170713          	addi	a4,a4,1
   141ac:	fe878ae3          	beq	a5,s0,141a0 <_nl_expand_alias+0x94>
   141b0:	00100693          	li	a3,1
   141b4:	00050593          	mv	a1,a0
   141b8:	fc078ae3          	beqz	a5,1418c <_nl_expand_alias+0x80>
   141bc:	00050593          	mv	a1,a0
   141c0:	00878a63          	beq	a5,s0,141d4 <_nl_expand_alias+0xc8>
   141c4:	0015c783          	lbu	a5,1(a1)
   141c8:	00100693          	li	a3,1
   141cc:	00158593          	addi	a1,a1,1
   141d0:	fe0798e3          	bnez	a5,141c0 <_nl_expand_alias+0xb4>
   141d4:	fab57ce3          	bgeu	a0,a1,1418c <_nl_expand_alias+0x80>
   141d8:	00068463          	beqz	a3,141e0 <_nl_expand_alias+0xd4>
   141dc:	a2b1bc23          	sd	a1,-1480(gp) # 84af8 <locale_alias_path.1>
   141e0:	40a585bb          	subw	a1,a1,a0
   141e4:	ae1ff0ef          	jal	ra,13cc4 <read_alias_file>
   141e8:	f8050ee3          	beqz	a0,14184 <_nl_expand_alias+0x78>
   141ec:	a481bd03          	ld	s10,-1464(gp) # 84b08 <nmap>
   141f0:	f80d0ae3          	beqz	s10,14184 <_nl_expand_alias+0x78>
   141f4:	fe8b3c03          	ld	s8,-24(s6) # 85fe8 <map>
   141f8:	00000d93          	li	s11,0
   141fc:	01ad8bb3          	add	s7,s11,s10
   14200:	001bdb93          	srli	s7,s7,0x1
   14204:	004b9c93          	slli	s9,s7,0x4
   14208:	019c0cb3          	add	s9,s8,s9
   1420c:	000cb583          	ld	a1,0(s9)
   14210:	a6890613          	addi	a2,s2,-1432 # 74a68 <_nl_C_locobj>
   14214:	00048513          	mv	a0,s1
   14218:	22d180ef          	jal	ra,2cc44 <__strcasecmp_l>
   1421c:	06054e63          	bltz	a0,14298 <_nl_expand_alias+0x18c>
   14220:	08050a63          	beqz	a0,142b4 <_nl_expand_alias+0x1a8>
   14224:	001b8d93          	addi	s11,s7,1
   14228:	fdadeae3          	bltu	s11,s10,141fc <_nl_expand_alias+0xf0>
   1422c:	f59ff06f          	j	14184 <_nl_expand_alias+0x78>
   14230:	00068463          	beqz	a3,14238 <_nl_expand_alias+0x12c>
   14234:	a2b1bc23          	sd	a1,-1480(gp) # 84af8 <locale_alias_path.1>
   14238:	00000793          	li	a5,0
   1423c:	00000713          	li	a4,0
   14240:	a6018693          	addi	a3,gp,-1440 # 84b20 <lock>
   14244:	0f50000f          	fence	iorw,ow
   14248:	08e6a72f          	amoswap.w	a4,a4,(a3)
   1424c:	0007071b          	sext.w	a4,a4
   14250:	00100693          	li	a3,1
   14254:	08e6c063          	blt	a3,a4,142d4 <_nl_expand_alias+0x1c8>
   14258:	06813083          	ld	ra,104(sp)
   1425c:	06013403          	ld	s0,96(sp)
   14260:	05813483          	ld	s1,88(sp)
   14264:	05013903          	ld	s2,80(sp)
   14268:	04813983          	ld	s3,72(sp)
   1426c:	04013a03          	ld	s4,64(sp)
   14270:	03813a83          	ld	s5,56(sp)
   14274:	03013b03          	ld	s6,48(sp)
   14278:	02813b83          	ld	s7,40(sp)
   1427c:	02013c03          	ld	s8,32(sp)
   14280:	01813c83          	ld	s9,24(sp)
   14284:	01013d03          	ld	s10,16(sp)
   14288:	00813d83          	ld	s11,8(sp)
   1428c:	00078513          	mv	a0,a5
   14290:	07010113          	addi	sp,sp,112
   14294:	00008067          	ret
   14298:	000b8d13          	mv	s10,s7
   1429c:	f7ade0e3          	bltu	s11,s10,141fc <_nl_expand_alias+0xf0>
   142a0:	ee5ff06f          	j	14184 <_nl_expand_alias+0x78>
   142a4:	000627b7          	lui	a5,0x62
   142a8:	de878793          	addi	a5,a5,-536 # 61de8 <_nl_default_dirname>
   142ac:	a2f1bc23          	sd	a5,-1480(gp) # 84af8 <locale_alias_path.1>
   142b0:	ec1ff06f          	j	14170 <_nl_expand_alias+0x64>
   142b4:	008cb783          	ld	a5,8(s9)
   142b8:	00000713          	li	a4,0
   142bc:	a6018693          	addi	a3,gp,-1440 # 84b20 <lock>
   142c0:	0f50000f          	fence	iorw,ow
   142c4:	08e6a72f          	amoswap.w	a4,a4,(a3)
   142c8:	0007071b          	sext.w	a4,a4
   142cc:	00100693          	li	a3,1
   142d0:	f8e6d4e3          	bge	a3,a4,14258 <_nl_expand_alias+0x14c>
   142d4:	06200893          	li	a7,98
   142d8:	a6018513          	addi	a0,gp,-1440 # 84b20 <lock>
   142dc:	08100593          	li	a1,129
   142e0:	00100613          	li	a2,1
   142e4:	00000693          	li	a3,0
   142e8:	00000073          	ecall
   142ec:	f6dff06f          	j	14258 <_nl_expand_alias+0x14c>
   142f0:	a6018513          	addi	a0,gp,-1440 # 84b20 <lock>
   142f4:	144110ef          	jal	ra,25438 <__lll_lock_wait_private>
   142f8:	e71ff06f          	j	14168 <_nl_expand_alias+0x5c>

00000000000142fc <_nl_make_l10nflist>:
   142fc:	f4010113          	addi	sp,sp,-192
   14300:	09313c23          	sd	s3,152(sp)
   14304:	00070993          	mv	s3,a4
   14308:	00050713          	mv	a4,a0
   1430c:	00098513          	mv	a0,s3
   14310:	0a813823          	sd	s0,176(sp)
   14314:	0a913423          	sd	s1,168(sp)
   14318:	0b213023          	sd	s2,160(sp)
   1431c:	09413823          	sd	s4,144(sp)
   14320:	09513423          	sd	s5,136(sp)
   14324:	09613023          	sd	s6,128(sp)
   14328:	07713c23          	sd	s7,120(sp)
   1432c:	07813823          	sd	s8,112(sp)
   14330:	00060493          	mv	s1,a2
   14334:	00078c13          	mv	s8,a5
   14338:	04f13423          	sd	a5,72(sp)
   1433c:	0a113c23          	sd	ra,184(sp)
   14340:	07913423          	sd	s9,104(sp)
   14344:	07a13023          	sd	s10,96(sp)
   14348:	05b13c23          	sd	s11,88(sp)
   1434c:	00068913          	mv	s2,a3
   14350:	02e13023          	sd	a4,32(sp)
   14354:	00058a93          	mv	s5,a1
   14358:	03013823          	sd	a6,48(sp)
   1435c:	03113c23          	sd	a7,56(sp)
   14360:	0046fa13          	andi	s4,a3,4
   14364:	7c0170ef          	jal	ra,2bb24 <strlen>
   14368:	0d012783          	lw	a5,208(sp)
   1436c:	00050413          	mv	s0,a0
   14370:	00248b93          	addi	s7,s1,2
   14374:	04f13023          	sd	a5,64(sp)
   14378:	00000b13          	li	s6,0
   1437c:	000a0863          	beqz	s4,1438c <_nl_make_l10nflist+0x90>
   14380:	000c0513          	mv	a0,s8
   14384:	7a0170ef          	jal	ra,2bb24 <strlen>
   14388:	00150b13          	addi	s6,a0,1
   1438c:	00297d93          	andi	s11,s2,2
   14390:	01740bb3          	add	s7,s0,s7
   14394:	00000c13          	li	s8,0
   14398:	000d8863          	beqz	s11,143a8 <_nl_make_l10nflist+0xac>
   1439c:	03013503          	ld	a0,48(sp)
   143a0:	784170ef          	jal	ra,2bb24 <strlen>
   143a4:	00150c13          	addi	s8,a0,1
   143a8:	00197d13          	andi	s10,s2,1
   143ac:	017b0bb3          	add	s7,s6,s7
   143b0:	00000413          	li	s0,0
   143b4:	000d0863          	beqz	s10,143c4 <_nl_make_l10nflist+0xc8>
   143b8:	03813503          	ld	a0,56(sp)
   143bc:	768170ef          	jal	ra,2bb24 <strlen>
   143c0:	00150413          	addi	s0,a0,1
   143c4:	00897c93          	andi	s9,s2,8
   143c8:	017c0bb3          	add	s7,s8,s7
   143cc:	00000b13          	li	s6,0
   143d0:	000c8863          	beqz	s9,143e0 <_nl_make_l10nflist+0xe4>
   143d4:	0c013503          	ld	a0,192(sp)
   143d8:	74c170ef          	jal	ra,2bb24 <strlen>
   143dc:	00150b13          	addi	s6,a0,1
   143e0:	0c813503          	ld	a0,200(sp)
   143e4:	01740433          	add	s0,s0,s7
   143e8:	01640433          	add	s0,s0,s6
   143ec:	738170ef          	jal	ra,2bb24 <strlen>
   143f0:	02a13423          	sd	a0,40(sp)
   143f4:	00a40533          	add	a0,s0,a0
   143f8:	694150ef          	jal	ra,29a8c <__libc_malloc>
   143fc:	00050413          	mv	s0,a0
   14400:	3e050e63          	beqz	a0,147fc <_nl_make_l10nflist+0x500>
   14404:	00048613          	mv	a2,s1
   14408:	000a8593          	mv	a1,s5
   1440c:	089180ef          	jal	ra,2cc94 <memcpy>
   14410:	04048463          	beqz	s1,14458 <_nl_make_l10nflist+0x15c>
   14414:	00040c13          	mv	s8,s0
   14418:	000c0513          	mv	a0,s8
   1441c:	708170ef          	jal	ra,2bb24 <strlen>
   14420:	fff54693          	not	a3,a0
   14424:	00048b13          	mv	s6,s1
   14428:	00db0b33          	add	s6,s6,a3
   1442c:	03a00b93          	li	s7,58
   14430:	00ac0533          	add	a0,s8,a0
   14434:	020b0263          	beqz	s6,14458 <_nl_make_l10nflist+0x15c>
   14438:	00150c13          	addi	s8,a0,1
   1443c:	01750023          	sb	s7,0(a0)
   14440:	000c0513          	mv	a0,s8
   14444:	6e0170ef          	jal	ra,2bb24 <strlen>
   14448:	fff54693          	not	a3,a0
   1444c:	00db0b33          	add	s6,s6,a3
   14450:	00ac0533          	add	a0,s8,a0
   14454:	fe0b12e3          	bnez	s6,14438 <_nl_make_l10nflist+0x13c>
   14458:	02f00793          	li	a5,47
   1445c:	00940533          	add	a0,s0,s1
   14460:	fef50fa3          	sb	a5,-1(a0)
   14464:	00098593          	mv	a1,s3
   14468:	788180ef          	jal	ra,2cbf0 <__stpcpy>
   1446c:	00050793          	mv	a5,a0
   14470:	280a1063          	bnez	s4,146f0 <_nl_make_l10nflist+0x3f4>
   14474:	00178513          	addi	a0,a5,1
   14478:	0e0d9463          	bnez	s11,14560 <_nl_make_l10nflist+0x264>
   1447c:	0a0d1663          	bnez	s10,14528 <_nl_make_l10nflist+0x22c>
   14480:	0c0c9263          	bnez	s9,14544 <_nl_make_l10nflist+0x248>
   14484:	02f00713          	li	a4,47
   14488:	00e78023          	sb	a4,0(a5)
   1448c:	02813783          	ld	a5,40(sp)
   14490:	0c813583          	ld	a1,200(sp)
   14494:	00178613          	addi	a2,a5,1
   14498:	7fc180ef          	jal	ra,2cc94 <memcpy>
   1449c:	02013783          	ld	a5,32(sp)
   144a0:	0007bb03          	ld	s6,0(a5)
   144a4:	300b0e63          	beqz	s6,147c0 <_nl_make_l10nflist+0x4c4>
   144a8:	000b0b93          	mv	s7,s6
   144ac:	00000a13          	li	s4,0
   144b0:	000bb503          	ld	a0,0(s7)
   144b4:	00040593          	mv	a1,s0
   144b8:	00050a63          	beqz	a0,144cc <_nl_make_l10nflist+0x1d0>
   144bc:	254170ef          	jal	ra,2b710 <strcmp>
   144c0:	02050063          	beqz	a0,144e0 <_nl_make_l10nflist+0x1e4>
   144c4:	00054863          	bltz	a0,144d4 <_nl_make_l10nflist+0x1d8>
   144c8:	000b8a13          	mv	s4,s7
   144cc:	018bbb83          	ld	s7,24(s7)
   144d0:	fe0b90e3          	bnez	s7,144b0 <_nl_make_l10nflist+0x1b4>
   144d4:	04013783          	ld	a5,64(sp)
   144d8:	00000b93          	li	s7,0
   144dc:	0a079263          	bnez	a5,14580 <_nl_make_l10nflist+0x284>
   144e0:	00040513          	mv	a0,s0
   144e4:	3bd150ef          	jal	ra,2a0a0 <__free>
   144e8:	0b813083          	ld	ra,184(sp)
   144ec:	0b013403          	ld	s0,176(sp)
   144f0:	0a813483          	ld	s1,168(sp)
   144f4:	0a013903          	ld	s2,160(sp)
   144f8:	09813983          	ld	s3,152(sp)
   144fc:	09013a03          	ld	s4,144(sp)
   14500:	08813a83          	ld	s5,136(sp)
   14504:	08013b03          	ld	s6,128(sp)
   14508:	07013c03          	ld	s8,112(sp)
   1450c:	06813c83          	ld	s9,104(sp)
   14510:	06013d03          	ld	s10,96(sp)
   14514:	05813d83          	ld	s11,88(sp)
   14518:	000b8513          	mv	a0,s7
   1451c:	07813b83          	ld	s7,120(sp)
   14520:	0c010113          	addi	sp,sp,192
   14524:	00008067          	ret
   14528:	03813583          	ld	a1,56(sp)
   1452c:	02e00713          	li	a4,46
   14530:	00e78023          	sb	a4,0(a5)
   14534:	6bc180ef          	jal	ra,2cbf0 <__stpcpy>
   14538:	00050793          	mv	a5,a0
   1453c:	00150513          	addi	a0,a0,1
   14540:	f40c82e3          	beqz	s9,14484 <_nl_make_l10nflist+0x188>
   14544:	0c013583          	ld	a1,192(sp)
   14548:	04000713          	li	a4,64
   1454c:	00e78023          	sb	a4,0(a5)
   14550:	6a0180ef          	jal	ra,2cbf0 <__stpcpy>
   14554:	00050793          	mv	a5,a0
   14558:	00150513          	addi	a0,a0,1
   1455c:	f29ff06f          	j	14484 <_nl_make_l10nflist+0x188>
   14560:	03013583          	ld	a1,48(sp)
   14564:	02e00713          	li	a4,46
   14568:	00e78023          	sb	a4,0(a5)
   1456c:	684180ef          	jal	ra,2cbf0 <__stpcpy>
   14570:	00050793          	mv	a5,a0
   14574:	00150513          	addi	a0,a0,1
   14578:	f00d04e3          	beqz	s10,14480 <_nl_make_l10nflist+0x184>
   1457c:	fadff06f          	j	14528 <_nl_make_l10nflist+0x22c>
   14580:	ffffd737          	lui	a4,0xffffd
   14584:	55570713          	addi	a4,a4,1365 # ffffffffffffd555 <__BSS_END__+0xfffffffffff77545>
   14588:	4019579b          	sraiw	a5,s2,0x1
   1458c:	00e7f7b3          	and	a5,a5,a4
   14590:	00005737          	lui	a4,0x5
   14594:	55570713          	addi	a4,a4,1365 # 5555 <catch_hook+0x54fd>
   14598:	00e97733          	and	a4,s2,a4
   1459c:	00e7873b          	addw	a4,a5,a4
   145a0:	fffff6b7          	lui	a3,0xfffff
   145a4:	4027579b          	sraiw	a5,a4,0x2
   145a8:	33368693          	addi	a3,a3,819 # fffffffffffff333 <__BSS_END__+0xfffffffffff79323>
   145ac:	00d7f6b3          	and	a3,a5,a3
   145b0:	000037b7          	lui	a5,0x3
   145b4:	33378793          	addi	a5,a5,819 # 3333 <catch_hook+0x32db>
   145b8:	00e7f7b3          	and	a5,a5,a4
   145bc:	00d787bb          	addw	a5,a5,a3
   145c0:	4047d71b          	sraiw	a4,a5,0x4
   145c4:	00001bb7          	lui	s7,0x1
   145c8:	f0fb8b93          	addi	s7,s7,-241 # f0f <catch_hook+0xeb7>
   145cc:	00f707bb          	addw	a5,a4,a5
   145d0:	0177f7b3          	and	a5,a5,s7
   145d4:	4087db9b          	sraiw	s7,a5,0x8
   145d8:	00fb87bb          	addw	a5,s7,a5
   145dc:	00100b93          	li	s7,1
   145e0:	00fb9bbb          	sllw	s7,s7,a5
   145e4:	00048c93          	mv	s9,s1
   145e8:	000a8d13          	mv	s10,s5
   145ec:	00000d93          	li	s11,0
   145f0:	1e048063          	beqz	s1,147d0 <_nl_make_l10nflist+0x4d4>
   145f4:	000d0513          	mv	a0,s10
   145f8:	52c170ef          	jal	ra,2bb24 <strlen>
   145fc:	fff54793          	not	a5,a0
   14600:	00fc8cb3          	add	s9,s9,a5
   14604:	00150513          	addi	a0,a0,1
   14608:	00ad0d33          	add	s10,s10,a0
   1460c:	001d8d93          	addi	s11,s11,1
   14610:	fe0c92e3          	bnez	s9,145f4 <_nl_make_l10nflist+0x2f8>
   14614:	037d8533          	mul	a0,s11,s7
   14618:	00550513          	addi	a0,a0,5
   1461c:	00351513          	slli	a0,a0,0x3
   14620:	46c150ef          	jal	ra,29a8c <__libc_malloc>
   14624:	00050b93          	mv	s7,a0
   14628:	1c050263          	beqz	a0,147ec <_nl_make_l10nflist+0x4f0>
   1462c:	00853023          	sd	s0,0(a0)
   14630:	00048d13          	mv	s10,s1
   14634:	000a8413          	mv	s0,s5
   14638:	00040513          	mv	a0,s0
   1463c:	4e8170ef          	jal	ra,2bb24 <strlen>
   14640:	fff54793          	not	a5,a0
   14644:	00fd0d33          	add	s10,s10,a5
   14648:	00150513          	addi	a0,a0,1
   1464c:	00a40433          	add	s0,s0,a0
   14650:	001c8c93          	addi	s9,s9,1
   14654:	fe0d12e3          	bnez	s10,14638 <_nl_make_l10nflist+0x33c>
   14658:	00100793          	li	a5,1
   1465c:	0afc8c63          	beq	s9,a5,14714 <_nl_make_l10nflist+0x418>
   14660:	00fba423          	sw	a5,8(s7)
   14664:	000bb823          	sd	zero,16(s7)
   14668:	140a0063          	beqz	s4,147a8 <_nl_make_l10nflist+0x4ac>
   1466c:	018a3783          	ld	a5,24(s4)
   14670:	00fbbc23          	sd	a5,24(s7)
   14674:	017a3c23          	sd	s7,24(s4)
   14678:	14048863          	beqz	s1,147c8 <_nl_make_l10nflist+0x4cc>
   1467c:	00048a13          	mv	s4,s1
   14680:	000a8413          	mv	s0,s5
   14684:	00000b13          	li	s6,0
   14688:	00040513          	mv	a0,s0
   1468c:	498170ef          	jal	ra,2bb24 <strlen>
   14690:	fff54793          	not	a5,a0
   14694:	00fa0a33          	add	s4,s4,a5
   14698:	00150513          	addi	a0,a0,1
   1469c:	00a40433          	add	s0,s0,a0
   146a0:	001b0b13          	addi	s6,s6,1
   146a4:	fe0a12e3          	bnez	s4,14688 <_nl_make_l10nflist+0x38c>
   146a8:	00100793          	li	a5,1
   146ac:	00090413          	mv	s0,s2
   146b0:	04fb0e63          	beq	s6,a5,1470c <_nl_make_l10nflist+0x410>
   146b4:	10044263          	bltz	s0,147b8 <_nl_make_l10nflist+0x4bc>
   146b8:	fff94913          	not	s2,s2
   146bc:	00000a13          	li	s4,0
   146c0:	009a8b33          	add	s6,s5,s1
   146c4:	00100c13          	li	s8,1
   146c8:	fff00d13          	li	s10,-1
   146cc:	012477b3          	and	a5,s0,s2
   146d0:	04078a63          	beqz	a5,14724 <_nl_make_l10nflist+0x428>
   146d4:	fff4041b          	addiw	s0,s0,-1
   146d8:	ffa41ae3          	bne	s0,s10,146cc <_nl_make_l10nflist+0x3d0>
   146dc:	004a0793          	addi	a5,s4,4
   146e0:	00379793          	slli	a5,a5,0x3
   146e4:	00fb87b3          	add	a5,s7,a5
   146e8:	0007b023          	sd	zero,0(a5)
   146ec:	dfdff06f          	j	144e8 <_nl_make_l10nflist+0x1ec>
   146f0:	04813583          	ld	a1,72(sp)
   146f4:	05f00713          	li	a4,95
   146f8:	00e50023          	sb	a4,0(a0)
   146fc:	00150513          	addi	a0,a0,1
   14700:	4f0180ef          	jal	ra,2cbf0 <__stpcpy>
   14704:	00050793          	mv	a5,a0
   14708:	d6dff06f          	j	14474 <_nl_make_l10nflist+0x178>
   1470c:	fff9041b          	addiw	s0,s2,-1
   14710:	fa5ff06f          	j	146b4 <_nl_make_l10nflist+0x3b8>
   14714:	00397793          	andi	a5,s2,3
   14718:	ffd78793          	addi	a5,a5,-3
   1471c:	0017b793          	seqz	a5,a5
   14720:	f41ff06f          	j	14660 <_nl_make_l10nflist+0x364>
   14724:	003a1d93          	slli	s11,s4,0x3
   14728:	01bb8db3          	add	s11,s7,s11
   1472c:	00000c93          	li	s9,0
   14730:	060c8663          	beqz	s9,1479c <_nl_make_l10nflist+0x4a0>
   14734:	000c8513          	mv	a0,s9
   14738:	f96cfee3          	bgeu	s9,s6,146d4 <_nl_make_l10nflist+0x3d8>
   1473c:	3e8170ef          	jal	ra,2bb24 <strlen>
   14740:	00150793          	addi	a5,a0,1
   14744:	00fc8cb3          	add	s9,s9,a5
   14748:	f96cf6e3          	bgeu	s9,s6,146d4 <_nl_make_l10nflist+0x3d8>
   1474c:	000c8513          	mv	a0,s9
   14750:	3d4170ef          	jal	ra,2bb24 <strlen>
   14754:	0c813783          	ld	a5,200(sp)
   14758:	00150613          	addi	a2,a0,1
   1475c:	03813883          	ld	a7,56(sp)
   14760:	00f13423          	sd	a5,8(sp)
   14764:	0c013783          	ld	a5,192(sp)
   14768:	03013803          	ld	a6,48(sp)
   1476c:	02013503          	ld	a0,32(sp)
   14770:	00f13023          	sd	a5,0(sp)
   14774:	04813783          	ld	a5,72(sp)
   14778:	01813823          	sd	s8,16(sp)
   1477c:	00098713          	mv	a4,s3
   14780:	00040693          	mv	a3,s0
   14784:	000c8593          	mv	a1,s9
   14788:	b75ff0ef          	jal	ra,142fc <_nl_make_l10nflist>
   1478c:	02adb023          	sd	a0,32(s11)
   14790:	001a0a13          	addi	s4,s4,1
   14794:	008d8d93          	addi	s11,s11,8
   14798:	f99ff06f          	j	14730 <_nl_make_l10nflist+0x434>
   1479c:	f2048ce3          	beqz	s1,146d4 <_nl_make_l10nflist+0x3d8>
   147a0:	000a8c93          	mv	s9,s5
   147a4:	fa9ff06f          	j	1474c <_nl_make_l10nflist+0x450>
   147a8:	02013783          	ld	a5,32(sp)
   147ac:	016bbc23          	sd	s6,24(s7)
   147b0:	0177b023          	sd	s7,0(a5)
   147b4:	ec5ff06f          	j	14678 <_nl_make_l10nflist+0x37c>
   147b8:	00000a13          	li	s4,0
   147bc:	f21ff06f          	j	146dc <_nl_make_l10nflist+0x3e0>
   147c0:	00000a13          	li	s4,0
   147c4:	d11ff06f          	j	144d4 <_nl_make_l10nflist+0x1d8>
   147c8:	00090413          	mv	s0,s2
   147cc:	ee9ff06f          	j	146b4 <_nl_make_l10nflist+0x3b8>
   147d0:	02800513          	li	a0,40
   147d4:	2b8150ef          	jal	ra,29a8c <__libc_malloc>
   147d8:	00050b93          	mv	s7,a0
   147dc:	00050863          	beqz	a0,147ec <_nl_make_l10nflist+0x4f0>
   147e0:	008bb023          	sd	s0,0(s7)
   147e4:	00100793          	li	a5,1
   147e8:	e79ff06f          	j	14660 <_nl_make_l10nflist+0x364>
   147ec:	00040513          	mv	a0,s0
   147f0:	0b1150ef          	jal	ra,2a0a0 <__free>
   147f4:	00000b93          	li	s7,0
   147f8:	cf1ff06f          	j	144e8 <_nl_make_l10nflist+0x1ec>
   147fc:	00000b93          	li	s7,0
   14800:	ce9ff06f          	j	144e8 <_nl_make_l10nflist+0x1ec>

0000000000014804 <_nl_normalize_codeset>:
   14804:	fd010113          	addi	sp,sp,-48
   14808:	02113423          	sd	ra,40(sp)
   1480c:	02813023          	sd	s0,32(sp)
   14810:	00913c23          	sd	s1,24(sp)
   14814:	01213823          	sd	s2,16(sp)
   14818:	01313423          	sd	s3,8(sp)
   1481c:	10058a63          	beqz	a1,14930 <_nl_normalize_codeset+0x12c>
   14820:	000759b7          	lui	s3,0x75
   14824:	a6898993          	addi	s3,s3,-1432 # 74a68 <_nl_C_locobj>
   14828:	0689b403          	ld	s0,104(s3)
   1482c:	00a58633          	add	a2,a1,a0
   14830:	00058493          	mv	s1,a1
   14834:	00050913          	mv	s2,a0
   14838:	00050713          	mv	a4,a0
   1483c:	00100813          	li	a6,1
   14840:	00000513          	li	a0,0
   14844:	00900593          	li	a1,9
   14848:	00074783          	lbu	a5,0(a4)
   1484c:	00170713          	addi	a4,a4,1
   14850:	00179693          	slli	a3,a5,0x1
   14854:	00d406b3          	add	a3,s0,a3
   14858:	0006d683          	lhu	a3,0(a3)
   1485c:	fd07879b          	addiw	a5,a5,-48
   14860:	0086f693          	andi	a3,a3,8
   14864:	00068863          	beqz	a3,14874 <_nl_normalize_codeset+0x70>
   14868:	00150513          	addi	a0,a0,1
   1486c:	00f5f463          	bgeu	a1,a5,14874 <_nl_normalize_codeset+0x70>
   14870:	00000813          	li	a6,0
   14874:	fce61ae3          	bne	a2,a4,14848 <_nl_normalize_codeset+0x44>
   14878:	08081a63          	bnez	a6,1490c <_nl_normalize_codeset+0x108>
   1487c:	00150513          	addi	a0,a0,1
   14880:	20c150ef          	jal	ra,29a8c <__libc_malloc>
   14884:	00050813          	mv	a6,a0
   14888:	0a050a63          	beqz	a0,1493c <_nl_normalize_codeset+0x138>
   1488c:	0709b883          	ld	a7,112(s3)
   14890:	00000713          	li	a4,0
   14894:	00900313          	li	t1,9
   14898:	0180006f          	j	148b0 <_nl_normalize_codeset+0xac>
   1489c:	00062783          	lw	a5,0(a2)
   148a0:	00180813          	addi	a6,a6,1
   148a4:	fef80fa3          	sb	a5,-1(a6)
   148a8:	00170713          	addi	a4,a4,1
   148ac:	04977063          	bgeu	a4,s1,148ec <_nl_normalize_codeset+0xe8>
   148b0:	00e907b3          	add	a5,s2,a4
   148b4:	0007c783          	lbu	a5,0(a5)
   148b8:	00179693          	slli	a3,a5,0x1
   148bc:	00d406b3          	add	a3,s0,a3
   148c0:	0006d683          	lhu	a3,0(a3)
   148c4:	00279613          	slli	a2,a5,0x2
   148c8:	00c88633          	add	a2,a7,a2
   148cc:	4006f693          	andi	a3,a3,1024
   148d0:	fd07859b          	addiw	a1,a5,-48
   148d4:	fc0694e3          	bnez	a3,1489c <_nl_normalize_codeset+0x98>
   148d8:	fcb368e3          	bltu	t1,a1,148a8 <_nl_normalize_codeset+0xa4>
   148dc:	00f80023          	sb	a5,0(a6)
   148e0:	00170713          	addi	a4,a4,1
   148e4:	00180813          	addi	a6,a6,1
   148e8:	fc9764e3          	bltu	a4,s1,148b0 <_nl_normalize_codeset+0xac>
   148ec:	00080023          	sb	zero,0(a6)
   148f0:	02813083          	ld	ra,40(sp)
   148f4:	02013403          	ld	s0,32(sp)
   148f8:	01813483          	ld	s1,24(sp)
   148fc:	01013903          	ld	s2,16(sp)
   14900:	00813983          	ld	s3,8(sp)
   14904:	03010113          	addi	sp,sp,48
   14908:	00008067          	ret
   1490c:	00450513          	addi	a0,a0,4
   14910:	17c150ef          	jal	ra,29a8c <__libc_malloc>
   14914:	02050463          	beqz	a0,1493c <_nl_normalize_codeset+0x138>
   14918:	006f77b7          	lui	a5,0x6f7
   1491c:	36978793          	addi	a5,a5,873 # 6f7369 <__BSS_END__+0x671359>
   14920:	0689b403          	ld	s0,104(s3)
   14924:	00f52023          	sw	a5,0(a0)
   14928:	00350813          	addi	a6,a0,3
   1492c:	f61ff06f          	j	1488c <_nl_normalize_codeset+0x88>
   14930:	00400513          	li	a0,4
   14934:	158150ef          	jal	ra,29a8c <__libc_malloc>
   14938:	02051263          	bnez	a0,1495c <_nl_normalize_codeset+0x158>
   1493c:	02813083          	ld	ra,40(sp)
   14940:	02013403          	ld	s0,32(sp)
   14944:	01813483          	ld	s1,24(sp)
   14948:	01013903          	ld	s2,16(sp)
   1494c:	00813983          	ld	s3,8(sp)
   14950:	00000513          	li	a0,0
   14954:	03010113          	addi	sp,sp,48
   14958:	00008067          	ret
   1495c:	006f77b7          	lui	a5,0x6f7
   14960:	36978793          	addi	a5,a5,873 # 6f7369 <__BSS_END__+0x671359>
   14964:	00f52023          	sw	a5,0(a0)
   14968:	00350813          	addi	a6,a0,3
   1496c:	f81ff06f          	j	148ec <_nl_normalize_codeset+0xe8>

0000000000014970 <_nl_explode_name>:
   14970:	fb010113          	addi	sp,sp,-80
   14974:	00063023          	sd	zero,0(a2)
   14978:	02913c23          	sd	s1,56(sp)
   1497c:	03213823          	sd	s2,48(sp)
   14980:	04113423          	sd	ra,72(sp)
   14984:	04813023          	sd	s0,64(sp)
   14988:	03313423          	sd	s3,40(sp)
   1498c:	03413023          	sd	s4,32(sp)
   14990:	01513c23          	sd	s5,24(sp)
   14994:	01613823          	sd	s6,16(sp)
   14998:	01713423          	sd	s7,8(sp)
   1499c:	0006b023          	sd	zero,0(a3)
   149a0:	00073023          	sd	zero,0(a4)
   149a4:	0007b023          	sd	zero,0(a5)
   149a8:	00a5b023          	sd	a0,0(a1)
   149ac:	00054583          	lbu	a1,0(a0)
   149b0:	00068493          	mv	s1,a3
   149b4:	00070913          	mv	s2,a4
   149b8:	02058a63          	beqz	a1,149ec <_nl_explode_name+0x7c>
   149bc:	00060a93          	mv	s5,a2
   149c0:	00078993          	mv	s3,a5
   149c4:	00050413          	mv	s0,a0
   149c8:	05f00813          	li	a6,95
   149cc:	04000893          	li	a7,64
   149d0:	02e00313          	li	t1,46
   149d4:	13058663          	beq	a1,a6,14b00 <_nl_explode_name+0x190>
   149d8:	09158463          	beq	a1,a7,14a60 <_nl_explode_name+0xf0>
   149dc:	08658263          	beq	a1,t1,14a60 <_nl_explode_name+0xf0>
   149e0:	00144583          	lbu	a1,1(s0)
   149e4:	00140413          	addi	s0,s0,1
   149e8:	fe0596e3          	bnez	a1,149d4 <_nl_explode_name+0x64>
   149ec:	00000a13          	li	s4,0
   149f0:	00093403          	ld	s0,0(s2)
   149f4:	0004b783          	ld	a5,0(s1)
   149f8:	00078663          	beqz	a5,14a04 <_nl_explode_name+0x94>
   149fc:	0007c783          	lbu	a5,0(a5)
   14a00:	04078c63          	beqz	a5,14a58 <_nl_explode_name+0xe8>
   14a04:	00040863          	beqz	s0,14a14 <_nl_explode_name+0xa4>
   14a08:	00044783          	lbu	a5,0(s0)
   14a0c:	00079463          	bnez	a5,14a14 <_nl_explode_name+0xa4>
   14a10:	ffda7a13          	andi	s4,s4,-3
   14a14:	04813083          	ld	ra,72(sp)
   14a18:	04013403          	ld	s0,64(sp)
   14a1c:	03813483          	ld	s1,56(sp)
   14a20:	03013903          	ld	s2,48(sp)
   14a24:	02813983          	ld	s3,40(sp)
   14a28:	01813a83          	ld	s5,24(sp)
   14a2c:	01013b03          	ld	s6,16(sp)
   14a30:	00813b83          	ld	s7,8(sp)
   14a34:	000a0513          	mv	a0,s4
   14a38:	02013a03          	ld	s4,32(sp)
   14a3c:	05010113          	addi	sp,sp,80
   14a40:	00008067          	ret
   14a44:	0004b783          	ld	a5,0(s1)
   14a48:	000b8a13          	mv	s4,s7
   14a4c:	fa078ee3          	beqz	a5,14a08 <_nl_explode_name+0x98>
   14a50:	0007c783          	lbu	a5,0(a5)
   14a54:	fa079ae3          	bnez	a5,14a08 <_nl_explode_name+0x98>
   14a58:	ffba7a13          	andi	s4,s4,-5
   14a5c:	fa9ff06f          	j	14a04 <_nl_explode_name+0x94>
   14a60:	00000a13          	li	s4,0
   14a64:	f88504e3          	beq	a0,s0,149ec <_nl_explode_name+0x7c>
   14a68:	00044703          	lbu	a4,0(s0)
   14a6c:	02e00793          	li	a5,46
   14a70:	06f71463          	bne	a4,a5,14ad8 <_nl_explode_name+0x168>
   14a74:	00040023          	sb	zero,0(s0)
   14a78:	00140513          	addi	a0,s0,1
   14a7c:	00a93023          	sd	a0,0(s2)
   14a80:	00144703          	lbu	a4,1(s0)
   14a84:	002a6b93          	ori	s7,s4,2
   14a88:	00050413          	mv	s0,a0
   14a8c:	00070593          	mv	a1,a4
   14a90:	04000793          	li	a5,64
   14a94:	0c070a63          	beqz	a4,14b68 <_nl_explode_name+0x1f8>
   14a98:	0af58863          	beq	a1,a5,14b48 <_nl_explode_name+0x1d8>
   14a9c:	00144583          	lbu	a1,1(s0)
   14aa0:	00140413          	addi	s0,s0,1
   14aa4:	fe059ae3          	bnez	a1,14a98 <_nl_explode_name+0x128>
   14aa8:	f8850ee3          	beq	a0,s0,14a44 <_nl_explode_name+0xd4>
   14aac:	40a405b3          	sub	a1,s0,a0
   14ab0:	d55ff0ef          	jal	ra,14804 <_nl_normalize_codeset>
   14ab4:	00a9b023          	sd	a0,0(s3)
   14ab8:	00050b13          	mv	s6,a0
   14abc:	0a050a63          	beqz	a0,14b70 <_nl_explode_name+0x200>
   14ac0:	00093503          	ld	a0,0(s2)
   14ac4:	000b0593          	mv	a1,s6
   14ac8:	449160ef          	jal	ra,2b710 <strcmp>
   14acc:	08050463          	beqz	a0,14b54 <_nl_explode_name+0x1e4>
   14ad0:	00044703          	lbu	a4,0(s0)
   14ad4:	003a6a13          	ori	s4,s4,3
   14ad8:	04000793          	li	a5,64
   14adc:	f0f71ae3          	bne	a4,a5,149f0 <_nl_explode_name+0x80>
   14ae0:	00140793          	addi	a5,s0,1
   14ae4:	00040023          	sb	zero,0(s0)
   14ae8:	00fab023          	sd	a5,0(s5)
   14aec:	00144783          	lbu	a5,1(s0)
   14af0:	00093403          	ld	s0,0(s2)
   14af4:	f00780e3          	beqz	a5,149f4 <_nl_explode_name+0x84>
   14af8:	008a6a13          	ori	s4,s4,8
   14afc:	ef9ff06f          	j	149f4 <_nl_explode_name+0x84>
   14b00:	ee8506e3          	beq	a0,s0,149ec <_nl_explode_name+0x7c>
   14b04:	00040023          	sb	zero,0(s0)
   14b08:	00140513          	addi	a0,s0,1
   14b0c:	00a4b023          	sd	a0,0(s1)
   14b10:	00144583          	lbu	a1,1(s0)
   14b14:	02e00793          	li	a5,46
   14b18:	04000713          	li	a4,64
   14b1c:	00058c63          	beqz	a1,14b34 <_nl_explode_name+0x1c4>
   14b20:	00f58e63          	beq	a1,a5,14b3c <_nl_explode_name+0x1cc>
   14b24:	00e58c63          	beq	a1,a4,14b3c <_nl_explode_name+0x1cc>
   14b28:	00154583          	lbu	a1,1(a0)
   14b2c:	00150513          	addi	a0,a0,1
   14b30:	fe0598e3          	bnez	a1,14b20 <_nl_explode_name+0x1b0>
   14b34:	00400a13          	li	s4,4
   14b38:	eb9ff06f          	j	149f0 <_nl_explode_name+0x80>
   14b3c:	00050413          	mv	s0,a0
   14b40:	00400a13          	li	s4,4
   14b44:	f25ff06f          	j	14a68 <_nl_explode_name+0xf8>
   14b48:	f68512e3          	bne	a0,s0,14aac <_nl_explode_name+0x13c>
   14b4c:	000b8a13          	mv	s4,s7
   14b50:	f89ff06f          	j	14ad8 <_nl_explode_name+0x168>
   14b54:	000b0513          	mv	a0,s6
   14b58:	548150ef          	jal	ra,2a0a0 <__free>
   14b5c:	00044703          	lbu	a4,0(s0)
   14b60:	000b8a13          	mv	s4,s7
   14b64:	f75ff06f          	j	14ad8 <_nl_explode_name+0x168>
   14b68:	000b8a13          	mv	s4,s7
   14b6c:	e85ff06f          	j	149f0 <_nl_explode_name+0x80>
   14b70:	fff00a13          	li	s4,-1
   14b74:	ea1ff06f          	j	14a14 <_nl_explode_name+0xa4>

0000000000014b78 <__gettext_free_exp>:
   14b78:	06050863          	beqz	a0,14be8 <__gettext_free_exp+0x70>
   14b7c:	00052783          	lw	a5,0(a0)
   14b80:	ff010113          	addi	sp,sp,-16
   14b84:	00813023          	sd	s0,0(sp)
   14b88:	00113423          	sd	ra,8(sp)
   14b8c:	00200713          	li	a4,2
   14b90:	00050413          	mv	s0,a0
   14b94:	02e78863          	beq	a5,a4,14bc4 <__gettext_free_exp+0x4c>
   14b98:	00300713          	li	a4,3
   14b9c:	02e78063          	beq	a5,a4,14bbc <__gettext_free_exp+0x44>
   14ba0:	00100713          	li	a4,1
   14ba4:	02e78463          	beq	a5,a4,14bcc <__gettext_free_exp+0x54>
   14ba8:	00040513          	mv	a0,s0
   14bac:	00013403          	ld	s0,0(sp)
   14bb0:	00813083          	ld	ra,8(sp)
   14bb4:	01010113          	addi	sp,sp,16
   14bb8:	4e81506f          	j	2a0a0 <__free>
   14bbc:	01853503          	ld	a0,24(a0)
   14bc0:	fb9ff0ef          	jal	ra,14b78 <__gettext_free_exp>
   14bc4:	01043503          	ld	a0,16(s0)
   14bc8:	fb1ff0ef          	jal	ra,14b78 <__gettext_free_exp>
   14bcc:	00843503          	ld	a0,8(s0)
   14bd0:	fa9ff0ef          	jal	ra,14b78 <__gettext_free_exp>
   14bd4:	00040513          	mv	a0,s0
   14bd8:	00013403          	ld	s0,0(sp)
   14bdc:	00813083          	ld	ra,8(sp)
   14be0:	01010113          	addi	sp,sp,16
   14be4:	4bc1506f          	j	2a0a0 <__free>
   14be8:	00008067          	ret

0000000000014bec <__gettextparse>:
   14bec:	84010113          	addi	sp,sp,-1984
   14bf0:	00062737          	lui	a4,0x62
   14bf4:	7a813823          	sd	s0,1968(sp)
   14bf8:	00100413          	li	s0,1
   14bfc:	77913423          	sd	s9,1896(sp)
   14c00:	02141793          	slli	a5,s0,0x21
   14c04:	24070c93          	addi	s9,a4,576 # 62240 <yypact>
   14c08:	7a913423          	sd	s1,1960(sp)
   14c0c:	77813823          	sd	s8,1904(sp)
   14c10:	04810493          	addi	s1,sp,72
   14c14:	11010c13          	addi	s8,sp,272
   14c18:	000626b7          	lui	a3,0x62
   14c1c:	87018713          	addi	a4,gp,-1936 # 84930 <yypgoto>
   14c20:	00178793          	addi	a5,a5,1
   14c24:	7b213023          	sd	s2,1952(sp)
   14c28:	79313c23          	sd	s3,1944(sp)
   14c2c:	79413823          	sd	s4,1936(sp)
   14c30:	79513423          	sd	s5,1928(sp)
   14c34:	77713c23          	sd	s7,1912(sp)
   14c38:	77a13023          	sd	s10,1888(sp)
   14c3c:	75b13c23          	sd	s11,1880(sp)
   14c40:	7a113c23          	sd	ra,1976(sp)
   14c44:	79613023          	sd	s6,1920(sp)
   14c48:	00a13823          	sd	a0,16(sp)
   14c4c:	04010423          	sb	zero,72(sp)
   14c50:	ffe00913          	li	s2,-2
   14c54:	00013023          	sd	zero,0(sp)
   14c58:	000c0a13          	mv	s4,s8
   14c5c:	00048b93          	mv	s7,s1
   14c60:	00048d13          	mv	s10,s1
   14c64:	0c800a93          	li	s5,200
   14c68:	00000d93          	li	s11,0
   14c6c:	08868993          	addi	s3,a3,136 # 62088 <yytranslate>
   14c70:	00e13423          	sd	a4,8(sp)
   14c74:	02f13023          	sd	a5,32(sp)
   14c78:	01bc87b3          	add	a5,s9,s11
   14c7c:	00078783          	lb	a5,0(a5)
   14c80:	ff600613          	li	a2,-10
   14c84:	00078513          	mv	a0,a5
   14c88:	06c78663          	beq	a5,a2,14cf4 <__gettextparse+0x108>
   14c8c:	ffe00613          	li	a2,-2
   14c90:	30c90063          	beq	s2,a2,14f90 <__gettextparse+0x3a4>
   14c94:	2f205063          	blez	s2,14f74 <__gettextparse+0x388>
   14c98:	10000613          	li	a2,256
   14c9c:	4cc90063          	beq	s2,a2,1515c <__gettextparse+0x570>
   14ca0:	01298633          	add	a2,s3,s2
   14ca4:	00060603          	lb	a2,0(a2)
   14ca8:	00c7853b          	addw	a0,a5,a2
   14cac:	03600593          	li	a1,54
   14cb0:	04a5e263          	bltu	a1,a0,14cf4 <__gettextparse+0x108>
   14cb4:	00a98533          	add	a0,s3,a0
   14cb8:	10850583          	lb	a1,264(a0)
   14cbc:	02c59c63          	bne	a1,a2,14cf4 <__gettextparse+0x108>
   14cc0:	14050783          	lb	a5,320(a0)
   14cc4:	00078d9b          	sext.w	s11,a5
   14cc8:	08f05463          	blez	a5,14d50 <__gettextparse+0x164>
   14ccc:	00013703          	ld	a4,0(sp)
   14cd0:	00070663          	beqz	a4,14cdc <__gettextparse+0xf0>
   14cd4:	fff7071b          	addiw	a4,a4,-1
   14cd8:	00e13023          	sd	a4,0(sp)
   14cdc:	02813703          	ld	a4,40(sp)
   14ce0:	000b8593          	mv	a1,s7
   14ce4:	008c0c13          	addi	s8,s8,8
   14ce8:	00ec3023          	sd	a4,0(s8)
   14cec:	ffe00913          	li	s2,-2
   14cf0:	1480006f          	j	14e38 <__gettextparse+0x24c>
   14cf4:	01b98db3          	add	s11,s3,s11
   14cf8:	178d8d83          	lb	s11,376(s11)
   14cfc:	040d9c63          	bnez	s11,14d54 <__gettextparse+0x168>
   14d00:	00013703          	ld	a4,0(sp)
   14d04:	00300613          	li	a2,3
   14d08:	00c71663          	bne	a4,a2,14d14 <__gettextparse+0x128>
   14d0c:	27204a63          	bgtz	s2,14f80 <__gettextparse+0x394>
   14d10:	24090e63          	beqz	s2,14f6c <__gettextparse+0x380>
   14d14:	ff600613          	li	a2,-10
   14d18:	03600593          	li	a1,54
   14d1c:	00c78c63          	beq	a5,a2,14d34 <__gettextparse+0x148>
   14d20:	0017879b          	addiw	a5,a5,1
   14d24:	00f5e863          	bltu	a1,a5,14d34 <__gettextparse+0x148>
   14d28:	00f987b3          	add	a5,s3,a5
   14d2c:	1087c503          	lbu	a0,264(a5)
   14d30:	20850a63          	beq	a0,s0,14f44 <__gettextparse+0x358>
   14d34:	23ab8c63          	beq	s7,s10,14f6c <__gettextparse+0x380>
   14d38:	fffb8783          	lb	a5,-1(s7)
   14d3c:	ff8c0c13          	addi	s8,s8,-8
   14d40:	fffb8b93          	addi	s7,s7,-1
   14d44:	00fc87b3          	add	a5,s9,a5
   14d48:	00078783          	lb	a5,0(a5)
   14d4c:	fd1ff06f          	j	14d1c <__gettextparse+0x130>
   14d50:	41b00dbb          	negw	s11,s11
   14d54:	01b987b3          	add	a5,s3,s11
   14d58:	19878b03          	lb	s6,408(a5)
   14d5c:	00100593          	li	a1,1
   14d60:	00d00313          	li	t1,13
   14d64:	416585bb          	subw	a1,a1,s6
   14d68:	00359593          	slli	a1,a1,0x3
   14d6c:	00bc05b3          	add	a1,s8,a1
   14d70:	0005b503          	ld	a0,0(a1)
   14d74:	07b36463          	bltu	t1,s11,14ddc <__gettextparse+0x1f0>
   14d78:	00062337          	lui	t1,0x62
   14d7c:	002d9593          	slli	a1,s11,0x2
   14d80:	e8030313          	addi	t1,t1,-384 # 61e80 <_nl_default_default_domain+0x80>
   14d84:	006585b3          	add	a1,a1,t1
   14d88:	0005a583          	lw	a1,0(a1)
   14d8c:	00058067          	jr	a1
   14d90:	ff8c2783          	lw	a5,-8(s8)
   14d94:	000c3303          	ld	t1,0(s8)
   14d98:	ff0c3583          	ld	a1,-16(s8)
   14d9c:	02f13c23          	sd	a5,56(sp)
   14da0:	36030663          	beqz	t1,1510c <__gettextparse+0x520>
   14da4:	36058463          	beqz	a1,1510c <__gettextparse+0x520>
   14da8:	02000513          	li	a0,32
   14dac:	02613823          	sd	t1,48(sp)
   14db0:	00b13c23          	sd	a1,24(sp)
   14db4:	4d9140ef          	jal	ra,29a8c <__libc_malloc>
   14db8:	01813583          	ld	a1,24(sp)
   14dbc:	03013303          	ld	t1,48(sp)
   14dc0:	34050663          	beqz	a0,1510c <__gettextparse+0x520>
   14dc4:	03813783          	ld	a5,56(sp)
   14dc8:	00200e13          	li	t3,2
   14dcc:	01c52023          	sw	t3,0(a0)
   14dd0:	00f52223          	sw	a5,4(a0)
   14dd4:	00653823          	sd	t1,16(a0)
   14dd8:	00b53423          	sd	a1,8(a0)
   14ddc:	01b98db3          	add	s11,s3,s11
   14de0:	1a8d8303          	lb	t1,424(s11)
   14de4:	00813783          	ld	a5,8(sp)
   14de8:	003b1613          	slli	a2,s6,0x3
   14dec:	40cc0c33          	sub	s8,s8,a2
   14df0:	ff03031b          	addiw	t1,t1,-16
   14df4:	00ac3423          	sd	a0,8(s8)
   14df8:	00f30633          	add	a2,t1,a5
   14dfc:	416b85b3          	sub	a1,s7,s6
   14e00:	00058783          	lb	a5,0(a1)
   14e04:	00060603          	lb	a2,0(a2)
   14e08:	03600513          	li	a0,54
   14e0c:	008c0c13          	addi	s8,s8,8
   14e10:	00f6063b          	addw	a2,a2,a5
   14e14:	00c56a63          	bltu	a0,a2,14e28 <__gettextparse+0x23c>
   14e18:	00c98633          	add	a2,s3,a2
   14e1c:	10864503          	lbu	a0,264(a2)
   14e20:	0ff7f793          	andi	a5,a5,255
   14e24:	1af50663          	beq	a0,a5,14fd0 <__gettextparse+0x3e4>
   14e28:	86818793          	addi	a5,gp,-1944 # 84928 <yydefgoto>
   14e2c:	00f30633          	add	a2,t1,a5
   14e30:	00060783          	lb	a5,0(a2)
   14e34:	00078d9b          	sext.w	s11,a5
   14e38:	fffa8613          	addi	a2,s5,-1
   14e3c:	00f580a3          	sb	a5,1(a1)
   14e40:	00158b93          	addi	s7,a1,1
   14e44:	00cd07b3          	add	a5,s10,a2
   14e48:	0afbe263          	bltu	s7,a5,14eec <__gettextparse+0x300>
   14e4c:	000027b7          	lui	a5,0x2
   14e50:	41ab8bb3          	sub	s7,s7,s10
   14e54:	70f78613          	addi	a2,a5,1807 # 270f <catch_hook+0x26b7>
   14e58:	001b8c13          	addi	s8,s7,1
   14e5c:	59564063          	blt	a2,s5,153dc <__gettextparse+0x7f0>
   14e60:	001a9a93          	slli	s5,s5,0x1
   14e64:	71078793          	addi	a5,a5,1808
   14e68:	0157d463          	bge	a5,s5,14e70 <__gettextparse+0x284>
   14e6c:	00078a93          	mv	s5,a5
   14e70:	003a9513          	slli	a0,s5,0x3
   14e74:	01550533          	add	a0,a0,s5
   14e78:	00750513          	addi	a0,a0,7
   14e7c:	411140ef          	jal	ra,29a8c <__libc_malloc>
   14e80:	00050b13          	mv	s6,a0
   14e84:	54050c63          	beqz	a0,153dc <__gettextparse+0x7f0>
   14e88:	000c0613          	mv	a2,s8
   14e8c:	000d0593          	mv	a1,s10
   14e90:	605170ef          	jal	ra,2cc94 <memcpy>
   14e94:	007a8313          	addi	t1,s5,7
   14e98:	ff837313          	andi	t1,t1,-8
   14e9c:	006b0333          	add	t1,s6,t1
   14ea0:	003c1c13          	slli	s8,s8,0x3
   14ea4:	00030513          	mv	a0,t1
   14ea8:	000c0613          	mv	a2,s8
   14eac:	000a0593          	mv	a1,s4
   14eb0:	5e5170ef          	jal	ra,2cc94 <memcpy>
   14eb4:	00050313          	mv	t1,a0
   14eb8:	009d0a63          	beq	s10,s1,14ecc <__gettextparse+0x2e0>
   14ebc:	00a13c23          	sd	a0,24(sp)
   14ec0:	000d0513          	mv	a0,s10
   14ec4:	1dc150ef          	jal	ra,2a0a0 <__free>
   14ec8:	01813303          	ld	t1,24(sp)
   14ecc:	fffa8613          	addi	a2,s5,-1
   14ed0:	ff8c0c13          	addi	s8,s8,-8
   14ed4:	017b0bb3          	add	s7,s6,s7
   14ed8:	00cb0633          	add	a2,s6,a2
   14edc:	01830c33          	add	s8,t1,s8
   14ee0:	4ecbf863          	bgeu	s7,a2,153d0 <__gettextparse+0x7e4>
   14ee4:	00030a13          	mv	s4,t1
   14ee8:	000b0d13          	mv	s10,s6
   14eec:	00900793          	li	a5,9
   14ef0:	d8fd94e3          	bne	s11,a5,14c78 <__gettextparse+0x8c>
   14ef4:	00000413          	li	s0,0
   14ef8:	009d0663          	beq	s10,s1,14f04 <__gettextparse+0x318>
   14efc:	000d0513          	mv	a0,s10
   14f00:	1a0150ef          	jal	ra,2a0a0 <__free>
   14f04:	7b813083          	ld	ra,1976(sp)
   14f08:	00040513          	mv	a0,s0
   14f0c:	7b013403          	ld	s0,1968(sp)
   14f10:	7a813483          	ld	s1,1960(sp)
   14f14:	7a013903          	ld	s2,1952(sp)
   14f18:	79813983          	ld	s3,1944(sp)
   14f1c:	79013a03          	ld	s4,1936(sp)
   14f20:	78813a83          	ld	s5,1928(sp)
   14f24:	78013b03          	ld	s6,1920(sp)
   14f28:	77813b83          	ld	s7,1912(sp)
   14f2c:	77013c03          	ld	s8,1904(sp)
   14f30:	76813c83          	ld	s9,1896(sp)
   14f34:	76013d03          	ld	s10,1888(sp)
   14f38:	75813d83          	ld	s11,1880(sp)
   14f3c:	7c010113          	addi	sp,sp,1984
   14f40:	00008067          	ret
   14f44:	14078783          	lb	a5,320(a5)
   14f48:	00078d9b          	sext.w	s11,a5
   14f4c:	def054e3          	blez	a5,14d34 <__gettextparse+0x148>
   14f50:	02813703          	ld	a4,40(sp)
   14f54:	000b8593          	mv	a1,s7
   14f58:	008c0c13          	addi	s8,s8,8
   14f5c:	00ec3023          	sd	a4,0(s8)
   14f60:	00300713          	li	a4,3
   14f64:	00e13023          	sd	a4,0(sp)
   14f68:	ed1ff06f          	j	14e38 <__gettextparse+0x24c>
   14f6c:	00100413          	li	s0,1
   14f70:	f89ff06f          	j	14ef8 <__gettextparse+0x30c>
   14f74:	00000613          	li	a2,0
   14f78:	00000913          	li	s2,0
   14f7c:	d31ff06f          	j	14cac <__gettextparse+0xc0>
   14f80:	ffe00913          	li	s2,-2
   14f84:	ff600613          	li	a2,-10
   14f88:	03600593          	li	a1,54
   14f8c:	d91ff06f          	j	14d1c <__gettextparse+0x130>
   14f90:	01013703          	ld	a4,16(sp)
   14f94:	02000893          	li	a7,32
   14f98:	00900313          	li	t1,9
   14f9c:	00073583          	ld	a1,0(a4)
   14fa0:	0005c603          	lbu	a2,0(a1)
   14fa4:	00060c63          	beqz	a2,14fbc <__gettextparse+0x3d0>
   14fa8:	01160463          	beq	a2,a7,14fb0 <__gettextparse+0x3c4>
   14fac:	18661063          	bne	a2,t1,1512c <__gettextparse+0x540>
   14fb0:	0015c603          	lbu	a2,1(a1)
   14fb4:	00158593          	addi	a1,a1,1
   14fb8:	fe0618e3          	bnez	a2,14fa8 <__gettextparse+0x3bc>
   14fbc:	01013703          	ld	a4,16(sp)
   14fc0:	00000613          	li	a2,0
   14fc4:	00000913          	li	s2,0
   14fc8:	00b73023          	sd	a1,0(a4)
   14fcc:	ce1ff06f          	j	14cac <__gettextparse+0xc0>
   14fd0:	14060783          	lb	a5,320(a2)
   14fd4:	00078d9b          	sext.w	s11,a5
   14fd8:	e61ff06f          	j	14e38 <__gettextparse+0x24c>
   14fdc:	000c3783          	ld	a5,0(s8)
   14fe0:	3e078063          	beqz	a5,153c0 <__gettextparse+0x7d4>
   14fe4:	02000513          	li	a0,32
   14fe8:	00f13c23          	sd	a5,24(sp)
   14fec:	2a1140ef          	jal	ra,29a8c <__libc_malloc>
   14ff0:	01813783          	ld	a5,24(sp)
   14ff4:	3c050663          	beqz	a0,153c0 <__gettextparse+0x7d4>
   14ff8:	02013703          	ld	a4,32(sp)
   14ffc:	00f53423          	sd	a5,8(a0)
   15000:	00e53023          	sd	a4,0(a0)
   15004:	dd9ff06f          	j	14ddc <__gettextparse+0x1f0>
   15008:	000c3583          	ld	a1,0(s8)
   1500c:	ff0c3783          	ld	a5,-16(s8)
   15010:	14058e63          	beqz	a1,1516c <__gettextparse+0x580>
   15014:	14078c63          	beqz	a5,1516c <__gettextparse+0x580>
   15018:	02000513          	li	a0,32
   1501c:	02b13823          	sd	a1,48(sp)
   15020:	00f13c23          	sd	a5,24(sp)
   15024:	269140ef          	jal	ra,29a8c <__libc_malloc>
   15028:	01813783          	ld	a5,24(sp)
   1502c:	03013583          	ld	a1,48(sp)
   15030:	12050e63          	beqz	a0,1516c <__gettextparse+0x580>
   15034:	00700313          	li	t1,7
   15038:	02131313          	slli	t1,t1,0x21
   1503c:	00230313          	addi	t1,t1,2
   15040:	00653023          	sd	t1,0(a0)
   15044:	00b53823          	sd	a1,16(a0)
   15048:	00f53423          	sd	a5,8(a0)
   1504c:	d91ff06f          	j	14ddc <__gettextparse+0x1f0>
   15050:	ff8c3503          	ld	a0,-8(s8)
   15054:	d89ff06f          	j	14ddc <__gettextparse+0x1f0>
   15058:	000c3583          	ld	a1,0(s8)
   1505c:	f00588e3          	beqz	a1,14f6c <__gettextparse+0x380>
   15060:	01013783          	ld	a5,16(sp)
   15064:	00b7b423          	sd	a1,8(a5)
   15068:	d75ff06f          	j	14ddc <__gettextparse+0x1f0>
   1506c:	000c3583          	ld	a1,0(s8)
   15070:	fe0c3303          	ld	t1,-32(s8)
   15074:	ff0c3783          	ld	a5,-16(s8)
   15078:	30058c63          	beqz	a1,15390 <__gettextparse+0x7a4>
   1507c:	30078a63          	beqz	a5,15390 <__gettextparse+0x7a4>
   15080:	30030863          	beqz	t1,15390 <__gettextparse+0x7a4>
   15084:	02000513          	li	a0,32
   15088:	02b13c23          	sd	a1,56(sp)
   1508c:	02f13823          	sd	a5,48(sp)
   15090:	00613c23          	sd	t1,24(sp)
   15094:	1f9140ef          	jal	ra,29a8c <__libc_malloc>
   15098:	01813303          	ld	t1,24(sp)
   1509c:	03013783          	ld	a5,48(sp)
   150a0:	03813583          	ld	a1,56(sp)
   150a4:	2e050663          	beqz	a0,15390 <__gettextparse+0x7a4>
   150a8:	02441e13          	slli	t3,s0,0x24
   150ac:	003e0e13          	addi	t3,t3,3
   150b0:	01c53023          	sd	t3,0(a0)
   150b4:	00b53c23          	sd	a1,24(a0)
   150b8:	00f53823          	sd	a5,16(a0)
   150bc:	00653423          	sd	t1,8(a0)
   150c0:	d1dff06f          	j	14ddc <__gettextparse+0x1f0>
   150c4:	000c3583          	ld	a1,0(s8)
   150c8:	ff0c3783          	ld	a5,-16(s8)
   150cc:	0a058063          	beqz	a1,1516c <__gettextparse+0x580>
   150d0:	08078e63          	beqz	a5,1516c <__gettextparse+0x580>
   150d4:	02000513          	li	a0,32
   150d8:	02b13823          	sd	a1,48(sp)
   150dc:	00f13c23          	sd	a5,24(sp)
   150e0:	1ad140ef          	jal	ra,29a8c <__libc_malloc>
   150e4:	01813783          	ld	a5,24(sp)
   150e8:	03013583          	ld	a1,48(sp)
   150ec:	08050063          	beqz	a0,1516c <__gettextparse+0x580>
   150f0:	00f00313          	li	t1,15
   150f4:	02031313          	slli	t1,t1,0x20
   150f8:	00230313          	addi	t1,t1,2
   150fc:	00653023          	sd	t1,0(a0)
   15100:	00b53823          	sd	a1,16(a0)
   15104:	00f53423          	sd	a5,8(a0)
   15108:	cd5ff06f          	j	14ddc <__gettextparse+0x1f0>
   1510c:	00030513          	mv	a0,t1
   15110:	00b13c23          	sd	a1,24(sp)
   15114:	a65ff0ef          	jal	ra,14b78 <__gettext_free_exp>
   15118:	01813583          	ld	a1,24(sp)
   1511c:	00058513          	mv	a0,a1
   15120:	a59ff0ef          	jal	ra,14b78 <__gettext_free_exp>
   15124:	00000513          	li	a0,0
   15128:	cb5ff06f          	j	14ddc <__gettextparse+0x1f0>
   1512c:	ff66031b          	addiw	t1,a2,-10
   15130:	0ff37313          	andi	t1,t1,255
   15134:	07200e93          	li	t4,114
   15138:	00158e13          	addi	t3,a1,1
   1513c:	0006091b          	sext.w	s2,a2
   15140:	086ee063          	bltu	t4,t1,151c0 <__gettextparse+0x5d4>
   15144:	00062eb7          	lui	t4,0x62
   15148:	00231313          	slli	t1,t1,0x2
   1514c:	eb8e8e93          	addi	t4,t4,-328 # 61eb8 <_nl_default_default_domain+0xb8>
   15150:	01d30333          	add	t1,t1,t4
   15154:	00032303          	lw	t1,0(t1)
   15158:	00030067          	jr	t1
   1515c:	10100913          	li	s2,257
   15160:	ff600613          	li	a2,-10
   15164:	03600593          	li	a1,54
   15168:	bb5ff06f          	j	14d1c <__gettextparse+0x130>
   1516c:	00058513          	mv	a0,a1
   15170:	00f13c23          	sd	a5,24(sp)
   15174:	a05ff0ef          	jal	ra,14b78 <__gettext_free_exp>
   15178:	01813783          	ld	a5,24(sp)
   1517c:	00078513          	mv	a0,a5
   15180:	9f9ff0ef          	jal	ra,14b78 <__gettext_free_exp>
   15184:	00000513          	li	a0,0
   15188:	c55ff06f          	j	14ddc <__gettextparse+0x1f0>
   1518c:	02000513          	li	a0,32
   15190:	0fd140ef          	jal	ra,29a8c <__libc_malloc>
   15194:	c40504e3          	beqz	a0,14ddc <__gettextparse+0x1f0>
   15198:	000c3583          	ld	a1,0(s8)
   1519c:	02041313          	slli	t1,s0,0x20
   151a0:	00653023          	sd	t1,0(a0)
   151a4:	00b53423          	sd	a1,8(a0)
   151a8:	c35ff06f          	j	14ddc <__gettextparse+0x1f0>
   151ac:	02000513          	li	a0,32
   151b0:	0dd140ef          	jal	ra,29a8c <__libc_malloc>
   151b4:	c20504e3          	beqz	a0,14ddc <__gettextparse+0x1f0>
   151b8:	00053023          	sd	zero,0(a0)
   151bc:	c21ff06f          	j	14ddc <__gettextparse+0x1f0>
   151c0:	01013703          	ld	a4,16(sp)
   151c4:	00200613          	li	a2,2
   151c8:	10100913          	li	s2,257
   151cc:	01c73023          	sd	t3,0(a4)
   151d0:	ad9ff06f          	j	14ca8 <__gettextparse+0xbc>
   151d4:	0015c503          	lbu	a0,1(a1)
   151d8:	00900613          	li	a2,9
   151dc:	fd09089b          	addiw	a7,s2,-48
   151e0:	fd05059b          	addiw	a1,a0,-48
   151e4:	0ff5f513          	andi	a0,a1,255
   151e8:	02a66863          	bltu	a2,a0,15218 <__gettextparse+0x62c>
   151ec:	00900313          	li	t1,9
   151f0:	001e4503          	lbu	a0,1(t3)
   151f4:	00289613          	slli	a2,a7,0x2
   151f8:	01160633          	add	a2,a2,a7
   151fc:	0005889b          	sext.w	a7,a1
   15200:	fd05059b          	addiw	a1,a0,-48
   15204:	00161613          	slli	a2,a2,0x1
   15208:	0ff5f513          	andi	a0,a1,255
   1520c:	001e0e13          	addi	t3,t3,1
   15210:	00c888b3          	add	a7,a7,a2
   15214:	fca37ee3          	bgeu	t1,a0,151f0 <__gettextparse+0x604>
   15218:	01013703          	ld	a4,16(sp)
   1521c:	03113423          	sd	a7,40(sp)
   15220:	00b00613          	li	a2,11
   15224:	01c73023          	sd	t3,0(a4)
   15228:	10600913          	li	s2,262
   1522c:	a7dff06f          	j	14ca8 <__gettextparse+0xbc>
   15230:	0015c503          	lbu	a0,1(a1)
   15234:	f8c516e3          	bne	a0,a2,151c0 <__gettextparse+0x5d4>
   15238:	00258e13          	addi	t3,a1,2
   1523c:	01013703          	ld	a4,16(sp)
   15240:	01298633          	add	a2,s3,s2
   15244:	00060603          	lb	a2,0(a2)
   15248:	01c73023          	sd	t3,0(a4)
   1524c:	a5dff06f          	j	14ca8 <__gettextparse+0xbc>
   15250:	02813703          	ld	a4,40(sp)
   15254:	02075b13          	srli	s6,a4,0x20
   15258:	020b1b13          	slli	s6,s6,0x20
   1525c:	005b6713          	ori	a4,s6,5
   15260:	02e13423          	sd	a4,40(sp)
   15264:	01013703          	ld	a4,16(sp)
   15268:	00900613          	li	a2,9
   1526c:	10500913          	li	s2,261
   15270:	01c73023          	sd	t3,0(a4)
   15274:	a35ff06f          	j	14ca8 <__gettextparse+0xbc>
   15278:	0015c503          	lbu	a0,1(a1)
   1527c:	03d00613          	li	a2,61
   15280:	18c50263          	beq	a0,a2,15404 <__gettextparse+0x818>
   15284:	01013703          	ld	a4,16(sp)
   15288:	00a00613          	li	a2,10
   1528c:	02100913          	li	s2,33
   15290:	01c73023          	sd	t3,0(a4)
   15294:	a15ff06f          	j	14ca8 <__gettextparse+0xbc>
   15298:	02813703          	ld	a4,40(sp)
   1529c:	0015c503          	lbu	a0,1(a1)
   152a0:	03d00613          	li	a2,61
   152a4:	02075b13          	srli	s6,a4,0x20
   152a8:	020b1b13          	slli	s6,s6,0x20
   152ac:	009b6713          	ori	a4,s6,9
   152b0:	12c50a63          	beq	a0,a2,153e4 <__gettextparse+0x7f8>
   152b4:	02e13423          	sd	a4,40(sp)
   152b8:	01013703          	ld	a4,16(sp)
   152bc:	00700613          	li	a2,7
   152c0:	10300913          	li	s2,259
   152c4:	01c73023          	sd	t3,0(a4)
   152c8:	9e1ff06f          	j	14ca8 <__gettextparse+0xbc>
   152cc:	0015c503          	lbu	a0,1(a1)
   152d0:	03d00613          	li	a2,61
   152d4:	eec516e3          	bne	a0,a2,151c0 <__gettextparse+0x5d4>
   152d8:	02813703          	ld	a4,40(sp)
   152dc:	00258593          	addi	a1,a1,2
   152e0:	02075b13          	srli	s6,a4,0x20
   152e4:	020b1b13          	slli	s6,s6,0x20
   152e8:	00cb6713          	ori	a4,s6,12
   152ec:	02e13423          	sd	a4,40(sp)
   152f0:	01013703          	ld	a4,16(sp)
   152f4:	00600613          	li	a2,6
   152f8:	10200913          	li	s2,258
   152fc:	00b73023          	sd	a1,0(a4)
   15300:	9a9ff06f          	j	14ca8 <__gettextparse+0xbc>
   15304:	02813703          	ld	a4,40(sp)
   15308:	02075b13          	srli	s6,a4,0x20
   1530c:	020b1b13          	slli	s6,s6,0x20
   15310:	004b6713          	ori	a4,s6,4
   15314:	f4dff06f          	j	15260 <__gettextparse+0x674>
   15318:	02813703          	ld	a4,40(sp)
   1531c:	02075b13          	srli	s6,a4,0x20
   15320:	020b1b13          	slli	s6,s6,0x20
   15324:	003b6713          	ori	a4,s6,3
   15328:	f39ff06f          	j	15260 <__gettextparse+0x674>
   1532c:	02813703          	ld	a4,40(sp)
   15330:	02075b13          	srli	s6,a4,0x20
   15334:	020b1b13          	slli	s6,s6,0x20
   15338:	007b6713          	ori	a4,s6,7
   1533c:	02e13423          	sd	a4,40(sp)
   15340:	01013703          	ld	a4,16(sp)
   15344:	00800613          	li	a2,8
   15348:	10400913          	li	s2,260
   1534c:	01c73023          	sd	t3,0(a4)
   15350:	959ff06f          	j	14ca8 <__gettextparse+0xbc>
   15354:	02813703          	ld	a4,40(sp)
   15358:	02075b13          	srli	s6,a4,0x20
   1535c:	020b1b13          	slli	s6,s6,0x20
   15360:	006b6713          	ori	a4,s6,6
   15364:	fd9ff06f          	j	1533c <__gettextparse+0x750>
   15368:	02813703          	ld	a4,40(sp)
   1536c:	0015c503          	lbu	a0,1(a1)
   15370:	03d00613          	li	a2,61
   15374:	02075b13          	srli	s6,a4,0x20
   15378:	020b1b13          	slli	s6,s6,0x20
   1537c:	00258593          	addi	a1,a1,2
   15380:	00ab6713          	ori	a4,s6,10
   15384:	06c50463          	beq	a0,a2,153ec <__gettextparse+0x800>
   15388:	008b6713          	ori	a4,s6,8
   1538c:	f29ff06f          	j	152b4 <__gettextparse+0x6c8>
   15390:	00058513          	mv	a0,a1
   15394:	00613c23          	sd	t1,24(sp)
   15398:	02f13823          	sd	a5,48(sp)
   1539c:	fdcff0ef          	jal	ra,14b78 <__gettext_free_exp>
   153a0:	03013783          	ld	a5,48(sp)
   153a4:	00078513          	mv	a0,a5
   153a8:	fd0ff0ef          	jal	ra,14b78 <__gettext_free_exp>
   153ac:	01813303          	ld	t1,24(sp)
   153b0:	00030513          	mv	a0,t1
